Archive member included because of file (symbol)

../output/default/pclin-2.6-x86/lib/libcsr_sched.a(csr_sched.o)
                              output/default/pclin-2.6-x86/obj/csr_tasks.o (CsrSchedRegisterTask)
../output/default/pclin-2.6-x86/lib/libcsr_ui.a(csr_ui_ctrl.o)
                              output/default/pclin-2.6-x86/obj/csr_tasks.o (CsrUiHandler)
../output/default/pclin-2.6-x86/lib/libcsr_ui.a(csr_ui_displaystack.o)
                              ../output/default/pclin-2.6-x86/lib/libcsr_ui.a(csr_ui_ctrl.o) (CsrUiDisplayDestroyAll)
../output/default/pclin-2.6-x86/lib/libcsr_ui.a(csr_ui_emulator_touchdecoder.o)
                              ../output/default/pclin-2.6-x86/lib/libcsr_ui.a(csr_ui_ctrl.o) (CsrUiTouchDecoderDeinit)
../output/default/pclin-2.6-x86/lib/libcsr_ui.a(csr_ui_keyhandler.o)
                              ../output/default/pclin-2.6-x86/lib/libcsr_ui.a(csr_ui_emulator_touchdecoder.o) (CsrUiKeyEvent)
../output/default/pclin-2.6-x86/lib/libcsr_ui.a(csr_ui_renderer.o)
                              ../output/default/pclin-2.6-x86/lib/libcsr_ui.a(csr_ui_ctrl.o) (CsrUiRenderRedraw)
../output/default/pclin-2.6-x86/lib/libcsr_ui.a(csr_ui_renderer_text.o)
                              ../output/default/pclin-2.6-x86/lib/libcsr_ui.a(csr_ui_ctrl.o) (CsrUiRenderTextRedraw)
../output/default/pclin-2.6-x86/lib/libcsr_ui.a(csr_ui_sef.o)
                              ../output/default/pclin-2.6-x86/lib/libcsr_ui.a(csr_ui_ctrl.o) (CsrUiUieCreateReqHandler)
../output/default/pclin-2.6-x86/lib/libcsr_ui.a(csr_ui_uiemanager.o)
                              ../output/default/pclin-2.6-x86/lib/libcsr_ui.a(csr_ui_renderer.o) (CsrUiUieMenuGetNumberOfItems)
../output/default/pclin-2.6-x86/lib/libcsr_ui.a(csr_ui_util.o)
                              ../output/default/pclin-2.6-x86/lib/libcsr_ui.a(csr_ui_renderer.o) (CsrUiUtilStringLength)
../output/default/pclin-2.6-x86/lib/libcsr_ui.a(csr_ui_free_down.o)
                              ../output/default/pclin-2.6-x86/lib/libcsr_ui.a(csr_ui_ctrl.o) (CsrUiFreeDownstreamMessageContents)
../output/default/pclin-2.6-x86/lib/libcsr_ui.a(csr_ui_graphics_driver.o)
                              ../output/default/pclin-2.6-x86/lib/libcsr_ui.a(csr_ui_renderer.o) (CsrUiGraphicsDriverGetFontWidth)
../output/default/pclin-2.6-x86/lib/libcsr_ui.a(csr_ui_icon.o)
                              ../output/default/pclin-2.6-x86/lib/libcsr_ui.a(csr_ui_renderer.o) (CsrUiIconPut)
../output/default/pclin-2.6-x86/lib/libcsr_ui.a(csr_ui_font_sax_mono_12x22.o)
                              ../output/default/pclin-2.6-x86/lib/libcsr_ui.a(csr_ui_graphics_driver.o) (CsrUiFontSaxMono12x22DataTable)
../output/default/pclin-2.6-x86/lib/libcsr_ui.a(csr_ui_font_sax_mono_10x21.o)
                              ../output/default/pclin-2.6-x86/lib/libcsr_ui.a(csr_ui_graphics_driver.o) (CsrUiFontSaxMono10x21DataTable)
../output/default/pclin-2.6-x86/lib/libcsr_app.a(csr_app_handler.o)
                              output/default/pclin-2.6-x86/obj/csr_tasks.o (CsrAppInitialization)
../output/default/pclin-2.6-x86/lib/libcsr_app.a(csr_app_ui_sef.o)
                              ../output/default/pclin-2.6-x86/lib/libcsr_app.a(csr_app_handler.o) (CsrAppCsrUiUieCreateCfmHandler)
../output/default/pclin-2.6-x86/lib/libcsr_app.a(csr_app_util.o)
                              ../output/default/pclin-2.6-x86/lib/libcsr_app.a(csr_app_ui_sef.o) (CsrAppRestoreSavedMessages)
../output/default/pclin-2.6-x86/lib/libcsr_app.a(csr_app_free_down.o)
                              ../output/default/pclin-2.6-x86/lib/libcsr_app.a(csr_app_handler.o) (CsrAppFreeDownstreamMessageContents)
../output/default/pclin-2.6-x86/lib/libcsr_app.a(csr_app_lower_private.o)
                              ../output/default/pclin-2.6-x86/lib/libcsr_app.a(csr_app_ui_sef.o) (CsrAppLowerPrivateExitFunction)
../bsp/ports/pclin/output/default/pclin-2.6-x86/lib/libcsr_main.a(csr_main.o)
                              /usr/lib/gcc/i686-linux-gnu/4.6/../../../i386-linux-gnu/crt1.o (main)
../output/default/pclin-2.6-x86/lib/libcsr_arg_search.a(csr_arg_search.o)
                              ../bsp/ports/pclin/output/default/pclin-2.6-x86/lib/libcsr_main.a(csr_main.o) (CsrArgSearchInit)
../bsp/ports/pclin/output/default/pclin-2.6-x86/lib/libcsr_app_main_bluecore.a(csr_app_main.o)
                              ../bsp/ports/pclin/output/default/pclin-2.6-x86/lib/libcsr_main.a(csr_main.o) (CsrMain)
../bsp/ports/pclin/output/default/pclin-2.6-x86/lib/libcsr_app_main_bluecore.a(csr_key_input.o)
                              ../bsp/ports/pclin/output/default/pclin-2.6-x86/lib/libcsr_app_main_bluecore.a(csr_app_main.o) (CsrKeyInputActivate)
../bsp/ports/pclin/output/default/pclin-2.6-x86/lib/libcsr_app_main_bluecore.a(csr_ui_lower.o)
                              ../bsp/ports/pclin/output/default/pclin-2.6-x86/lib/libcsr_app_main_bluecore.a(csr_app_main.o) (CsrUiLowerInitialise)
../bsp/ports/pclin/output/default/pclin-2.6-x86/lib/libcsr_app_main_bluecore.a(csr_app_main_transport_bluecore.o)
                              output/default/pclin-2.6-x86/obj/csr_tasks.o (CsrAppMainBluecoreTransportGet)
../output/default/pclin-2.6-x86/lib/libcsr_tm_bluecore.a(csr_tm_bluecore_handler.o)
                              output/default/pclin-2.6-x86/obj/csr_tasks.o (CsrTmBlueCoreHandler)
../output/default/pclin-2.6-x86/lib/libcsr_tm_bluecore.a(csr_tm_bluecore_sef.o)
                              ../output/default/pclin-2.6-x86/lib/libcsr_tm_bluecore.a(csr_tm_bluecore_handler.o) (CsrTmBlueCoreTmBlueCoreMsgHandler)
../output/default/pclin-2.6-x86/lib/libcsr_tm_bluecore.a(csr_tm_bluecore_transport.o)
                              ../output/default/pclin-2.6-x86/lib/libcsr_tm_bluecore.a(csr_tm_bluecore_sef.o) (CsrTmBlueCoreTransportStart)
../output/default/pclin-2.6-x86/lib/libcsr_bccmd.a(csr_bccmd_handler.o)
                              output/default/pclin-2.6-x86/obj/csr_tasks.o (CsrBccmdInit)
../output/default/pclin-2.6-x86/lib/libcsr_bccmd.a(csr_bccmd_lib.o)
                              output/default/pclin-2.6-x86/obj/bootstrap/csr_bootstrap_generic.o (CsrTmBlueCoreBuildBccmdSetMsg)
../output/default/pclin-2.6-x86/lib/libcsr_bccmd.a(csr_bccmd_sef.o)
                              ../output/default/pclin-2.6-x86/lib/libcsr_bccmd.a(csr_bccmd_handler.o) (CsrBccmdRemoveBootType)
../output/default/pclin-2.6-x86/lib/libcsr_bccmd.a(csr_bccmd_private_lib.o)
                              ../output/default/pclin-2.6-x86/lib/libcsr_tm_bluecore.a(csr_tm_bluecore_sef.o) (CsrBccmdBootstrapReq_struct)
../output/default/pclin-2.6-x86/lib/libcsr_bccmd.a(csr_bccmd_util.o)
                              ../output/default/pclin-2.6-x86/lib/libcsr_bccmd.a(csr_bccmd_lib.o) (CsrBccmdBccmdCommandBuild)
../output/default/pclin-2.6-x86/lib/libcsr_bccmd.a(csr_bccmd_free_up.o)
                              ../output/default/pclin-2.6-x86/lib/libcsr_tm_bluecore.a(csr_tm_bluecore_handler.o) (CsrBccmdFreeUpstreamMessageContents)
../output/default/pclin-2.6-x86/lib/libcsr_fastpipe.a(csr_fp_handler.o)
                              output/default/pclin-2.6-x86/obj/csr_tasks.o (CsrFpHandler)
../output/default/pclin-2.6-x86/lib/libcsr_fastpipe.a(csr_fp_sef.o)
                              ../output/default/pclin-2.6-x86/lib/libcsr_fastpipe.a(csr_fp_handler.o) (CsrFpContainerDestroyAll)
../output/default/pclin-2.6-x86/lib/libcsr_fastpipe.a(csr_fp_free_down.o)
                              ../output/default/pclin-2.6-x86/lib/libcsr_fastpipe.a(csr_fp_handler.o) (CsrFpFreeDownstreamMessageContents)
../output/default/pclin-2.6-x86/lib/libcsr_hq.a(csr_hq_handler.o)
                              output/default/pclin-2.6-x86/obj/csr_tasks.o (CsrHqInit)
../output/default/pclin-2.6-x86/lib/libcsr_hq.a(csr_hq_subscriber.o)
                              ../output/default/pclin-2.6-x86/lib/libcsr_hq.a(csr_hq_handler.o) (CsrHqRemoveSubscriber)
../output/default/pclin-2.6-x86/lib/libcsr_hq.a(csr_hq_sef.o)
                              ../output/default/pclin-2.6-x86/lib/libcsr_hq.a(csr_hq_handler.o) (CsrHqRegisterReqHandler)
../output/default/pclin-2.6-x86/lib/libcsr_hq.a(csr_hq_free_down.o)
                              ../output/default/pclin-2.6-x86/lib/libcsr_hq.a(csr_hq_handler.o) (CsrHqFreeDownstreamMessageContents)
../output/default/pclin-2.6-x86/lib/libcsr_vm.a(csr_vm_handler.o)
                              output/default/pclin-2.6-x86/obj/csr_tasks.o (CsrVmInit)
../output/default/pclin-2.6-x86/lib/libcsr_vm.a(csr_vm_free_down.o)
                              ../output/default/pclin-2.6-x86/lib/libcsr_vm.a(csr_vm_handler.o) (CsrVmFreeDownstreamMessageContents)
../output/default/pclin-2.6-x86/lib/libcsr_am.a(csr_am_handler.o)
                              output/default/pclin-2.6-x86/obj/csr_tasks.o (CsrAmInit)
../output/default/pclin-2.6-x86/lib/libcsr_am.a(csr_am_util.o)
                              ../output/default/pclin-2.6-x86/lib/libcsr_am.a(csr_am_handler.o) (CsrAmIssueAmGetChipVer)
../output/default/pclin-2.6-x86/lib/libcsr_am.a(csr_am_sef.o)
                              ../output/default/pclin-2.6-x86/lib/libcsr_am.a(csr_am_util.o) (CsrAmAudioPathConnectCfmSend)
../output/default/pclin-2.6-x86/lib/libcsr_am.a(csr_am_free_down.o)
                              ../output/default/pclin-2.6-x86/lib/libcsr_am.a(csr_am_handler.o) (CsrAmFreeDownstreamMessageContents)
../output/default/pclin-2.6-x86/lib/libcsr_hci.a(csr_hci_handler.o)
                              output/default/pclin-2.6-x86/obj/csr_tasks.o (CsrHciInit)
../output/default/pclin-2.6-x86/lib/libcsr_hci.a(csr_hci_lib.o)
                              ../output/default/pclin-2.6-x86/lib/libcsr_fastpipe.a(csr_fp_sef.o) (CsrHciRegisterAclHandlerReq_struct)
../output/default/pclin-2.6-x86/lib/libcsr_hci.a(csr_hci_sef.o)
                              ../output/default/pclin-2.6-x86/lib/libcsr_tm_bluecore.a(csr_tm_bluecore_sef.o) (CsrHciTransportCreate)
../output/default/pclin-2.6-x86/lib/libcsr_hci.a(csr_hci_util.o)
                              ../output/default/pclin-2.6-x86/lib/libcsr_hci.a(csr_hci_sef.o) (CsrHciRegisterHandle)
../output/default/pclin-2.6-x86/lib/libcsr_hci.a(csr_hci_sco.o)
                              ../output/default/pclin-2.6-x86/lib/libcsr_hci.a(csr_hci_handler.o) (CsrHciInitScoHandle)
../output/default/pclin-2.6-x86/lib/libcsr_hci.a(csr_hci_free_down.o)
                              ../output/default/pclin-2.6-x86/lib/libcsr_hci.a(csr_hci_handler.o) (CsrHciFreeDownstreamMessageContents)
../output/default/pclin-2.6-x86/lib/libcsr_hci.a(csr_hci_free_up.o)
                              ../output/default/pclin-2.6-x86/lib/libcsr_bccmd.a(csr_bccmd_handler.o) (CsrHciFreeUpstreamMessageContents)
../output/default/pclin-2.6-x86/lib/libcsr_hci.a(csr_hci_private_free_up.o)
                              ../output/default/pclin-2.6-x86/lib/libcsr_tm_bluecore.a(csr_tm_bluecore_handler.o) (CsrHciPrivateFreeUpstreamMessageContents)
../output/default/pclin-2.6-x86/lib/libcsr_bluecore_manager.a(csr_bluecore_manager_handler.o)
                              output/default/pclin-2.6-x86/obj/csr_tasks.o (CsrBluecoreManagerInit)
../output/default/pclin-2.6-x86/lib/libcsr_bluecore_manager.a(csr_bluecore_manager_sef.o)
                              ../output/default/pclin-2.6-x86/lib/libcsr_bluecore_manager.a(csr_bluecore_manager_handler.o) (CsrBluecoreManagerTmBluecoreDeactivateTransportCfmHandler)
../output/default/pclin-2.6-x86/lib/libcsr_ethernet_manager.a(csr_ethernet_manager.o)
                              output/default/pclin-2.6-x86/obj/csr_tasks.o (CsrEthernetManagerInit)
../output/default/pclin-2.6-x86/lib/libcsr_tcp_transceiver.a(csr_tcp_transceiver_handler.o)
                              output/default/pclin-2.6-x86/obj/csr_tasks.o (CsrTcpTransceiverInit)
../output/default/pclin-2.6-x86/lib/libcsr_tcp_transceiver.a(csr_tcp_transceiver_sef.o)
                              ../output/default/pclin-2.6-x86/lib/libcsr_tcp_transceiver.a(csr_tcp_transceiver_handler.o) (CsrTcpTransceiverIpSocketTcpNewCfmHandler)
../bsp/ports/pclin/output/default/pclin-2.6-x86/lib/libcsr_ip.a(csr_ip_handler.o)
                              output/default/pclin-2.6-x86/obj/csr_tasks.o (CsrIpInit)
../bsp/ports/pclin/output/default/pclin-2.6-x86/lib/libcsr_ip.a(csr_ip_ifconfig_sef.o)
                              ../bsp/ports/pclin/output/default/pclin-2.6-x86/lib/libcsr_ip.a(csr_ip_handler.o) (CsrIpIfconfigRequestDefer)
../bsp/ports/pclin/output/default/pclin-2.6-x86/lib/libcsr_ip.a(csr_ip_netlink_parser.o)
                              ../bsp/ports/pclin/output/default/pclin-2.6-x86/lib/libcsr_ip.a(csr_ip_ifconfig_sef.o) (csrIfAddrMsgIndexGet)
../bsp/ports/pclin/output/default/pclin-2.6-x86/lib/libcsr_ip.a(csr_ip_socket_sef.o)
                              ../bsp/ports/pclin/output/default/pclin-2.6-x86/lib/libcsr_ip.a(csr_ip_handler.o) (csrIpSocketInstFree)
../bsp/ports/pclin/output/default/pclin-2.6-x86/lib/libcsr_ip.a(csr_ip_thread.o)
                              ../bsp/ports/pclin/output/default/pclin-2.6-x86/lib/libcsr_ip.a(csr_ip_handler.o) (CsrIpThreadInit)
../bsp/ports/pclin/output/default/pclin-2.6-x86/lib/libcsr_ip.a(csr_ip_util.o)
                              ../bsp/ports/pclin/output/default/pclin-2.6-x86/lib/libcsr_ip.a(csr_ip_ifconfig_sef.o) (CsrIpLock)
../bsp/ports/pclin/output/default/pclin-2.6-x86/lib/libcsr_ip.a(csr_ip_ether_sef.o)
                              ../bsp/ports/pclin/output/default/pclin-2.6-x86/lib/libcsr_ip.a(csr_ip_handler.o) (csrIpEtherFree)
../output/default/pclin-2.6-x86/lib/libcsr_ip_ether_lib.a(csr_ip_ether_free_down.o)
                              ../bsp/ports/pclin/output/default/pclin-2.6-x86/lib/libcsr_ip.a(csr_ip_handler.o) (CsrIpEtherFreeDownstreamMessageContents)
../output/default/pclin-2.6-x86/lib/libcsr_ip_ether_lib.a(csr_ip_ether_private_lib.o)
                              ../bsp/ports/pclin/output/default/pclin-2.6-x86/lib/libcsr_ip.a(csr_ip_ether_sef.o) (CsrIpEtherIfAddCfm_struct)
../output/default/pclin-2.6-x86/lib/libcsr_ip_socket_lib.a(csr_ip_socket_free_up.o)
                              ../output/default/pclin-2.6-x86/lib/libcsr_tcp_transceiver.a(csr_tcp_transceiver_handler.o) (CsrIpSocketFreeUpstreamMessageContents)
../output/default/pclin-2.6-x86/lib/libcsr_ip_socket_lib.a(csr_ip_socket_free_down.o)
                              ../bsp/ports/pclin/output/default/pclin-2.6-x86/lib/libcsr_ip.a(csr_ip_handler.o) (CsrIpSocketFreeDownstreamMessageContents)
../output/default/pclin-2.6-x86/lib/libcsr_ip_socket_lib.a(csr_ip_socket_lib.o)
                              ../output/default/pclin-2.6-x86/lib/libcsr_tcp_transceiver.a(csr_tcp_transceiver_sef.o) (CsrIpSocketTcpNewReq_struct)
../output/default/pclin-2.6-x86/lib/libcsr_ip_socket_lib.a(csr_ip_socket_private_lib.o)
                              ../bsp/ports/pclin/output/default/pclin-2.6-x86/lib/libcsr_ip.a(csr_ip_socket_sef.o) (CsrIpSocketDnsResolveNameCfm_struct)
../output/default/pclin-2.6-x86/lib/libcsr_ip_ifconfig_lib.a(csr_ip_ifconfig_free_up.o)
                              ../bsp/ports/pclin/output/default/pclin-2.6-x86/lib/libcsr_ip.a(csr_ip_handler.o) (CsrIpIfconfigFreeUpstreamMessageContents)
../output/default/pclin-2.6-x86/lib/libcsr_ip_ifconfig_lib.a(csr_ip_ifconfig_free_down.o)
                              ../bsp/ports/pclin/output/default/pclin-2.6-x86/lib/libcsr_ip.a(csr_ip_handler.o) (CsrIpIfconfigFreeDownstreamMessageContents)
../output/default/pclin-2.6-x86/lib/libcsr_ip_ifconfig_lib.a(csr_ip_ifconfig_lib.o)
                              ../output/default/pclin-2.6-x86/lib/libcsr_ethernet_manager.a(csr_ethernet_manager.o) (CsrIpIfconfigSubscribeReq_struct)
../output/default/pclin-2.6-x86/lib/libcsr_ip_ifconfig_lib.a(csr_ip_ifconfig_private_lib.o)
                              ../bsp/ports/pclin/output/default/pclin-2.6-x86/lib/libcsr_ip.a(csr_ip_ifconfig_sef.o) (CsrIpIfconfigSubscribeCfm_struct)
../output/default/pclin-2.6-x86/lib/libcsr_dhcp_server_manager.a(csr_dhcp_server_manager.o)
                              output/default/pclin-2.6-x86/obj/csr_tasks.o (CsrDhcpServerManagerInit)
../output/default/pclin-2.6-x86/lib/libcsr_dhcp_server.a(csr_dhcp_server_handler.o)
                              output/default/pclin-2.6-x86/obj/csr_tasks.o (CsrDhcpServerInit)
../output/default/pclin-2.6-x86/lib/libcsr_dhcp_server.a(csr_dhcp_server_sef.o)
                              ../output/default/pclin-2.6-x86/lib/libcsr_dhcp_server.a(csr_dhcp_server_handler.o) (CsrDhcpServerCreateHandler)
../output/default/pclin-2.6-x86/lib/libcsr_dhcp_server.a(csr_dhcp_server_util.o)
                              ../output/default/pclin-2.6-x86/lib/libcsr_dhcp_server.a(csr_dhcp_server_handler.o) (CsrDhcpServerTimerExpired)
../output/default/pclin-2.6-x86/lib/libcsr_dhcp_server_lib.a(csr_dhcp_server_free_down.o)
                              ../output/default/pclin-2.6-x86/lib/libcsr_dhcp_server.a(csr_dhcp_server_handler.o) (CsrDhcpServerFreeDownstreamMessageContents)
../output/default/pclin-2.6-x86/lib/libcsr_dhcp_server_lib.a(csr_dhcp_server_lib.o)
                              ../output/default/pclin-2.6-x86/lib/libcsr_dhcp_server_manager.a(csr_dhcp_server_manager.o) (CsrDhcpServerCreateReq_struct)
../output/default/pclin-2.6-x86/lib/libcsr_dhcp_server_lib.a(csr_dhcp_server_lib_priv.o)
                              ../output/default/pclin-2.6-x86/lib/libcsr_dhcp_server.a(csr_dhcp_server_sef.o) (CsrDhcpServerCreateCfmSend)
../output/default/pclin-2.6-x86/lib/libcsr_tftp.a(csr_tftp_handler.o)
                              output/default/pclin-2.6-x86/obj/csr_tasks.o (CsrTftpInit)
../output/default/pclin-2.6-x86/lib/libcsr_tftp.a(csr_tftp_sef.o)
                              ../output/default/pclin-2.6-x86/lib/libcsr_tftp.a(csr_tftp_handler.o) (CsrTftpConnectionClientInit)
../output/default/pclin-2.6-x86/lib/libcsr_tftp_lib.a(csr_tftp_free_down.o)
                              ../output/default/pclin-2.6-x86/lib/libcsr_tftp.a(csr_tftp_handler.o) (CsrTftpFreeDownstreamMessageContents)
../output/default/pclin-2.6-x86/lib/libcsr_tftp_lib.a(csr_tftp_lib_priv.o)
                              ../output/default/pclin-2.6-x86/lib/libcsr_tftp.a(csr_tftp_sef.o) (CsrTftpActivateCfmSend)
../output/default/pclin-2.6-x86/lib/libcsr_tftp_file.a(csr_tftp_file_handler.o)
                              output/default/pclin-2.6-x86/obj/csr_tasks.o (CsrTftpFileInit)
../output/default/pclin-2.6-x86/lib/libcsr_tftp_file.a(csr_tftp_file_sef.o)
                              ../output/default/pclin-2.6-x86/lib/libcsr_tftp_file.a(csr_tftp_file_handler.o) (CsrTftpFileActivateHandler)
../output/default/pclin-2.6-x86/lib/libcsr_fsal.a(csr_fsal_handler.o)
                              output/default/pclin-2.6-x86/obj/csr_tasks.o (CsrFsalInit)
../output/default/pclin-2.6-x86/lib/libcsr_fsal.a(csr_fsal_sef.o)
                              ../output/default/pclin-2.6-x86/lib/libcsr_fsal.a(csr_fsal_handler.o) (CsrFsalSessionCreateReqHandler)
../output/default/pclin-2.6-x86/lib/libcsr_fsal.a(csr_fsal_sef_utils.o)
                              ../output/default/pclin-2.6-x86/lib/libcsr_fsal.a(csr_fsal_sef.o) (CsrFsalLookupOpenFlags)
../output/default/pclin-2.6-x86/lib/libcsr_fsal.a(csr_fsal_utils.o)
                              ../output/default/pclin-2.6-x86/lib/libcsr_fsal.a(csr_fsal_sef.o) (CsrFsalFileHandleInit)
../output/default/pclin-2.6-x86/lib/libcsr_fsal_lib.a(csr_fsal_free_up.o)
                              ../output/default/pclin-2.6-x86/lib/libcsr_tftp_file.a(csr_tftp_file_handler.o) (CsrFsalFreeUpstreamMessageContents)
../output/default/pclin-2.6-x86/lib/libcsr_fsal_lib.a(csr_fsal_free_down.o)
                              ../output/default/pclin-2.6-x86/lib/libcsr_fsal.a(csr_fsal_handler.o) (CsrFsalFreeDownstreamMessageContents)
../output/default/pclin-2.6-x86/lib/libcsr_fsal_lib.a(csr_fsal_lib.o)
                              ../output/default/pclin-2.6-x86/lib/libcsr_tftp_file.a(csr_tftp_file_handler.o) (CsrFsalSessionCreateReq_struct)
../output/default/pclin-2.6-x86/lib/libcsr_fsal_lib.a(csr_fsal_lib_priv.o)
                              ../output/default/pclin-2.6-x86/lib/libcsr_fsal.a(csr_fsal_sef.o) (CsrFsalSessionCreateCfm_struct)
../output/default/pclin-2.6-x86/lib/libcsr_list.a(csr_list.o)
                              ../output/default/pclin-2.6-x86/lib/libcsr_tm_bluecore.a(csr_tm_bluecore_sef.o) (CsrCmnListInit)
../output/default/pclin-2.6-x86/lib/libcsr_message_queue.a(csr_message_queue.o)
                              ../output/default/pclin-2.6-x86/lib/libcsr_app.a(csr_app_handler.o) (CsrMessageQueuePush)
../output/default/pclin-2.6-x86/lib/libcsr_formatted_io.a(csr_formatted_io.o)
                              ../output/default/pclin-2.6-x86/lib/libcsr_ethernet_manager.a(csr_ethernet_manager.o) (CsrSnprintf)
../output/default/pclin-2.6-x86/lib/libcsr_unicode.a(csr_utf16.o)
                              ../output/default/pclin-2.6-x86/lib/libcsr_tcp_transceiver.a(csr_tcp_transceiver_sef.o) (CsrUint32ToUtf16String)
../output/default/pclin-2.6-x86/lib/libcsr_mblk.a(csr_mblk.o)
                              ../output/default/pclin-2.6-x86/lib/libcsr_bccmd.a(csr_bccmd_sef.o) (CsrMblkDestroy)
../output/default/pclin-2.6-x86/lib/libcsr_mblk.a(csr_mblk_duplicate.o)
                              ../output/default/pclin-2.6-x86/lib/libcsr_mblk.a(csr_mblk.o) (CsrMblkDuplicateCreate)
../output/default/pclin-2.6-x86/lib/libcsr_mblk.a(csr_mblk_pmalloc.o)
                              ../output/default/pclin-2.6-x86/lib/libcsr_bccmd.a(csr_bccmd_sef.o) (CsrMblkDataCreate)
../output/default/pclin-2.6-x86/lib/libcsr_mblk.a(csr_mblk_read_head.o)
                              ../output/default/pclin-2.6-x86/lib/libcsr_hci.a(csr_hci_sef.o) (CsrMblkReadHead)
../output/default/pclin-2.6-x86/lib/libcsr_bcsp.a(csr_abcsp_transport.o)
                              output/default/pclin-2.6-x86/obj/csr_tasks.o (CsrTmBlueCoreBcspInit)
../output/default/pclin-2.6-x86/lib/libcsr_bcsp.a(csr_abcsp_init_c.o)
                              ../output/default/pclin-2.6-x86/lib/libcsr_bcsp.a(csr_abcsp_transport.o) (CsrAbcspRegisterUartHandle)
../output/default/pclin-2.6-x86/lib/libcsr_bcsp.a(csr_abcsp_events.o)
                              ../output/default/pclin-2.6-x86/lib/libcsr_bcsp.a(csr_abcsp_init_c.o) (CsrAbcspEvent)
../output/default/pclin-2.6-x86/lib/libcsr_bcsp.a(csr_abcsp_rd_hl.o)
                              ../output/default/pclin-2.6-x86/lib/libcsr_bcsp.a(csr_abcsp_transport.o) (CsrAbcspQStart)
../output/default/pclin-2.6-x86/lib/libcsr_bcsp.a(csr_abcsp_le.o)
                              ../output/default/pclin-2.6-x86/lib/libcsr_bcsp.a(csr_abcsp_init_c.o) (CsrAbcspBcspLeInit)
../output/default/pclin-2.6-x86/lib/libcsr_bcsp.a(csr_abcsp_rx.o)
                              ../output/default/pclin-2.6-x86/lib/libcsr_bcsp.a(csr_abcsp_init_c.o) (CsrAbcspUartInit)
../output/default/pclin-2.6-x86/lib/libcsr_bcsp.a(csr_abcsp_txmsg.o)
                              ../output/default/pclin-2.6-x86/lib/libcsr_bcsp.a(csr_abcsp_transport.o) (CsrAbcspInstanceData)
../output/default/pclin-2.6-x86/lib/libcsr_bcsp.a(csr_abcsp_tx_rx_msg_intf.o)
                              ../output/default/pclin-2.6-x86/lib/libcsr_bcsp.a(csr_abcsp_transport.o) (CsrAbcspRxMsgDestroy)
../output/default/pclin-2.6-x86/lib/libcsr_bcsp.a(csr_abcsp_txslip.o)
                              ../output/default/pclin-2.6-x86/lib/libcsr_bcsp.a(csr_abcsp_init_c.o) (CsrAbcspTxSlipInit)
../output/default/pclin-2.6-x86/lib/libcsr_bcsp.a(csr_abcsp_timers.o)
                              ../output/default/pclin-2.6-x86/lib/libcsr_bcsp.a(csr_abcsp_txmsg.o) (CsrAbcspStartBcspTimer)
../output/default/pclin-2.6-x86/lib/libcsr_bcsp.a(csr_abcsp_tx_handle.o)
                              ../output/default/pclin-2.6-x86/lib/libcsr_bcsp.a(csr_abcsp_txslip.o) (CsrAbcspUartTxBufGet)
../output/default/pclin-2.6-x86/lib/libcsr_bcsp.a(csr_abcsp_crc.o)
                              ../output/default/pclin-2.6-x86/lib/libcsr_bcsp.a(csr_abcsp_txmsg.o) (CsrAbcspCrcInit)
../output/default/pclin-2.6-x86/lib/libcsr_h4ds.a(csr_h4ds_transport.o)
                              output/default/pclin-2.6-x86/obj/csr_tasks.o (CsrTmBlueCoreH4dsInit)
../output/default/pclin-2.6-x86/lib/libcsr_h4ds.a(csr_h4ds_initialize.o)
                              ../output/default/pclin-2.6-x86/lib/libcsr_h4ds.a(csr_h4ds_transport.o) (CsrH4Inst)
../output/default/pclin-2.6-x86/lib/libcsr_h4ds.a(csr_h4ds_pump_msg.o)
                              ../output/default/pclin-2.6-x86/lib/libcsr_h4ds.a(csr_h4ds_initialize.o) (CsrH4DSMsgPump)
../output/default/pclin-2.6-x86/lib/libcsr_h4ds.a(csr_h4ds_init.o)
                              ../output/default/pclin-2.6-x86/lib/libcsr_h4ds.a(csr_h4ds_initialize.o) (CsrH4DSInit)
../output/default/pclin-2.6-x86/lib/libcsr_h4ds.a(csr_h4ds_le.o)
                              ../output/default/pclin-2.6-x86/lib/libcsr_h4ds.a(csr_h4ds_init.o) (CsrH4DSLeInit)
../output/default/pclin-2.6-x86/lib/libcsr_h4ds.a(csr_h4ds_tx.o)
                              ../output/default/pclin-2.6-x86/lib/libcsr_h4ds.a(csr_h4ds_init.o) (CsrH4DSTxInit)
../output/default/pclin-2.6-x86/lib/libcsr_h4ds.a(csr_h4ds_ds.o)
                              ../output/default/pclin-2.6-x86/lib/libcsr_h4ds.a(csr_h4ds_init.o) (CsrH4DSFsmInit)
../output/default/pclin-2.6-x86/lib/libcsr_h4ds.a(csr_h4ds_rx.o)
                              ../output/default/pclin-2.6-x86/lib/libcsr_h4ds.a(csr_h4ds_init.o) (CsrH4DSRxInit)
../output/default/pclin-2.6-x86/lib/libcsr_h4ds.a(csr_h4ds_pump.o)
                              ../output/default/pclin-2.6-x86/lib/libcsr_h4ds.a(csr_h4ds_init.o) (CsrH4DSPumpInit)
../output/default/pclin-2.6-x86/lib/libcsr_h4ds.a(csr_h4_events.o)
                              ../output/default/pclin-2.6-x86/lib/libcsr_h4ds.a(csr_h4ds_initialize.o) (CsrH4Event)
../output/default/pclin-2.6-x86/lib/libcsr_h4ds.a(csr_h4_int_handle.o)
                              ../output/default/pclin-2.6-x86/lib/libcsr_h4ds.a(csr_h4ds_pump_msg.o) (CsrH4PumpTxMsgsReq)
../output/default/pclin-2.6-x86/lib/libcsr_h4ds.a(csr_h4_tx.o)
                              ../output/default/pclin-2.6-x86/lib/libcsr_h4ds.a(csr_h4ds_transport.o) (CsrH4MsgSend)
../output/default/pclin-2.6-x86/lib/libcsr_h4ds.a(csr_h4_rx.o)
                              ../output/default/pclin-2.6-x86/lib/libcsr_h4ds.a(csr_h4ds_rx.o) (CsrH4RxMsgPut)
../output/default/pclin-2.6-x86/lib/libcsr_h4ds.a(csr_h4ds_event.o)
                              ../output/default/pclin-2.6-x86/lib/libcsr_h4ds.a(csr_h4ds_init.o) (CsrH4DSEvent)
../output/default/pclin-2.6-x86/lib/libcsr_h4ds.a(csr_h4ds_timers.o)
                              ../output/default/pclin-2.6-x86/lib/libcsr_h4ds.a(csr_h4ds_le.o) (CsrH4DSCancelTsyncTimer)
../output/default/pclin-2.6-x86/lib/libcsr_h4ds.a(csr_h4ds_low_level_transport.o)
                              ../output/default/pclin-2.6-x86/lib/libcsr_h4ds.a(csr_h4ds_ds.o) (CsrH4DSAlertArmTxBufferEmpty)
../output/default/pclin-2.6-x86/lib/libcsr_h4ds.a(csr_h4ds_tx_handle.o)
                              ../output/default/pclin-2.6-x86/lib/libcsr_h4ds.a(csr_h4ds_tx.o) (CsrH4DSUartBytesSend)
../output/default/pclin-2.6-x86/lib/libcsr_h4ds.a(csr_h4ds_msgs.o)
                              ../output/default/pclin-2.6-x86/lib/libcsr_h4ds.a(csr_h4ds_tx.o) (CsrH4DSLockMsgfrag)
../output/default/pclin-2.6-x86/lib/libcsr_h4ds.a(csr_h4ds_scanner.o)
                              ../output/default/pclin-2.6-x86/lib/libcsr_h4ds.a(csr_h4ds_rx.o) (CsrH4DSRxInitMatchMsg)
../output/default/pclin-2.6-x86/lib/libcsr_queue_lib.a(csr_queue_lib.o)
                              ../output/default/pclin-2.6-x86/lib/libcsr_bcsp.a(csr_abcsp_rd_hl.o) (CsrQueueMsgTake)
../bsp/ports/pclin/output/default/pclin-2.6-x86/lib/libcsr_util.a(csr_util.o)
                              ../bsp/ports/pclin/output/default/pclin-2.6-x86/lib/libcsr_ip.a(csr_ip_ifconfig_sef.o) (CsrStrCpy)
../bsp/ports/pclin/output/default/pclin-2.6-x86/lib/libcsr_pmem.a(csr_pmem.o)
                              ../bsp/ports/pclin/output/default/pclin-2.6-x86/lib/libcsr_app_main_bluecore.a(csr_app_main.o) (CsrPmemInit)
../bsp/ports/pclin/output/default/pclin-2.6-x86/lib/libcsr_time.a(csr_time.o)
                              ../output/default/pclin-2.6-x86/lib/libcsr_sched.a(csr_sched.o) (CsrTimeGet)
../bsp/ports/pclin/output/default/pclin-2.6-x86/lib/libcsr_panic.a(csr_panic.o)
                              ../bsp/ports/pclin/output/default/pclin-2.6-x86/lib/libcsr_app_main_bluecore.a(csr_app_main.o) (CsrPanicInit)
../bsp/ports/pclin/output/default/pclin-2.6-x86/lib/libcsr_ser_com.a(csr_serial_com.o)
                              ../output/default/pclin-2.6-x86/lib/libcsr_bcsp.a(csr_abcsp_transport.o) (CsrUartDrvStart)
../bsp/ports/pclin/output/default/pclin-2.6-x86/lib/libcsr_usb_com.a(csr_usb_com.o)
                              ../bsp/ports/pclin/output/default/pclin-2.6-x86/lib/libcsr_app_main_bluecore.a(csr_app_main_transport_bluecore.o) (CsrUsbDrvConfigure)
../bsp/ports/pclin/output/default/pclin-2.6-x86/lib/libcsr_framework_ext.a(csr_framework_ext.o)
                              ../output/default/pclin-2.6-x86/lib/libcsr_sched.a(csr_sched.o) (CsrEventCreate)
../bsp/ports/pclin/output/default/pclin-2.6-x86/lib/libcsr_fs.a(csr_posix_filesystem.o)
                              output/default/pclin-2.6-x86/obj/bootstrap/csr_bootstrap_generic.o (CsrFileOpen)
../output/default/pclin-2.6-x86/lib/libcsr_usb.a(csr_usb_transport.o)
                              ../bsp/ports/pclin/output/default/pclin-2.6-x86/lib/libcsr_usb_com.a(csr_usb_com.o) (CsrTmBlueCoreUsbDeliverMsg)
../output/default/pclin-2.6-x86/lib/libcsr_ui.a(csr_ui_lib.o)
                              ../output/default/pclin-2.6-x86/lib/libcsr_app.a(csr_app_handler.o) (CsrUiUieCreateReq_struct)
../output/default/pclin-2.6-x86/lib/libcsr_ui.a(csr_ui_free_up.o)
                              ../output/default/pclin-2.6-x86/lib/libcsr_app.a(csr_app_handler.o) (CsrUiFreeUpstreamMessageContents)
../output/default/pclin-2.6-x86/lib/libcsr_app.a(csr_app_lib.o)
                              ../output/default/pclin-2.6-x86/lib/libcsr_bluecore_manager.a(csr_bluecore_manager_sef.o) (CsrAppRegisterReq_struct)
../output/default/pclin-2.6-x86/lib/libcsr_random.a(csr_random.o)
                              ../output/default/pclin-2.6-x86/lib/libcsr_bcsp.a(csr_abcsp_init_c.o) (CsrRandomSeed)
../output/default/pclin-2.6-x86/lib/libcsr_tm_bluecore.a(csr_tm_bluecore_lib.o)
                              ../output/default/pclin-2.6-x86/lib/libcsr_bccmd.a(csr_bccmd_handler.o) (CsrTmBlueCoreActivateTransportReq_struct)
../output/default/pclin-2.6-x86/lib/libcsr_tm_bluecore.a(csr_tm_bluecore_private_lib.o)
                              ../output/default/pclin-2.6-x86/lib/libcsr_bcsp.a(csr_abcsp_events.o) (CsrTmBluecoreResetInd_struct)
../output/default/pclin-2.6-x86/lib/libcsr_tftp_lib.a(csr_tftp_free_up.o)
                              ../output/default/pclin-2.6-x86/lib/libcsr_tftp_file.a(csr_tftp_file_handler.o) (CsrTftpFreeUpstreamMessageContents)
../output/default/pclin-2.6-x86/lib/libcsr_tftp_lib.a(csr_tftp_lib.o)
                              ../output/default/pclin-2.6-x86/lib/libcsr_tftp_file.a(csr_tftp_file_sef.o) (CsrTftpActivateReq_struct)
/usr/lib/i386-linux-gnu/libc_nonshared.a(elf-init.oS)
                              /usr/lib/gcc/i686-linux-gnu/4.6/../../../i386-linux-gnu/crt1.o (__libc_csu_init)
/usr/lib/i386-linux-gnu/libc_nonshared.a(stat.oS)
                              ../bsp/ports/pclin/output/default/pclin-2.6-x86/lib/libcsr_fs.a(csr_posix_filesystem.o) (stat)

Allocating common symbols
Common symbol       size              file

CSR_TM_BLUECORE_IFACEQUEUE
                    0x2               output/default/pclin-2.6-x86/obj/csr_tasks.o
CsrSendingH4Msg     0x1               ../output/default/pclin-2.6-x86/lib/libcsr_h4ds.a(csr_h4ds_tx.o)
CSR_DHCP_SERVER_MANAGER_IFACEQUEUE
                    0x2               output/default/pclin-2.6-x86/obj/csr_tasks.o
CSR_HCI_IFACEQUEUE  0x2               output/default/pclin-2.6-x86/obj/csr_tasks.o
CSR_HQ_IFACEQUEUE   0x2               output/default/pclin-2.6-x86/obj/csr_tasks.o
CSR_ETHERNET_MANAGER_IFACEQUEUE
                    0x2               output/default/pclin-2.6-x86/obj/csr_tasks.o
CSR_BCCMD_IFACEQUEUE
                    0x2               output/default/pclin-2.6-x86/obj/csr_tasks.o
CSR_VM_IFACEQUEUE   0x2               output/default/pclin-2.6-x86/obj/csr_tasks.o
CsrH4Inst           0x80              ../output/default/pclin-2.6-x86/lib/libcsr_h4ds.a(csr_h4ds_initialize.o)
CSR_AM_IFACEQUEUE   0x2               output/default/pclin-2.6-x86/obj/csr_tasks.o
CSR_TCP_TRANSCEIVER_IFACEQUEUE
                    0x2               output/default/pclin-2.6-x86/obj/csr_tasks.o
CsrAbcspInstanceData
                    0x116c            ../output/default/pclin-2.6-x86/lib/libcsr_bcsp.a(csr_abcsp_txmsg.o)
CSR_IP_IFACEQUEUE   0x2               output/default/pclin-2.6-x86/obj/csr_tasks.o
CsrH4DSInst         0x4c              ../output/default/pclin-2.6-x86/lib/libcsr_h4ds.a(csr_h4ds_initialize.o)
CsrAbcspRxMsgStruct
                    0x10              ../output/default/pclin-2.6-x86/lib/libcsr_bcsp.a(csr_abcsp_rx.o)
CSR_DHCP_SERVER_IFACEQUEUE
                    0x2               output/default/pclin-2.6-x86/obj/csr_tasks.o
CSR_FSAL_IFACEQUEUE
                    0x2               output/default/pclin-2.6-x86/obj/csr_tasks.o
CSR_TFTP_FILE_IFACEQUEUE
                    0x2               output/default/pclin-2.6-x86/obj/csr_tasks.o
CSR_APP_IFACEQUEUE  0x2               output/default/pclin-2.6-x86/obj/csr_tasks.o
CSR_UI_IFACEQUEUE   0x2               output/default/pclin-2.6-x86/obj/csr_tasks.o
CSR_BLUECORE_MANAGER_IFACEQUEUE
                    0x2               output/default/pclin-2.6-x86/obj/csr_tasks.o
CSR_FP_IFACEQUEUE   0x2               output/default/pclin-2.6-x86/obj/csr_tasks.o
CSR_TFTP_IFACEQUEUE
                    0x2               output/default/pclin-2.6-x86/obj/csr_tasks.o

Discarded input sections

 .note.GNU-stack
                0x0000000000000000        0x0 /usr/lib/gcc/i686-linux-gnu/4.6/../../../i386-linux-gnu/crt1.o
 .gnu_debuglink
                0x0000000000000000        0xc /usr/lib/gcc/i686-linux-gnu/4.6/../../../i386-linux-gnu/crt1.o
 .note.GNU-stack
                0x0000000000000000        0x0 /usr/lib/gcc/i686-linux-gnu/4.6/../../../i386-linux-gnu/crti.o
 .gnu_debuglink
                0x0000000000000000        0xc /usr/lib/gcc/i686-linux-gnu/4.6/../../../i386-linux-gnu/crti.o
 .note.GNU-stack
                0x0000000000000000        0x0 /usr/lib/gcc/i686-linux-gnu/4.6/crtbegin.o
 .note.GNU-stack
                0x0000000000000000        0x0 output/default/pclin-2.6-x86/obj/csr_tasks.o
 .note.GNU-stack
                0x0000000000000000        0x0 output/default/pclin-2.6-x86/obj/bootstrap/csr_bootstrap_generic.o
 .note.GNU-stack
                0x0000000000000000        0x0 output/default/pclin-2.6-x86/obj/bootstrap/csr_bootstrap_specific_string_based.o
 .note.GNU-stack
                0x0000000000000000        0x0 output/default/pclin-2.6-x86/obj/bootstrap/psr/pb-101r2_7558_uart.o
 .note.GNU-stack
                0x0000000000000000        0x0 output/default/pclin-2.6-x86/obj/bootstrap/psr/pb-14r2_3164.o
 .note.GNU-stack
                0x0000000000000000        0x0 output/default/pclin-2.6-x86/obj/bootstrap/psr/pb-22r14_4363.o
 .note.GNU-stack
                0x0000000000000000        0x0 output/default/pclin-2.6-x86/obj/bootstrap/psr/pb-26r17_4698.o
 .note.GNU-stack
                0x0000000000000000        0x0 output/default/pclin-2.6-x86/obj/bootstrap/psr/pb-27r20_4841.o
 .note.GNU-stack
                0x0000000000000000        0x0 output/default/pclin-2.6-x86/obj/bootstrap/psr/pb-28r2_4839.o
 .note.GNU-stack
                0x0000000000000000        0x0 output/default/pclin-2.6-x86/obj/bootstrap/psr/pb-2r17_1958.o
 .note.GNU-stack
                0x0000000000000000        0x0 output/default/pclin-2.6-x86/obj/bootstrap/psr/pb-49r3_5892.o
 .note.GNU-stack
                0x0000000000000000        0x0 output/default/pclin-2.6-x86/obj/bootstrap/psr/pb-51r22_5985_bga.o
 .note.GNU-stack
                0x0000000000000000        0x0 output/default/pclin-2.6-x86/obj/bootstrap/psr/pb-51r22_5985_csp0p4.o
 .note.GNU-stack
                0x0000000000000000        0x0 output/default/pclin-2.6-x86/obj/bootstrap/psr/pb-51r22_5985_csp0p5.o
 .note.GNU-stack
                0x0000000000000000        0x0 output/default/pclin-2.6-x86/obj/bootstrap/psr/pb-51r26_5985_bga.o
 .note.GNU-stack
                0x0000000000000000        0x0 output/default/pclin-2.6-x86/obj/bootstrap/psr/pb-51r26_5985_csp0p4.o
 .note.GNU-stack
                0x0000000000000000        0x0 output/default/pclin-2.6-x86/obj/bootstrap/psr/pb-51r26_5985_csp0p5.o
 .note.GNU-stack
                0x0000000000000000        0x0 output/default/pclin-2.6-x86/obj/bootstrap/psr/pb-53r7_6247_csp.o
 .note.GNU-stack
                0x0000000000000000        0x0 output/default/pclin-2.6-x86/obj/bootstrap/psr/pb-53r7_6247_qfn.o
 .note.GNU-stack
                0x0000000000000000        0x0 output/default/pclin-2.6-x86/obj/bootstrap/psr/pb-75_6455_csp.o
 .note.GNU-stack
                0x0000000000000000        0x0 output/default/pclin-2.6-x86/obj/bootstrap/psr/pb-84r2_6817_csp.o
 .note.GNU-stack
                0x0000000000000000        0x0 output/default/pclin-2.6-x86/obj/bootstrap/psr/pb-90r1_6817.o
 .note.GNU-stack
                0x0000000000000000        0x0 output/default/pclin-2.6-x86/obj/bootstrap/psr/ps-default.o
 .note.GNU-stack
                0x0000000000000000        0x0 output/default/pclin-2.6-x86/obj/bootstrap/psr/ps-gemini_a06.o
 .note.GNU-stack
                0x0000000000000000        0x0 ../output/default/pclin-2.6-x86/lib/libcsr_sched.a(csr_sched.o)
 .note.GNU-stack
                0x0000000000000000        0x0 ../output/default/pclin-2.6-x86/lib/libcsr_ui.a(csr_ui_ctrl.o)
 .note.GNU-stack
                0x0000000000000000        0x0 ../output/default/pclin-2.6-x86/lib/libcsr_ui.a(csr_ui_displaystack.o)
 .note.GNU-stack
                0x0000000000000000        0x0 ../output/default/pclin-2.6-x86/lib/libcsr_ui.a(csr_ui_emulator_touchdecoder.o)
 .note.GNU-stack
                0x0000000000000000        0x0 ../output/default/pclin-2.6-x86/lib/libcsr_ui.a(csr_ui_keyhandler.o)
 .note.GNU-stack
                0x0000000000000000        0x0 ../output/default/pclin-2.6-x86/lib/libcsr_ui.a(csr_ui_renderer.o)
 .note.GNU-stack
                0x0000000000000000        0x0 ../output/default/pclin-2.6-x86/lib/libcsr_ui.a(csr_ui_renderer_text.o)
 .note.GNU-stack
                0x0000000000000000        0x0 ../output/default/pclin-2.6-x86/lib/libcsr_ui.a(csr_ui_sef.o)
 .note.GNU-stack
                0x0000000000000000        0x0 ../output/default/pclin-2.6-x86/lib/libcsr_ui.a(csr_ui_uiemanager.o)
 .note.GNU-stack
                0x0000000000000000        0x0 ../output/default/pclin-2.6-x86/lib/libcsr_ui.a(csr_ui_util.o)
 .note.GNU-stack
                0x0000000000000000        0x0 ../output/default/pclin-2.6-x86/lib/libcsr_ui.a(csr_ui_free_down.o)
 .note.GNU-stack
                0x0000000000000000        0x0 ../output/default/pclin-2.6-x86/lib/libcsr_ui.a(csr_ui_graphics_driver.o)
 .note.GNU-stack
                0x0000000000000000        0x0 ../output/default/pclin-2.6-x86/lib/libcsr_ui.a(csr_ui_icon.o)
 .note.GNU-stack
                0x0000000000000000        0x0 ../output/default/pclin-2.6-x86/lib/libcsr_ui.a(csr_ui_font_sax_mono_12x22.o)
 .note.GNU-stack
                0x0000000000000000        0x0 ../output/default/pclin-2.6-x86/lib/libcsr_ui.a(csr_ui_font_sax_mono_10x21.o)
 .note.GNU-stack
                0x0000000000000000        0x0 ../output/default/pclin-2.6-x86/lib/libcsr_app.a(csr_app_handler.o)
 .note.GNU-stack
                0x0000000000000000        0x0 ../output/default/pclin-2.6-x86/lib/libcsr_app.a(csr_app_ui_sef.o)
 .note.GNU-stack
                0x0000000000000000        0x0 ../output/default/pclin-2.6-x86/lib/libcsr_app.a(csr_app_util.o)
 .note.GNU-stack
                0x0000000000000000        0x0 ../output/default/pclin-2.6-x86/lib/libcsr_app.a(csr_app_free_down.o)
 .note.GNU-stack
                0x0000000000000000        0x0 ../output/default/pclin-2.6-x86/lib/libcsr_app.a(csr_app_lower_private.o)
 .note.GNU-stack
                0x0000000000000000        0x0 ../bsp/ports/pclin/output/default/pclin-2.6-x86/lib/libcsr_main.a(csr_main.o)
 .note.GNU-stack
                0x0000000000000000        0x0 ../output/default/pclin-2.6-x86/lib/libcsr_arg_search.a(csr_arg_search.o)
 .note.GNU-stack
                0x0000000000000000        0x0 ../bsp/ports/pclin/output/default/pclin-2.6-x86/lib/libcsr_app_main_bluecore.a(csr_app_main.o)
 .note.GNU-stack
                0x0000000000000000        0x0 ../bsp/ports/pclin/output/default/pclin-2.6-x86/lib/libcsr_app_main_bluecore.a(csr_key_input.o)
 .note.GNU-stack
                0x0000000000000000        0x0 ../bsp/ports/pclin/output/default/pclin-2.6-x86/lib/libcsr_app_main_bluecore.a(csr_ui_lower.o)
 .note.GNU-stack
                0x0000000000000000        0x0 ../bsp/ports/pclin/output/default/pclin-2.6-x86/lib/libcsr_app_main_bluecore.a(csr_app_main_transport_bluecore.o)
 .note.GNU-stack
                0x0000000000000000        0x0 ../output/default/pclin-2.6-x86/lib/libcsr_tm_bluecore.a(csr_tm_bluecore_handler.o)
 .note.GNU-stack
                0x0000000000000000        0x0 ../output/default/pclin-2.6-x86/lib/libcsr_tm_bluecore.a(csr_tm_bluecore_sef.o)
 .note.GNU-stack
                0x0000000000000000        0x0 ../output/default/pclin-2.6-x86/lib/libcsr_tm_bluecore.a(csr_tm_bluecore_transport.o)
 .note.GNU-stack
                0x0000000000000000        0x0 ../output/default/pclin-2.6-x86/lib/libcsr_bccmd.a(csr_bccmd_handler.o)
 .note.GNU-stack
                0x0000000000000000        0x0 ../output/default/pclin-2.6-x86/lib/libcsr_bccmd.a(csr_bccmd_lib.o)
 .note.GNU-stack
                0x0000000000000000        0x0 ../output/default/pclin-2.6-x86/lib/libcsr_bccmd.a(csr_bccmd_sef.o)
 .note.GNU-stack
                0x0000000000000000        0x0 ../output/default/pclin-2.6-x86/lib/libcsr_bccmd.a(csr_bccmd_private_lib.o)
 .note.GNU-stack
                0x0000000000000000        0x0 ../output/default/pclin-2.6-x86/lib/libcsr_bccmd.a(csr_bccmd_util.o)
 .note.GNU-stack
                0x0000000000000000        0x0 ../output/default/pclin-2.6-x86/lib/libcsr_bccmd.a(csr_bccmd_free_up.o)
 .note.GNU-stack
                0x0000000000000000        0x0 ../output/default/pclin-2.6-x86/lib/libcsr_fastpipe.a(csr_fp_handler.o)
 .note.GNU-stack
                0x0000000000000000        0x0 ../output/default/pclin-2.6-x86/lib/libcsr_fastpipe.a(csr_fp_sef.o)
 .note.GNU-stack
                0x0000000000000000        0x0 ../output/default/pclin-2.6-x86/lib/libcsr_fastpipe.a(csr_fp_free_down.o)
 .note.GNU-stack
                0x0000000000000000        0x0 ../output/default/pclin-2.6-x86/lib/libcsr_hq.a(csr_hq_handler.o)
 .note.GNU-stack
                0x0000000000000000        0x0 ../output/default/pclin-2.6-x86/lib/libcsr_hq.a(csr_hq_subscriber.o)
 .note.GNU-stack
                0x0000000000000000        0x0 ../output/default/pclin-2.6-x86/lib/libcsr_hq.a(csr_hq_sef.o)
 .note.GNU-stack
                0x0000000000000000        0x0 ../output/default/pclin-2.6-x86/lib/libcsr_hq.a(csr_hq_free_down.o)
 .note.GNU-stack
                0x0000000000000000        0x0 ../output/default/pclin-2.6-x86/lib/libcsr_vm.a(csr_vm_handler.o)
 .note.GNU-stack
                0x0000000000000000        0x0 ../output/default/pclin-2.6-x86/lib/libcsr_vm.a(csr_vm_free_down.o)
 .note.GNU-stack
                0x0000000000000000        0x0 ../output/default/pclin-2.6-x86/lib/libcsr_am.a(csr_am_handler.o)
 .note.GNU-stack
                0x0000000000000000        0x0 ../output/default/pclin-2.6-x86/lib/libcsr_am.a(csr_am_util.o)
 .note.GNU-stack
                0x0000000000000000        0x0 ../output/default/pclin-2.6-x86/lib/libcsr_am.a(csr_am_sef.o)
 .note.GNU-stack
                0x0000000000000000        0x0 ../output/default/pclin-2.6-x86/lib/libcsr_am.a(csr_am_free_down.o)
 .note.GNU-stack
                0x0000000000000000        0x0 ../output/default/pclin-2.6-x86/lib/libcsr_hci.a(csr_hci_handler.o)
 .note.GNU-stack
                0x0000000000000000        0x0 ../output/default/pclin-2.6-x86/lib/libcsr_hci.a(csr_hci_lib.o)
 .note.GNU-stack
                0x0000000000000000        0x0 ../output/default/pclin-2.6-x86/lib/libcsr_hci.a(csr_hci_sef.o)
 .note.GNU-stack
                0x0000000000000000        0x0 ../output/default/pclin-2.6-x86/lib/libcsr_hci.a(csr_hci_util.o)
 .note.GNU-stack
                0x0000000000000000        0x0 ../output/default/pclin-2.6-x86/lib/libcsr_hci.a(csr_hci_sco.o)
 .note.GNU-stack
                0x0000000000000000        0x0 ../output/default/pclin-2.6-x86/lib/libcsr_hci.a(csr_hci_free_down.o)
 .note.GNU-stack
                0x0000000000000000        0x0 ../output/default/pclin-2.6-x86/lib/libcsr_hci.a(csr_hci_free_up.o)
 .note.GNU-stack
                0x0000000000000000        0x0 ../output/default/pclin-2.6-x86/lib/libcsr_hci.a(csr_hci_private_free_up.o)
 .note.GNU-stack
                0x0000000000000000        0x0 ../output/default/pclin-2.6-x86/lib/libcsr_bluecore_manager.a(csr_bluecore_manager_handler.o)
 .note.GNU-stack
                0x0000000000000000        0x0 ../output/default/pclin-2.6-x86/lib/libcsr_bluecore_manager.a(csr_bluecore_manager_sef.o)
 .note.GNU-stack
                0x0000000000000000        0x0 ../output/default/pclin-2.6-x86/lib/libcsr_ethernet_manager.a(csr_ethernet_manager.o)
 .note.GNU-stack
                0x0000000000000000        0x0 ../output/default/pclin-2.6-x86/lib/libcsr_tcp_transceiver.a(csr_tcp_transceiver_handler.o)
 .note.GNU-stack
                0x0000000000000000        0x0 ../output/default/pclin-2.6-x86/lib/libcsr_tcp_transceiver.a(csr_tcp_transceiver_sef.o)
 .note.GNU-stack
                0x0000000000000000        0x0 ../bsp/ports/pclin/output/default/pclin-2.6-x86/lib/libcsr_ip.a(csr_ip_handler.o)
 .note.GNU-stack
                0x0000000000000000        0x0 ../bsp/ports/pclin/output/default/pclin-2.6-x86/lib/libcsr_ip.a(csr_ip_ifconfig_sef.o)
 .note.GNU-stack
                0x0000000000000000        0x0 ../bsp/ports/pclin/output/default/pclin-2.6-x86/lib/libcsr_ip.a(csr_ip_netlink_parser.o)
 .note.GNU-stack
                0x0000000000000000        0x0 ../bsp/ports/pclin/output/default/pclin-2.6-x86/lib/libcsr_ip.a(csr_ip_socket_sef.o)
 .note.GNU-stack
                0x0000000000000000        0x0 ../bsp/ports/pclin/output/default/pclin-2.6-x86/lib/libcsr_ip.a(csr_ip_thread.o)
 .note.GNU-stack
                0x0000000000000000        0x0 ../bsp/ports/pclin/output/default/pclin-2.6-x86/lib/libcsr_ip.a(csr_ip_util.o)
 .note.GNU-stack
                0x0000000000000000        0x0 ../bsp/ports/pclin/output/default/pclin-2.6-x86/lib/libcsr_ip.a(csr_ip_ether_sef.o)
 .note.GNU-stack
                0x0000000000000000        0x0 ../output/default/pclin-2.6-x86/lib/libcsr_ip_ether_lib.a(csr_ip_ether_free_down.o)
 .note.GNU-stack
                0x0000000000000000        0x0 ../output/default/pclin-2.6-x86/lib/libcsr_ip_ether_lib.a(csr_ip_ether_private_lib.o)
 .note.GNU-stack
                0x0000000000000000        0x0 ../output/default/pclin-2.6-x86/lib/libcsr_ip_socket_lib.a(csr_ip_socket_free_up.o)
 .note.GNU-stack
                0x0000000000000000        0x0 ../output/default/pclin-2.6-x86/lib/libcsr_ip_socket_lib.a(csr_ip_socket_free_down.o)
 .note.GNU-stack
                0x0000000000000000        0x0 ../output/default/pclin-2.6-x86/lib/libcsr_ip_socket_lib.a(csr_ip_socket_lib.o)
 .note.GNU-stack
                0x0000000000000000        0x0 ../output/default/pclin-2.6-x86/lib/libcsr_ip_socket_lib.a(csr_ip_socket_private_lib.o)
 .note.GNU-stack
                0x0000000000000000        0x0 ../output/default/pclin-2.6-x86/lib/libcsr_ip_ifconfig_lib.a(csr_ip_ifconfig_free_up.o)
 .note.GNU-stack
                0x0000000000000000        0x0 ../output/default/pclin-2.6-x86/lib/libcsr_ip_ifconfig_lib.a(csr_ip_ifconfig_free_down.o)
 .note.GNU-stack
                0x0000000000000000        0x0 ../output/default/pclin-2.6-x86/lib/libcsr_ip_ifconfig_lib.a(csr_ip_ifconfig_lib.o)
 .note.GNU-stack
                0x0000000000000000        0x0 ../output/default/pclin-2.6-x86/lib/libcsr_ip_ifconfig_lib.a(csr_ip_ifconfig_private_lib.o)
 .note.GNU-stack
                0x0000000000000000        0x0 ../output/default/pclin-2.6-x86/lib/libcsr_dhcp_server_manager.a(csr_dhcp_server_manager.o)
 .note.GNU-stack
                0x0000000000000000        0x0 ../output/default/pclin-2.6-x86/lib/libcsr_dhcp_server.a(csr_dhcp_server_handler.o)
 .note.GNU-stack
                0x0000000000000000        0x0 ../output/default/pclin-2.6-x86/lib/libcsr_dhcp_server.a(csr_dhcp_server_sef.o)
 .note.GNU-stack
                0x0000000000000000        0x0 ../output/default/pclin-2.6-x86/lib/libcsr_dhcp_server.a(csr_dhcp_server_util.o)
 .note.GNU-stack
                0x0000000000000000        0x0 ../output/default/pclin-2.6-x86/lib/libcsr_dhcp_server_lib.a(csr_dhcp_server_free_down.o)
 .note.GNU-stack
                0x0000000000000000        0x0 ../output/default/pclin-2.6-x86/lib/libcsr_dhcp_server_lib.a(csr_dhcp_server_lib.o)
 .note.GNU-stack
                0x0000000000000000        0x0 ../output/default/pclin-2.6-x86/lib/libcsr_dhcp_server_lib.a(csr_dhcp_server_lib_priv.o)
 .note.GNU-stack
                0x0000000000000000        0x0 ../output/default/pclin-2.6-x86/lib/libcsr_tftp.a(csr_tftp_handler.o)
 .note.GNU-stack
                0x0000000000000000        0x0 ../output/default/pclin-2.6-x86/lib/libcsr_tftp.a(csr_tftp_sef.o)
 .note.GNU-stack
                0x0000000000000000        0x0 ../output/default/pclin-2.6-x86/lib/libcsr_tftp_lib.a(csr_tftp_free_down.o)
 .note.GNU-stack
                0x0000000000000000        0x0 ../output/default/pclin-2.6-x86/lib/libcsr_tftp_lib.a(csr_tftp_lib_priv.o)
 .note.GNU-stack
                0x0000000000000000        0x0 ../output/default/pclin-2.6-x86/lib/libcsr_tftp_file.a(csr_tftp_file_handler.o)
 .note.GNU-stack
                0x0000000000000000        0x0 ../output/default/pclin-2.6-x86/lib/libcsr_tftp_file.a(csr_tftp_file_sef.o)
 .note.GNU-stack
                0x0000000000000000        0x0 ../output/default/pclin-2.6-x86/lib/libcsr_fsal.a(csr_fsal_handler.o)
 .note.GNU-stack
                0x0000000000000000        0x0 ../output/default/pclin-2.6-x86/lib/libcsr_fsal.a(csr_fsal_sef.o)
 .note.GNU-stack
                0x0000000000000000        0x0 ../output/default/pclin-2.6-x86/lib/libcsr_fsal.a(csr_fsal_sef_utils.o)
 .note.GNU-stack
                0x0000000000000000        0x0 ../output/default/pclin-2.6-x86/lib/libcsr_fsal.a(csr_fsal_utils.o)
 .note.GNU-stack
                0x0000000000000000        0x0 ../output/default/pclin-2.6-x86/lib/libcsr_fsal_lib.a(csr_fsal_free_up.o)
 .note.GNU-stack
                0x0000000000000000        0x0 ../output/default/pclin-2.6-x86/lib/libcsr_fsal_lib.a(csr_fsal_free_down.o)
 .note.GNU-stack
                0x0000000000000000        0x0 ../output/default/pclin-2.6-x86/lib/libcsr_fsal_lib.a(csr_fsal_lib.o)
 .note.GNU-stack
                0x0000000000000000        0x0 ../output/default/pclin-2.6-x86/lib/libcsr_fsal_lib.a(csr_fsal_lib_priv.o)
 .note.GNU-stack
                0x0000000000000000        0x0 ../output/default/pclin-2.6-x86/lib/libcsr_list.a(csr_list.o)
 .note.GNU-stack
                0x0000000000000000        0x0 ../output/default/pclin-2.6-x86/lib/libcsr_message_queue.a(csr_message_queue.o)
 .note.GNU-stack
                0x0000000000000000        0x0 ../output/default/pclin-2.6-x86/lib/libcsr_formatted_io.a(csr_formatted_io.o)
 .note.GNU-stack
                0x0000000000000000        0x0 ../output/default/pclin-2.6-x86/lib/libcsr_unicode.a(csr_utf16.o)
 .note.GNU-stack
                0x0000000000000000        0x0 ../output/default/pclin-2.6-x86/lib/libcsr_mblk.a(csr_mblk.o)
 .note.GNU-stack
                0x0000000000000000        0x0 ../output/default/pclin-2.6-x86/lib/libcsr_mblk.a(csr_mblk_duplicate.o)
 .note.GNU-stack
                0x0000000000000000        0x0 ../output/default/pclin-2.6-x86/lib/libcsr_mblk.a(csr_mblk_pmalloc.o)
 .note.GNU-stack
                0x0000000000000000        0x0 ../output/default/pclin-2.6-x86/lib/libcsr_mblk.a(csr_mblk_read_head.o)
 .note.GNU-stack
                0x0000000000000000        0x0 ../output/default/pclin-2.6-x86/lib/libcsr_bcsp.a(csr_abcsp_transport.o)
 .note.GNU-stack
                0x0000000000000000        0x0 ../output/default/pclin-2.6-x86/lib/libcsr_bcsp.a(csr_abcsp_init_c.o)
 .note.GNU-stack
                0x0000000000000000        0x0 ../output/default/pclin-2.6-x86/lib/libcsr_bcsp.a(csr_abcsp_events.o)
 .note.GNU-stack
                0x0000000000000000        0x0 ../output/default/pclin-2.6-x86/lib/libcsr_bcsp.a(csr_abcsp_rd_hl.o)
 .note.GNU-stack
                0x0000000000000000        0x0 ../output/default/pclin-2.6-x86/lib/libcsr_bcsp.a(csr_abcsp_le.o)
 .note.GNU-stack
                0x0000000000000000        0x0 ../output/default/pclin-2.6-x86/lib/libcsr_bcsp.a(csr_abcsp_rx.o)
 .note.GNU-stack
                0x0000000000000000        0x0 ../output/default/pclin-2.6-x86/lib/libcsr_bcsp.a(csr_abcsp_txmsg.o)
 .note.GNU-stack
                0x0000000000000000        0x0 ../output/default/pclin-2.6-x86/lib/libcsr_bcsp.a(csr_abcsp_tx_rx_msg_intf.o)
 .note.GNU-stack
                0x0000000000000000        0x0 ../output/default/pclin-2.6-x86/lib/libcsr_bcsp.a(csr_abcsp_txslip.o)
 .note.GNU-stack
                0x0000000000000000        0x0 ../output/default/pclin-2.6-x86/lib/libcsr_bcsp.a(csr_abcsp_timers.o)
 .note.GNU-stack
                0x0000000000000000        0x0 ../output/default/pclin-2.6-x86/lib/libcsr_bcsp.a(csr_abcsp_tx_handle.o)
 .note.GNU-stack
                0x0000000000000000        0x0 ../output/default/pclin-2.6-x86/lib/libcsr_bcsp.a(csr_abcsp_crc.o)
 .note.GNU-stack
                0x0000000000000000        0x0 ../output/default/pclin-2.6-x86/lib/libcsr_h4ds.a(csr_h4ds_transport.o)
 .note.GNU-stack
                0x0000000000000000        0x0 ../output/default/pclin-2.6-x86/lib/libcsr_h4ds.a(csr_h4ds_initialize.o)
 .note.GNU-stack
                0x0000000000000000        0x0 ../output/default/pclin-2.6-x86/lib/libcsr_h4ds.a(csr_h4ds_pump_msg.o)
 .note.GNU-stack
                0x0000000000000000        0x0 ../output/default/pclin-2.6-x86/lib/libcsr_h4ds.a(csr_h4ds_init.o)
 .note.GNU-stack
                0x0000000000000000        0x0 ../output/default/pclin-2.6-x86/lib/libcsr_h4ds.a(csr_h4ds_le.o)
 .note.GNU-stack
                0x0000000000000000        0x0 ../output/default/pclin-2.6-x86/lib/libcsr_h4ds.a(csr_h4ds_tx.o)
 .note.GNU-stack
                0x0000000000000000        0x0 ../output/default/pclin-2.6-x86/lib/libcsr_h4ds.a(csr_h4ds_ds.o)
 .note.GNU-stack
                0x0000000000000000        0x0 ../output/default/pclin-2.6-x86/lib/libcsr_h4ds.a(csr_h4ds_rx.o)
 .note.GNU-stack
                0x0000000000000000        0x0 ../output/default/pclin-2.6-x86/lib/libcsr_h4ds.a(csr_h4ds_pump.o)
 .note.GNU-stack
                0x0000000000000000        0x0 ../output/default/pclin-2.6-x86/lib/libcsr_h4ds.a(csr_h4_events.o)
 .note.GNU-stack
                0x0000000000000000        0x0 ../output/default/pclin-2.6-x86/lib/libcsr_h4ds.a(csr_h4_int_handle.o)
 .note.GNU-stack
                0x0000000000000000        0x0 ../output/default/pclin-2.6-x86/lib/libcsr_h4ds.a(csr_h4_tx.o)
 .note.GNU-stack
                0x0000000000000000        0x0 ../output/default/pclin-2.6-x86/lib/libcsr_h4ds.a(csr_h4_rx.o)
 .note.GNU-stack
                0x0000000000000000        0x0 ../output/default/pclin-2.6-x86/lib/libcsr_h4ds.a(csr_h4ds_event.o)
 .note.GNU-stack
                0x0000000000000000        0x0 ../output/default/pclin-2.6-x86/lib/libcsr_h4ds.a(csr_h4ds_timers.o)
 .note.GNU-stack
                0x0000000000000000        0x0 ../output/default/pclin-2.6-x86/lib/libcsr_h4ds.a(csr_h4ds_low_level_transport.o)
 .note.GNU-stack
                0x0000000000000000        0x0 ../output/default/pclin-2.6-x86/lib/libcsr_h4ds.a(csr_h4ds_tx_handle.o)
 .note.GNU-stack
                0x0000000000000000        0x0 ../output/default/pclin-2.6-x86/lib/libcsr_h4ds.a(csr_h4ds_msgs.o)
 .note.GNU-stack
                0x0000000000000000        0x0 ../output/default/pclin-2.6-x86/lib/libcsr_h4ds.a(csr_h4ds_scanner.o)
 .note.GNU-stack
                0x0000000000000000        0x0 ../output/default/pclin-2.6-x86/lib/libcsr_queue_lib.a(csr_queue_lib.o)
 .note.GNU-stack
                0x0000000000000000        0x0 ../bsp/ports/pclin/output/default/pclin-2.6-x86/lib/libcsr_util.a(csr_util.o)
 .note.GNU-stack
                0x0000000000000000        0x0 ../bsp/ports/pclin/output/default/pclin-2.6-x86/lib/libcsr_pmem.a(csr_pmem.o)
 .note.GNU-stack
                0x0000000000000000        0x0 ../bsp/ports/pclin/output/default/pclin-2.6-x86/lib/libcsr_time.a(csr_time.o)
 .note.GNU-stack
                0x0000000000000000        0x0 ../bsp/ports/pclin/output/default/pclin-2.6-x86/lib/libcsr_panic.a(csr_panic.o)
 .note.GNU-stack
                0x0000000000000000        0x0 ../bsp/ports/pclin/output/default/pclin-2.6-x86/lib/libcsr_ser_com.a(csr_serial_com.o)
 .note.GNU-stack
                0x0000000000000000        0x0 ../bsp/ports/pclin/output/default/pclin-2.6-x86/lib/libcsr_usb_com.a(csr_usb_com.o)
 .note.GNU-stack
                0x0000000000000000        0x0 ../bsp/ports/pclin/output/default/pclin-2.6-x86/lib/libcsr_framework_ext.a(csr_framework_ext.o)
 .note.GNU-stack
                0x0000000000000000        0x0 ../bsp/ports/pclin/output/default/pclin-2.6-x86/lib/libcsr_fs.a(csr_posix_filesystem.o)
 .note.GNU-stack
                0x0000000000000000        0x0 ../output/default/pclin-2.6-x86/lib/libcsr_usb.a(csr_usb_transport.o)
 .note.GNU-stack
                0x0000000000000000        0x0 ../output/default/pclin-2.6-x86/lib/libcsr_ui.a(csr_ui_lib.o)
 .note.GNU-stack
                0x0000000000000000        0x0 ../output/default/pclin-2.6-x86/lib/libcsr_ui.a(csr_ui_free_up.o)
 .note.GNU-stack
                0x0000000000000000        0x0 ../output/default/pclin-2.6-x86/lib/libcsr_app.a(csr_app_lib.o)
 .note.GNU-stack
                0x0000000000000000        0x0 ../output/default/pclin-2.6-x86/lib/libcsr_random.a(csr_random.o)
 .note.GNU-stack
                0x0000000000000000        0x0 ../output/default/pclin-2.6-x86/lib/libcsr_tm_bluecore.a(csr_tm_bluecore_lib.o)
 .note.GNU-stack
                0x0000000000000000        0x0 ../output/default/pclin-2.6-x86/lib/libcsr_tm_bluecore.a(csr_tm_bluecore_private_lib.o)
 .note.GNU-stack
                0x0000000000000000        0x0 ../output/default/pclin-2.6-x86/lib/libcsr_tftp_lib.a(csr_tftp_free_up.o)
 .note.GNU-stack
                0x0000000000000000        0x0 ../output/default/pclin-2.6-x86/lib/libcsr_tftp_lib.a(csr_tftp_lib.o)
 .group         0x0000000000000000        0x8 /usr/lib/i386-linux-gnu/libc_nonshared.a(elf-init.oS)
 .note.GNU-stack
                0x0000000000000000        0x0 /usr/lib/i386-linux-gnu/libc_nonshared.a(elf-init.oS)
 .group         0x0000000000000000        0x8 /usr/lib/i386-linux-gnu/libc_nonshared.a(stat.oS)
 .text.__i686.get_pc_thunk.bx
                0x0000000000000000        0x4 /usr/lib/i386-linux-gnu/libc_nonshared.a(stat.oS)
 .note.GNU-stack
                0x0000000000000000        0x0 /usr/lib/i386-linux-gnu/libc_nonshared.a(stat.oS)
 .note.GNU-stack
                0x0000000000000000        0x0 /usr/lib/gcc/i686-linux-gnu/4.6/crtend.o
 .note.GNU-stack
                0x0000000000000000        0x0 /usr/lib/gcc/i686-linux-gnu/4.6/../../../i386-linux-gnu/crtn.o
 .gnu_debuglink
                0x0000000000000000        0xc /usr/lib/gcc/i686-linux-gnu/4.6/../../../i386-linux-gnu/crtn.o

Memory Configuration

Name             Origin             Length             Attributes
*default*        0x0000000000000000 0xffffffffffffffff

Linker script and memory map

LOAD /usr/lib/gcc/i686-linux-gnu/4.6/../../../i386-linux-gnu/crt1.o
LOAD /usr/lib/gcc/i686-linux-gnu/4.6/../../../i386-linux-gnu/crti.o
LOAD /usr/lib/gcc/i686-linux-gnu/4.6/crtbegin.o
LOAD output/default/pclin-2.6-x86/obj/csr_tasks.o
LOAD output/default/pclin-2.6-x86/obj/bootstrap/csr_bootstrap_generic.o
LOAD output/default/pclin-2.6-x86/obj/bootstrap/csr_bootstrap_specific_string_based.o
LOAD output/default/pclin-2.6-x86/obj/bootstrap/psr/pb-101r2_7558_uart.o
LOAD output/default/pclin-2.6-x86/obj/bootstrap/psr/pb-14r2_3164.o
LOAD output/default/pclin-2.6-x86/obj/bootstrap/psr/pb-22r14_4363.o
LOAD output/default/pclin-2.6-x86/obj/bootstrap/psr/pb-26r17_4698.o
LOAD output/default/pclin-2.6-x86/obj/bootstrap/psr/pb-27r20_4841.o
LOAD output/default/pclin-2.6-x86/obj/bootstrap/psr/pb-28r2_4839.o
LOAD output/default/pclin-2.6-x86/obj/bootstrap/psr/pb-2r17_1958.o
LOAD output/default/pclin-2.6-x86/obj/bootstrap/psr/pb-49r3_5892.o
LOAD output/default/pclin-2.6-x86/obj/bootstrap/psr/pb-51r22_5985_bga.o
LOAD output/default/pclin-2.6-x86/obj/bootstrap/psr/pb-51r22_5985_csp0p4.o
LOAD output/default/pclin-2.6-x86/obj/bootstrap/psr/pb-51r22_5985_csp0p5.o
LOAD output/default/pclin-2.6-x86/obj/bootstrap/psr/pb-51r26_5985_bga.o
LOAD output/default/pclin-2.6-x86/obj/bootstrap/psr/pb-51r26_5985_csp0p4.o
LOAD output/default/pclin-2.6-x86/obj/bootstrap/psr/pb-51r26_5985_csp0p5.o
LOAD output/default/pclin-2.6-x86/obj/bootstrap/psr/pb-53r7_6247_csp.o
LOAD output/default/pclin-2.6-x86/obj/bootstrap/psr/pb-53r7_6247_qfn.o
LOAD output/default/pclin-2.6-x86/obj/bootstrap/psr/pb-75_6455_csp.o
LOAD output/default/pclin-2.6-x86/obj/bootstrap/psr/pb-84r2_6817_csp.o
LOAD output/default/pclin-2.6-x86/obj/bootstrap/psr/pb-90r1_6817.o
LOAD output/default/pclin-2.6-x86/obj/bootstrap/psr/ps-default.o
LOAD output/default/pclin-2.6-x86/obj/bootstrap/psr/ps-gemini_a06.o
LOAD ../output/default/pclin-2.6-x86/lib/libcsr_sched.a
LOAD ../output/default/pclin-2.6-x86/lib/libcsr_ui.a
LOAD ../output/default/pclin-2.6-x86/lib/libcsr_app.a
LOAD ../bsp/ports/pclin/output/default/pclin-2.6-x86/lib/libcsr_main.a
LOAD ../output/default/pclin-2.6-x86/lib/libcsr_random.a
LOAD ../output/default/pclin-2.6-x86/lib/libcsr_aclbuf_lower.a
LOAD ../output/default/pclin-2.6-x86/lib/libcsr_arg_search.a
LOAD ../bsp/ports/pclin/output/default/pclin-2.6-x86/lib/libcsr_app_main_bluecore.a
LOAD ../output/default/pclin-2.6-x86/lib/libcsr_tm_bluecore.a
LOAD ../output/default/pclin-2.6-x86/lib/libcsr_bccmd.a
LOAD ../output/default/pclin-2.6-x86/lib/libcsr_fastpipe.a
LOAD ../output/default/pclin-2.6-x86/lib/libcsr_hq.a
LOAD ../output/default/pclin-2.6-x86/lib/libcsr_vm.a
LOAD ../output/default/pclin-2.6-x86/lib/libcsr_am.a
LOAD ../output/default/pclin-2.6-x86/lib/libcsr_hci.a
LOAD ../output/default/pclin-2.6-x86/lib/libcsr_memstat.a
LOAD ../output/default/pclin-2.6-x86/lib/libcsr_bluecore_manager.a
LOAD ../output/default/pclin-2.6-x86/lib/libcsr_ethernet_manager.a
LOAD ../output/default/pclin-2.6-x86/lib/libcsr_sdio_probe.a
LOAD ../output/default/pclin-2.6-x86/lib/libcsr_tcp_transceiver.a
LOAD ../bsp/ports/pclin/output/default/pclin-2.6-x86/lib/libcsr_ip.a
LOAD ../output/default/pclin-2.6-x86/lib/libcsr_ip_ether_lib.a
LOAD ../output/default/pclin-2.6-x86/lib/libcsr_ip_socket_lib.a
LOAD ../output/default/pclin-2.6-x86/lib/libcsr_ip_ifconfig_lib.a
LOAD ../output/default/pclin-2.6-x86/lib/libcsr_dhcp_server_manager.a
LOAD ../output/default/pclin-2.6-x86/lib/libcsr_dhcp_server.a
LOAD ../output/default/pclin-2.6-x86/lib/libcsr_dhcp_server_lib.a
LOAD ../output/default/pclin-2.6-x86/lib/libcsr_tftp.a
LOAD ../output/default/pclin-2.6-x86/lib/libcsr_tftp_lib.a
LOAD ../output/default/pclin-2.6-x86/lib/libcsr_tftp_file.a
LOAD ../output/default/pclin-2.6-x86/lib/libcsr_fsal.a
LOAD ../output/default/pclin-2.6-x86/lib/libcsr_fsal_lib.a
LOAD ../output/default/pclin-2.6-x86/lib/libcsr_list.a
LOAD ../output/default/pclin-2.6-x86/lib/libcsr_message_queue.a
LOAD ../output/default/pclin-2.6-x86/lib/libcsr_formatted_io.a
LOAD ../output/default/pclin-2.6-x86/lib/libcsr_msg_converter.a
LOAD ../output/default/pclin-2.6-x86/lib/libcsr_core_msg_converter.a
LOAD ../output/default/pclin-2.6-x86/lib/libcsr_unicode.a
LOAD ../output/default/pclin-2.6-x86/lib/libcsr_mblk.a
LOAD ../output/default/pclin-2.6-x86/lib/libcsr_sdio.a
LOAD ../output/default/pclin-2.6-x86/lib/libcsr_type_a.a
LOAD ../output/default/pclin-2.6-x86/lib/libcsr_type_a_async.a
LOAD ../output/default/pclin-2.6-x86/lib/libcsr_bcsp.a
LOAD ../output/default/pclin-2.6-x86/lib/libcsr_h4ds.a
LOAD ../output/default/pclin-2.6-x86/lib/libcsr_queue_lib.a
LOAD ../bsp/ports/pclin/output/default/pclin-2.6-x86/lib/libcsr_util.a
LOAD ../bsp/ports/pclin/output/default/pclin-2.6-x86/lib/libcsr_pmem.a
LOAD ../bsp/ports/pclin/output/default/pclin-2.6-x86/lib/libcsr_time.a
LOAD ../bsp/ports/pclin/output/default/pclin-2.6-x86/lib/libcsr_eh.a
LOAD ../bsp/ports/pclin/output/default/pclin-2.6-x86/lib/libcsr_panic.a
LOAD ../bsp/ports/pclin/output/default/pclin-2.6-x86/lib/libcsr_ser_com.a
LOAD ../bsp/ports/pclin/output/default/pclin-2.6-x86/lib/libcsr_usb_com.a
LOAD ../bsp/ports/pclin/output/default/pclin-2.6-x86/lib/libcsr_logtrans.a
LOAD /usr/lib/gcc/i686-linux-gnu/4.6/../../../i386-linux-gnu/libpthread.so
START GROUP
LOAD /lib/i386-linux-gnu/libpthread.so.0
LOAD /usr/lib/i386-linux-gnu/libpthread_nonshared.a
END GROUP
LOAD /usr/lib/gcc/i686-linux-gnu/4.6/../../../i386-linux-gnu/librt.so
LOAD ../bsp/ports/pclin/output/default/pclin-2.6-x86/lib/libcsr_framework_ext.a
LOAD ../bsp/ports/pclin/output/default/pclin-2.6-x86/lib/libcsr_fs.a
LOAD ../output/default/pclin-2.6-x86/lib/libcsr_usb.a
LOAD ../output/default/pclin-2.6-x86/lib/libcsr_sched.a
LOAD ../output/default/pclin-2.6-x86/lib/libcsr_ui.a
LOAD ../output/default/pclin-2.6-x86/lib/libcsr_app.a
LOAD ../bsp/ports/pclin/output/default/pclin-2.6-x86/lib/libcsr_main.a
LOAD ../output/default/pclin-2.6-x86/lib/libcsr_random.a
LOAD ../output/default/pclin-2.6-x86/lib/libcsr_aclbuf_lower.a
LOAD ../output/default/pclin-2.6-x86/lib/libcsr_arg_search.a
LOAD ../bsp/ports/pclin/output/default/pclin-2.6-x86/lib/libcsr_app_main_bluecore.a
LOAD ../output/default/pclin-2.6-x86/lib/libcsr_tm_bluecore.a
LOAD ../output/default/pclin-2.6-x86/lib/libcsr_bccmd.a
LOAD ../output/default/pclin-2.6-x86/lib/libcsr_fastpipe.a
LOAD ../output/default/pclin-2.6-x86/lib/libcsr_hq.a
LOAD ../output/default/pclin-2.6-x86/lib/libcsr_vm.a
LOAD ../output/default/pclin-2.6-x86/lib/libcsr_am.a
LOAD ../output/default/pclin-2.6-x86/lib/libcsr_hci.a
LOAD ../output/default/pclin-2.6-x86/lib/libcsr_memstat.a
LOAD ../output/default/pclin-2.6-x86/lib/libcsr_bluecore_manager.a
LOAD ../output/default/pclin-2.6-x86/lib/libcsr_ethernet_manager.a
LOAD ../output/default/pclin-2.6-x86/lib/libcsr_sdio_probe.a
LOAD ../output/default/pclin-2.6-x86/lib/libcsr_tcp_transceiver.a
LOAD ../bsp/ports/pclin/output/default/pclin-2.6-x86/lib/libcsr_ip.a
LOAD ../output/default/pclin-2.6-x86/lib/libcsr_ip_ether_lib.a
LOAD ../output/default/pclin-2.6-x86/lib/libcsr_ip_socket_lib.a
LOAD ../output/default/pclin-2.6-x86/lib/libcsr_ip_ifconfig_lib.a
LOAD ../output/default/pclin-2.6-x86/lib/libcsr_dhcp_server_manager.a
LOAD ../output/default/pclin-2.6-x86/lib/libcsr_dhcp_server.a
LOAD ../output/default/pclin-2.6-x86/lib/libcsr_dhcp_server_lib.a
LOAD ../output/default/pclin-2.6-x86/lib/libcsr_tftp.a
LOAD ../output/default/pclin-2.6-x86/lib/libcsr_tftp_lib.a
LOAD ../output/default/pclin-2.6-x86/lib/libcsr_tftp_file.a
LOAD ../output/default/pclin-2.6-x86/lib/libcsr_fsal.a
LOAD ../output/default/pclin-2.6-x86/lib/libcsr_fsal_lib.a
LOAD ../output/default/pclin-2.6-x86/lib/libcsr_list.a
LOAD ../output/default/pclin-2.6-x86/lib/libcsr_message_queue.a
LOAD ../output/default/pclin-2.6-x86/lib/libcsr_formatted_io.a
LOAD ../output/default/pclin-2.6-x86/lib/libcsr_msg_converter.a
LOAD ../output/default/pclin-2.6-x86/lib/libcsr_core_msg_converter.a
LOAD ../output/default/pclin-2.6-x86/lib/libcsr_unicode.a
LOAD ../output/default/pclin-2.6-x86/lib/libcsr_mblk.a
LOAD ../output/default/pclin-2.6-x86/lib/libcsr_sdio.a
LOAD ../output/default/pclin-2.6-x86/lib/libcsr_type_a.a
LOAD ../output/default/pclin-2.6-x86/lib/libcsr_type_a_async.a
LOAD ../output/default/pclin-2.6-x86/lib/libcsr_bcsp.a
LOAD ../output/default/pclin-2.6-x86/lib/libcsr_h4ds.a
LOAD ../output/default/pclin-2.6-x86/lib/libcsr_queue_lib.a
LOAD ../bsp/ports/pclin/output/default/pclin-2.6-x86/lib/libcsr_util.a
LOAD ../bsp/ports/pclin/output/default/pclin-2.6-x86/lib/libcsr_pmem.a
LOAD ../bsp/ports/pclin/output/default/pclin-2.6-x86/lib/libcsr_time.a
LOAD ../bsp/ports/pclin/output/default/pclin-2.6-x86/lib/libcsr_eh.a
LOAD ../bsp/ports/pclin/output/default/pclin-2.6-x86/lib/libcsr_panic.a
LOAD ../bsp/ports/pclin/output/default/pclin-2.6-x86/lib/libcsr_ser_com.a
LOAD ../bsp/ports/pclin/output/default/pclin-2.6-x86/lib/libcsr_usb_com.a
LOAD ../bsp/ports/pclin/output/default/pclin-2.6-x86/lib/libcsr_logtrans.a
LOAD /usr/lib/gcc/i686-linux-gnu/4.6/../../../i386-linux-gnu/libpthread.so
START GROUP
LOAD /lib/i386-linux-gnu/libpthread.so.0
LOAD /usr/lib/i386-linux-gnu/libpthread_nonshared.a
END GROUP
LOAD /usr/lib/gcc/i686-linux-gnu/4.6/../../../i386-linux-gnu/librt.so
LOAD ../bsp/ports/pclin/output/default/pclin-2.6-x86/lib/libcsr_framework_ext.a
LOAD ../bsp/ports/pclin/output/default/pclin-2.6-x86/lib/libcsr_fs.a
LOAD ../output/default/pclin-2.6-x86/lib/libcsr_usb.a
LOAD /usr/lib/gcc/i686-linux-gnu/4.6/libgcc.a
LOAD /usr/lib/gcc/i686-linux-gnu/4.6/libgcc_s.so
LOAD /usr/lib/gcc/i686-linux-gnu/4.6/../../../i386-linux-gnu/libc.so
START GROUP
LOAD /lib/i386-linux-gnu/libc.so.6
LOAD /usr/lib/i386-linux-gnu/libc_nonshared.a
LOAD /lib/i386-linux-gnu/ld-linux.so.2
END GROUP
LOAD /usr/lib/gcc/i686-linux-gnu/4.6/libgcc.a
LOAD /usr/lib/gcc/i686-linux-gnu/4.6/libgcc_s.so
LOAD /usr/lib/gcc/i686-linux-gnu/4.6/crtend.o
LOAD /usr/lib/gcc/i686-linux-gnu/4.6/../../../i386-linux-gnu/crtn.o
                0x0000000008048000                PROVIDE (__executable_start, 0x8048000)
                0x0000000008048154                . = (0x8048000 + SIZEOF_HEADERS)

.interp         0x0000000008048154       0x13
 *(.interp)
 .interp        0x0000000008048154       0x13 /usr/lib/gcc/i686-linux-gnu/4.6/../../../i386-linux-gnu/crt1.o

.note.ABI-tag   0x0000000008048168       0x20
 .note.ABI-tag  0x0000000008048168       0x20 /usr/lib/gcc/i686-linux-gnu/4.6/../../../i386-linux-gnu/crt1.o

.note.gnu.build-id
                0x0000000008048188       0x24
 *(.note.gnu.build-id)
 .note.gnu.build-id
                0x0000000008048188       0x24 /usr/lib/gcc/i686-linux-gnu/4.6/../../../i386-linux-gnu/crt1.o

.hash
 *(.hash)

.gnu.hash       0x00000000080481ac       0x30
 *(.gnu.hash)
 .gnu.hash      0x00000000080481ac       0x30 /usr/lib/gcc/i686-linux-gnu/4.6/../../../i386-linux-gnu/crt1.o

.dynsym         0x00000000080481dc      0x740
 *(.dynsym)
 .dynsym        0x00000000080481dc      0x740 /usr/lib/gcc/i686-linux-gnu/4.6/../../../i386-linux-gnu/crt1.o

.dynstr         0x000000000804891c      0x4fe
 *(.dynstr)
 .dynstr        0x000000000804891c      0x4fe /usr/lib/gcc/i686-linux-gnu/4.6/../../../i386-linux-gnu/crt1.o

.gnu.version    0x0000000008048e1a       0xe8
 *(.gnu.version)
 .gnu.version   0x0000000008048e1a       0xe8 /usr/lib/gcc/i686-linux-gnu/4.6/../../../i386-linux-gnu/crt1.o

.gnu.version_d  0x0000000008048f04        0x0
 *(.gnu.version_d)
 .gnu.version_d
                0x0000000000000000        0x0 /usr/lib/gcc/i686-linux-gnu/4.6/../../../i386-linux-gnu/crt1.o

.gnu.version_r  0x0000000008048f04       0xe0
 *(.gnu.version_r)
 .gnu.version_r
                0x0000000008048f04       0xe0 /usr/lib/gcc/i686-linux-gnu/4.6/../../../i386-linux-gnu/crt1.o

.rel.dyn        0x0000000008048fe4       0x20
 *(.rel.init)
 *(.rel.text .rel.text.* .rel.gnu.linkonce.t.*)
 .rel.text      0x0000000000000000        0x0 /usr/lib/gcc/i686-linux-gnu/4.6/../../../i386-linux-gnu/crt1.o
 *(.rel.fini)
 *(.rel.rodata .rel.rodata.* .rel.gnu.linkonce.r.*)
 .rel.rodata    0x0000000000000000        0x0 /usr/lib/gcc/i686-linux-gnu/4.6/../../../i386-linux-gnu/crt1.o
 *(.rel.data.rel.ro* .rel.gnu.linkonce.d.rel.ro.*)
 *(.rel.data .rel.data.* .rel.gnu.linkonce.d.*)
 *(.rel.tdata .rel.tdata.* .rel.gnu.linkonce.td.*)
 *(.rel.tbss .rel.tbss.* .rel.gnu.linkonce.tb.*)
 *(.rel.ctors)
 *(.rel.dtors)
 *(.rel.got)
 .rel.got       0x0000000008048fe4        0x8 /usr/lib/gcc/i686-linux-gnu/4.6/../../../i386-linux-gnu/crt1.o
 *(.rel.bss .rel.bss.* .rel.gnu.linkonce.b.*)
 .rel.bss       0x0000000008048fec       0x18 /usr/lib/gcc/i686-linux-gnu/4.6/../../../i386-linux-gnu/crt1.o
 *(.rel.ifunc)

.rel.plt        0x0000000008049004      0x370
 *(.rel.plt)
 .rel.plt       0x0000000008049004      0x370 /usr/lib/gcc/i686-linux-gnu/4.6/../../../i386-linux-gnu/crt1.o
                0x0000000008049374                PROVIDE (__rel_iplt_start, .)
 *(.rel.iplt)
 .rel.iplt      0x0000000000000000        0x0 /usr/lib/gcc/i686-linux-gnu/4.6/../../../i386-linux-gnu/crt1.o
                0x0000000008049374                PROVIDE (__rel_iplt_end, .)

.init           0x0000000008049374       0x2e
 *(.init)
 .init          0x0000000008049374       0x1f /usr/lib/gcc/i686-linux-gnu/4.6/../../../i386-linux-gnu/crti.o
                0x0000000008049374                _init
 .init          0x0000000008049393        0x5 /usr/lib/gcc/i686-linux-gnu/4.6/crtbegin.o
 .init          0x0000000008049398        0x5 /usr/lib/gcc/i686-linux-gnu/4.6/crtend.o
 .init          0x000000000804939d        0x5 /usr/lib/gcc/i686-linux-gnu/4.6/../../../i386-linux-gnu/crtn.o

.plt            0x00000000080493b0      0x6f0
 *(.plt)
 .plt           0x00000000080493b0      0x6f0 /usr/lib/gcc/i686-linux-gnu/4.6/../../../i386-linux-gnu/crt1.o
                0x00000000080493c0                setsockopt@@GLIBC_2.0
                0x00000000080493d0                pthread_mutex_unlock@@GLIBC_2.0
                0x00000000080493e0                setbuf@@GLIBC_2.0
                0x00000000080493f0                dup2@@GLIBC_2.0
                0x0000000008049400                strstr@@GLIBC_2.0
                0x0000000008049410                pthread_attr_init@@GLIBC_2.1
                0x0000000008049420                strcmp@@GLIBC_2.0
                0x0000000008049430                read@@GLIBC_2.0
                0x0000000008049440                pthread_mutex_destroy@@GLIBC_2.0
                0x0000000008049450                printf@@GLIBC_2.0
                0x0000000008049460                memmove@@GLIBC_2.0
                0x0000000008049470                free@@GLIBC_2.0
                0x0000000008049480                memcpy@@GLIBC_2.0
                0x0000000008049490                pthread_self@@GLIBC_2.0
                0x00000000080494a0                pthread_mutex_init@@GLIBC_2.0
                0x00000000080494b0                rmdir@@GLIBC_2.0
                0x00000000080494c0                pthread_cond_wait@@GLIBC_2.3.2
                0x00000000080494d0                cfsetospeed@@GLIBC_2.0
                0x00000000080494e0                lseek@@GLIBC_2.0
                0x00000000080494f0                memcmp@@GLIBC_2.0
                0x0000000008049500                gettimeofday@@GLIBC_2.0
                0x0000000008049510                select@@GLIBC_2.0
                0x0000000008049520                chdir@@GLIBC_2.0
                0x0000000008049530                pthread_equal@@GLIBC_2.0
                0x0000000008049540                recvfrom@@GLIBC_2.0
                0x0000000008049550                __stack_chk_fail@@GLIBC_2.4
                0x0000000008049560                pthread_condattr_init@@GLIBC_2.0
                0x0000000008049570                htons@@GLIBC_2.0
                0x0000000008049580                pthread_mutex_lock@@GLIBC_2.0
                0x0000000008049590                unlink@@GLIBC_2.0
                0x00000000080495a0                fnmatch@@GLIBC_2.2.3
                0x00000000080495b0                getsockopt@@GLIBC_2.0
                0x00000000080495c0                ioctl@@GLIBC_2.0
                0x00000000080495d0                __xstat@@GLIBC_2.0
                0x00000000080495e0                perror@@GLIBC_2.0
                0x00000000080495f0                poll@@GLIBC_2.0
                0x0000000008049600                accept@@GLIBC_2.0
                0x0000000008049610                waitpid@@GLIBC_2.0
                0x0000000008049620                usleep@@GLIBC_2.0
                0x0000000008049630                strcat@@GLIBC_2.0
                0x0000000008049640                strcpy@@GLIBC_2.0
                0x0000000008049650                tcsetattr@@GLIBC_2.0
                0x0000000008049660                pthread_cond_signal@@GLIBC_2.3.2
                0x0000000008049670                if_nametoindex@@GLIBC_2.1
                0x0000000008049680                malloc@@GLIBC_2.0
                0x0000000008049690                puts@@GLIBC_2.0
                0x00000000080496a0                system@@GLIBC_2.0
                0x00000000080496b0                pthread_condattr_destroy@@GLIBC_2.0
                0x00000000080496d0                exit@@GLIBC_2.0
                0x00000000080496e0                kill@@GLIBC_2.0
                0x00000000080496f0                open@@GLIBC_2.0
                0x0000000008049700                rename@@GLIBC_2.0
                0x0000000008049710                strchr@@GLIBC_2.0
                0x0000000008049720                getcwd@@GLIBC_2.0
                0x0000000008049730                fsync@@GLIBC_2.0
                0x0000000008049740                __libc_start_main@@GLIBC_2.0
                0x0000000008049750                execve@@GLIBC_2.0
                0x0000000008049760                write@@GLIBC_2.0
                0x0000000008049770                pthread_cond_init@@GLIBC_2.3.2
                0x0000000008049780                cfsetispeed@@GLIBC_2.0
                0x0000000008049790                fcntl@@GLIBC_2.0
                0x00000000080497a0                bind@@GLIBC_2.0
                0x00000000080497b0                __isoc99_sscanf@@GLIBC_2.7
                0x00000000080497c0                gmtime@@GLIBC_2.0
                0x00000000080497d0                memset@@GLIBC_2.0
                0x00000000080497e0                getifaddrs@@GLIBC_2.3
                0x00000000080497f0                mkdir@@GLIBC_2.0
                0x0000000008049800                writev@@GLIBC_2.0
                0x0000000008049810                ftruncate@@GLIBC_2.0
                0x0000000008049820                __errno_location@@GLIBC_2.0
                0x0000000008049830                pthread_cancel@@GLIBC_2.0
                0x0000000008049840                strncpy@@GLIBC_2.0
                0x0000000008049850                fileno@@GLIBC_2.0
                0x0000000008049860                pthread_condattr_setclock@@GLIBC_2.3.3
                0x0000000008049870                pipe@@GLIBC_2.0
                0x0000000008049880                freeifaddrs@@GLIBC_2.3
                0x0000000008049890                sendto@@GLIBC_2.0
                0x00000000080498a0                fork@@GLIBC_2.0
                0x00000000080498b0                readdir@@GLIBC_2.0
                0x00000000080498c0                pthread_cond_timedwait@@GLIBC_2.3.2
                0x00000000080498d0                readv@@GLIBC_2.0
                0x00000000080498e0                htonl@@GLIBC_2.0
                0x00000000080498f0                freeaddrinfo@@GLIBC_2.0
                0x0000000008049900                listen@@GLIBC_2.0
                0x0000000008049910                strrchr@@GLIBC_2.0
                0x0000000008049920                pthread_cond_destroy@@GLIBC_2.3.2
                0x0000000008049930                ntohs@@GLIBC_2.0
                0x0000000008049940                pthread_join@@GLIBC_2.0
                0x0000000008049950                getsockname@@GLIBC_2.0
                0x0000000008049960                sprintf@@GLIBC_2.0
                0x0000000008049970                vsnprintf@@GLIBC_2.0
                0x0000000008049980                nanosleep@@GLIBC_2.0
                0x0000000008049990                socket@@GLIBC_2.0
                0x00000000080499a0                getaddrinfo@@GLIBC_2.0
                0x00000000080499b0                pthread_create@@GLIBC_2.1
                0x00000000080499c0                clock_gettime@@GLIBC_2.2
                0x00000000080499d0                pthread_detach@@GLIBC_2.0
                0x00000000080499e0                strncmp@@GLIBC_2.0
                0x00000000080499f0                tcgetattr@@GLIBC_2.0
                0x0000000008049a00                chmod@@GLIBC_2.0
                0x0000000008049a10                abort@@GLIBC_2.0
                0x0000000008049a20                connect@@GLIBC_2.0
                0x0000000008049a30                recv@@GLIBC_2.0
                0x0000000008049a40                close@@GLIBC_2.0
                0x0000000008049a50                closedir@@GLIBC_2.0
                0x0000000008049a60                opendir@@GLIBC_2.0
                0x0000000008049a70                send@@GLIBC_2.0
                0x0000000008049a80                calloc@@GLIBC_2.0
                0x0000000008049a90                strncat@@GLIBC_2.0
 *(.iplt)
 .iplt          0x0000000000000000        0x0 /usr/lib/gcc/i686-linux-gnu/4.6/../../../i386-linux-gnu/crt1.o

.text           0x0000000008049aa0    0x3f93c
 *(.text.unlikely .text.*_unlikely)
 *(.text.exit .text.exit.*)
 *(.text.startup .text.startup.*)
 *(.text.hot .text.hot.*)
 *(.text .stub .text.* .gnu.linkonce.t.*)
 .text          0x0000000008049aa0       0x24 /usr/lib/gcc/i686-linux-gnu/4.6/../../../i386-linux-gnu/crt1.o
                0x0000000008049aa0                _start
 .text          0x0000000008049ac4        0x0 /usr/lib/gcc/i686-linux-gnu/4.6/../../../i386-linux-gnu/crti.o
 *fill*         0x0000000008049ac4        0xc 90909090
 .text          0x0000000008049ad0       0x83 /usr/lib/gcc/i686-linux-gnu/4.6/crtbegin.o
 *fill*         0x0000000008049b53        0x1 90909090
 .text          0x0000000008049b54      0x54d output/default/pclin-2.6-x86/obj/csr_tasks.o
                0x0000000008049b54                CsrAppMainUsage
                0x0000000008049b59                CsrAppMain
                0x0000000008049c72                CsrSchedTaskInit
 *fill*         0x000000000804a0a1        0x3 90909090
 .text          0x000000000804a0a4      0xf20 output/default/pclin-2.6-x86/obj/bootstrap/csr_bootstrap_generic.o
                0x000000000804aa75                CsrBootstrapAddPskey
                0x000000000804aacf                CsrBootstrapParsePsrConstant
                0x000000000804ac28                CsrBootstrapParsePsrFile
                0x000000000804add5                CsrBootstrapSetInterface
                0x000000000804ae40                CsrBootstrapSetBitRate
                0x000000000804ae5f                CsrBootstrapSetFriendlyName
                0x000000000804aeb6                CsrBootstrapSetLocalBtAddress
                0x000000000804aee9                CsrBootstrapSetFrequency
                0x000000000804af11                CsrBootstrapSetFreqTrim
                0x000000000804af39                CsrTmBlueCoreGetBootstrap
 .text          0x000000000804afc4       0xa5 output/default/pclin-2.6-x86/obj/bootstrap/csr_bootstrap_specific_string_based.o
                0x000000000804afc4                CsrBootstrapSpecific
 *fill*         0x000000000804b069        0x3 90909090
 .text          0x000000000804b06c        0x0 output/default/pclin-2.6-x86/obj/bootstrap/psr/pb-101r2_7558_uart.o
 .text          0x000000000804b06c        0x0 output/default/pclin-2.6-x86/obj/bootstrap/psr/pb-14r2_3164.o
 .text          0x000000000804b06c        0x0 output/default/pclin-2.6-x86/obj/bootstrap/psr/pb-22r14_4363.o
 .text          0x000000000804b06c        0x0 output/default/pclin-2.6-x86/obj/bootstrap/psr/pb-26r17_4698.o
 .text          0x000000000804b06c        0x0 output/default/pclin-2.6-x86/obj/bootstrap/psr/pb-27r20_4841.o
 .text          0x000000000804b06c        0x0 output/default/pclin-2.6-x86/obj/bootstrap/psr/pb-28r2_4839.o
 .text          0x000000000804b06c        0x0 output/default/pclin-2.6-x86/obj/bootstrap/psr/pb-2r17_1958.o
 .text          0x000000000804b06c        0x0 output/default/pclin-2.6-x86/obj/bootstrap/psr/pb-49r3_5892.o
 .text          0x000000000804b06c        0x0 output/default/pclin-2.6-x86/obj/bootstrap/psr/pb-51r22_5985_bga.o
 .text          0x000000000804b06c        0x0 output/default/pclin-2.6-x86/obj/bootstrap/psr/pb-51r22_5985_csp0p4.o
 .text          0x000000000804b06c        0x0 output/default/pclin-2.6-x86/obj/bootstrap/psr/pb-51r22_5985_csp0p5.o
 .text          0x000000000804b06c        0x0 output/default/pclin-2.6-x86/obj/bootstrap/psr/pb-51r26_5985_bga.o
 .text          0x000000000804b06c        0x0 output/default/pclin-2.6-x86/obj/bootstrap/psr/pb-51r26_5985_csp0p4.o
 .text          0x000000000804b06c        0x0 output/default/pclin-2.6-x86/obj/bootstrap/psr/pb-51r26_5985_csp0p5.o
 .text          0x000000000804b06c        0x0 output/default/pclin-2.6-x86/obj/bootstrap/psr/pb-53r7_6247_csp.o
 .text          0x000000000804b06c        0x0 output/default/pclin-2.6-x86/obj/bootstrap/psr/pb-53r7_6247_qfn.o
 .text          0x000000000804b06c        0x0 output/default/pclin-2.6-x86/obj/bootstrap/psr/pb-75_6455_csp.o
 .text          0x000000000804b06c        0x0 output/default/pclin-2.6-x86/obj/bootstrap/psr/pb-84r2_6817_csp.o
 .text          0x000000000804b06c        0x0 output/default/pclin-2.6-x86/obj/bootstrap/psr/pb-90r1_6817.o
 .text          0x000000000804b06c        0x0 output/default/pclin-2.6-x86/obj/bootstrap/psr/ps-default.o
 .text          0x000000000804b06c        0x0 output/default/pclin-2.6-x86/obj/bootstrap/psr/ps-gemini_a06.o
 .text          0x000000000804b06c     0x1eda ../output/default/pclin-2.6-x86/lib/libcsr_sched.a(csr_sched.o)
                0x000000000804b06c                CsrGetThreadIndex
                0x000000000804b52b                CsrSchedBgintReg
                0x000000000804b65e                CsrSchedBgintUnreg
                0x000000000804b6ed                CsrSchedBgintSet
                0x000000000804b89b                CsrSchedLoop
                0x000000000804bfb5                CsrSched
                0x000000000804c2e0                CsrSchedInit
                0x000000000804c6f4                CsrSchedDeinit
                0x000000000804c869                CsrSchedStop
                0x000000000804c88b                CsrSchedMessageBroadcast
                0x000000000804c978                CsrSchedMessagePut
                0x000000000804c9c5                CsrSchedMessageGet
                0x000000000804caf4                CsrSchedTimerSet
                0x000000000804ccff                CsrSchedTimerCancel
                0x000000000804cdf6                CsrSchedTaskQueueGet
                0x000000000804ce29                CsrSchedRegisterTask
                0x000000000804cf39                CsrSchedRegisterExternalSend
 *fill*         0x000000000804cf46        0x2 90909090
 .text          0x000000000804cf48      0x1d3 ../output/default/pclin-2.6-x86/lib/libcsr_ui.a(csr_ui_ctrl.o)
                0x000000000804cf48                CsrUiHandler
                0x000000000804d008                CsrUiInitialise
                0x000000000804d0a0                CsrUiDeinitialise
 *fill*         0x000000000804d11b        0x1 90909090
 .text          0x000000000804d11c      0x2e7 ../output/default/pclin-2.6-x86/lib/libcsr_ui.a(csr_ui_displaystack.o)
                0x000000000804d11c                CsrUiDisplayUieShow
                0x000000000804d294                CsrUiDisplayUieHide
                0x000000000804d35a                CsrUiDisplaySetinputmode
                0x000000000804d3a7                CsrUiDisplayGethandle
                0x000000000804d3c6                CsrUiDisplayDestroyAll
 *fill*         0x000000000804d403        0x1 90909090
 .text          0x000000000804d404      0x212 ../output/default/pclin-2.6-x86/lib/libcsr_ui.a(csr_ui_emulator_touchdecoder.o)
                0x000000000804d404                CsrUiTouchEvent
                0x000000000804d48c                CsrUiTouchDecoderRegisterEventHandler
                0x000000000804d564                CsrUiRegisterKey
                0x000000000804d5c2                CsrUiTouchDecoderDeinit
 *fill*         0x000000000804d616        0x2 90909090
 .text          0x000000000804d618      0xff8 ../output/default/pclin-2.6-x86/lib/libcsr_ui.a(csr_ui_keyhandler.o)
                0x000000000804d731                CsrUiKeyEvent
                0x000000000804d996                CsrUiKeyMultiKeyReset
                0x000000000804d9df                CsrUiKeyMultiKeyTimerEvent
                0x000000000804ddcc                CsrUiKeyHandler
 .text          0x000000000804e610     0x3023 ../output/default/pclin-2.6-x86/lib/libcsr_ui.a(csr_ui_renderer.o)
                0x00000000080505b2                CsrUiRenderRedraw
                0x0000000008051028                CsrUiRenderCalculateScreenCoordinates
                0x0000000008051350                CsrUiRenderMenuScrollUp
                0x00000000080513c3                CsrUiRenderMenuScrollDown
                0x00000000080514a3                CsrUiRenderMenuScrollUpdate
                0x0000000008051559                CsrUiRenderMenuScrollDelete
                0x0000000008051586                CsrUiRenderDialogScrollUp
                0x00000000080515b4                CsrUiRenderDialogScrollDown
 *fill*         0x0000000008051633        0x1 90909090
 .text          0x0000000008051634      0xaa5 ../output/default/pclin-2.6-x86/lib/libcsr_ui.a(csr_ui_renderer_text.o)
                0x0000000008051989                CsrUiRenderTextRedraw
                0x0000000008051df6                CsrUiRenderTextMenuScrollUp
                0x0000000008051e69                CsrUiRenderTextMenuScrollDown
                0x0000000008051f49                CsrUiRenderTextMenuScrollUpdate
                0x0000000008051fff                CsrUiRenderTextMenuScrollDelete
                0x000000000805202c                CsrUiRenderTextDialogScrollUp
                0x000000000805205a                CsrUiRenderTextDialogScrollDown
 *fill*         0x00000000080520d9        0x3 90909090
 .text          0x00000000080520dc      0xe16 ../output/default/pclin-2.6-x86/lib/libcsr_ui.a(csr_ui_sef.o)
                0x00000000080520dc                CsrUiUieCreateReqHandler
                0x000000000805215f                CsrUiMenuSetReqHandler
                0x0000000008052204                CsrUiMenuGetReqHandler
                0x000000000805220e                CsrUiMenuAdditemReqHandler
                0x00000000080522f9                CsrUiMenuRemoveitemReqHandler
                0x000000000805235b                CsrUiMenuRemoveallitemsReqHandler
                0x00000000080523af                CsrUiMenuSetitemReqHandler
                0x0000000008052486                CsrUiMenuGetitemReqHandler
                0x0000000008052587                CsrUiMenuSetcursorReqHandler
                0x00000000080525e9                CsrUiMenuGetcursorReqHandler
                0x0000000008052664                CsrUiEventSetReqHandler
                0x00000000080526b1                CsrUiEventGetReqHandler
                0x00000000080526bb                CsrUiDialogSetReqHandler
                0x00000000080527b2                CsrUiDialogGetReqHandler
                0x00000000080527bc                CsrUiInputdialogSetReqHandler
                0x0000000008052994                CsrUiInputdialogGetReqHandler
                0x0000000008052a62                CsrUiIdlescreenSetReqHandler
                0x0000000008052c05                CsrUiIdlescreenGetReqHandler
                0x0000000008052cd3                CsrUiUieShowReqHandler
                0x0000000008052d2b                CsrUiUieHideReqHandler
                0x0000000008052d54                CsrUiDisplaySetinputmodeReqHandler
                0x0000000008052d90                CsrUiDisplayGethandleReqHandler
                0x0000000008052df7                CsrUiStatusBatterySetReqHandler
                0x0000000008052e19                CsrUiStatusRadiometerSetReqHandler
                0x0000000008052e3b                CsrUiStatusHeadsetSetReqHandler
                0x0000000008052e80                CsrUiStatusBluetoothSetReqHandler
                0x0000000008052ea2                CsrUiStatusWifiSetReqHandler
                0x0000000008052ec4                CsrUiUieDestroyReqHandler
 *fill*         0x0000000008052ef2        0x2 90909090
 .text          0x0000000008052ef4      0xd02 ../output/default/pclin-2.6-x86/lib/libcsr_ui.a(csr_ui_uiemanager.o)
                0x0000000008052ef4                CsrUiUieMenuGetNumberOfItems
                0x0000000008052f25                CsrUiUieMenuGetCursorIndex
                0x0000000008052f61                CsrUiUieMenuGetCursorPosition
                0x0000000008052f95                CsrUiUieMenuSetCursorPosition
                0x0000000008053032                CsrUiUieHandle2Pointer
                0x0000000008053067                CsrUiUieCreate
                0x000000000805338e                CsrUiUieDestroy
                0x000000000805355c                CsrUiUieDestroyAll
                0x00000000080535cd                CsrUiUieMenuAdditem
                0x00000000080537d5                CsrUiUieMenuRemoveitem
                0x00000000080539f3                CsrUiUieMenuRemoveallitems
                0x0000000008053a90                CsrUiUieMenuSetitem
                0x0000000008053b97                CsrUiUieMenuGetitem
 *fill*         0x0000000008053bf6        0x2 90909090
 .text          0x0000000008053bf8      0x43d ../output/default/pclin-2.6-x86/lib/libcsr_ui.a(csr_ui_util.o)
                0x0000000008053bf8                CsrUiUtilStringLength
                0x0000000008053c2a                CsrUiUtilStringLines
                0x0000000008053c75                CsrUiUtilStringCopy
                0x0000000008053cdd                CsrUiUtilWordLength
                0x0000000008053d1d                CsrUiUtilWordWrap
                0x0000000008053f90                CsrUiUtilStringCat
                0x0000000008053fd6                CsrUiUtilStringCatCap
 *fill*         0x0000000008054035        0x3 90909090
 .text          0x0000000008054038      0x259 ../output/default/pclin-2.6-x86/lib/libcsr_ui.a(csr_ui_free_down.o)
                0x0000000008054038                CsrUiFreeDownstreamMessageContents
 *fill*         0x0000000008054291        0x3 90909090
 .text          0x0000000008054294      0x4ce ../output/default/pclin-2.6-x86/lib/libcsr_ui.a(csr_ui_graphics_driver.o)
                0x0000000008054294                CsrUiGraphicsDriverLine
                0x0000000008054542                CsrUiGraphicsDriverGetFontWidth
                0x0000000008054559                CsrUiGraphicsDriverGetFontHeight
                0x0000000008054570                CsrUiGraphicsDriverPutFontCharacter
                0x00000000080546d1                CsrUiGraphicsDriverPrintFontString
 *fill*         0x0000000008054762        0x2 90909090
 .text          0x0000000008054764       0xd6 ../output/default/pclin-2.6-x86/lib/libcsr_ui.a(csr_ui_icon.o)
                0x0000000008054764                CsrUiIconPut
 *fill*         0x000000000805483a        0x2 90909090
 .text          0x000000000805483c        0x0 ../output/default/pclin-2.6-x86/lib/libcsr_ui.a(csr_ui_font_sax_mono_12x22.o)
 .text          0x000000000805483c        0x0 ../output/default/pclin-2.6-x86/lib/libcsr_ui.a(csr_ui_font_sax_mono_10x21.o)
 .text          0x000000000805483c      0x72e ../output/default/pclin-2.6-x86/lib/libcsr_app.a(csr_app_handler.o)
                0x000000000805483c                CsrAppInitialization
                0x00000000080548ba                CsrAppDeinitialization
                0x00000000080549c1                CsrAppHandler
 *fill*         0x0000000008054f6a        0x2 90909090
 .text          0x0000000008054f6c      0xa4b ../output/default/pclin-2.6-x86/lib/libcsr_app.a(csr_app_ui_sef.o)
                0x0000000008054f6c                CsrAppCsrUiUieCreateCfmHandler
                0x0000000008055724                CsrAppCsrUiMenuGetitemCfmHandler
                0x0000000008055837                CsrAppCsrUiEventIndHandler
 *fill*         0x00000000080559b7        0x1 90909090
 .text          0x00000000080559b8      0x65e ../output/default/pclin-2.6-x86/lib/libcsr_app.a(csr_app_util.o)
                0x00000000080559b8                CsrAppRestoreSavedMessages
                0x00000000080559f9                CsrAppGetProfileEntryFromKey
                0x0000000008055a37                CsrAppInsertDisplayMenuHandle
                0x0000000008055c6b                CsrAppInsertPopupDialogHandle
                0x0000000008055cb5                CsrAppGetProfileUieFromMenuName
                0x0000000008055e4b                CsrAppRegisterProfile
 *fill*         0x0000000008056016        0x2 90909090
 .text          0x0000000008056018       0xc0 ../output/default/pclin-2.6-x86/lib/libcsr_app.a(csr_app_free_down.o)
                0x0000000008056018                CsrAppFreeDownstreamMessageContents
 .text          0x00000000080560d8        0xd ../output/default/pclin-2.6-x86/lib/libcsr_app.a(csr_app_lower_private.o)
                0x00000000080560d8                CsrAppExitFunctionRegister
 *fill*         0x00000000080560e5        0x3 90909090
 .text          0x00000000080560e8       0x25 ../bsp/ports/pclin/output/default/pclin-2.6-x86/lib/libcsr_main.a(csr_main.o)
                0x00000000080560e8                main
 *fill*         0x000000000805610d        0x3 90909090
 .text          0x0000000008056110      0x214 ../output/default/pclin-2.6-x86/lib/libcsr_arg_search.a(csr_arg_search.o)
                0x0000000008056110                CsrArgSearchInit
                0x0000000008056125                CsrArgSearchValidate
                0x0000000008056191                CsrArgSearch
 .text          0x0000000008056324      0x276 ../bsp/ports/pclin/output/default/pclin-2.6-x86/lib/libcsr_app_main_bluecore.a(csr_app_main.o)
                0x000000000805636a                CsrMain
 *fill*         0x000000000805659a        0x2 90909090
 .text          0x000000000805659c      0x4f2 ../bsp/ports/pclin/output/default/pclin-2.6-x86/lib/libcsr_app_main_bluecore.a(csr_key_input.o)
                0x000000000805659c                handleAsciiKeyCodes
                0x000000000805687f                CsrKeyInputActivate
                0x00000000080569ff                CsrKeyInputDeactivate
 *fill*         0x0000000008056a8e        0x2 90909090
 .text          0x0000000008056a90      0x155 ../bsp/ports/pclin/output/default/pclin-2.6-x86/lib/libcsr_app_main_bluecore.a(csr_ui_lower.o)
                0x0000000008056a90                CsrUiLowerInitialise
                0x0000000008056ab8                CsrUiGraphicsRendererConfigurationGet
                0x0000000008056bca                CsrUiTextRendererConfigurationGet
 *fill*         0x0000000008056be5        0x3 90909090
 .text          0x0000000008056be8      0x792 ../bsp/ports/pclin/output/default/pclin-2.6-x86/lib/libcsr_app_main_bluecore.a(csr_app_main_transport_bluecore.o)
                0x0000000008056be8                CsrAppMainBluecoreTransportGet
                0x0000000008056bf4                CsrAppMainBluecorePreBootstrapBaudrateGet
                0x0000000008056bfe                CsrAppMainBluecorePostBootstrapBaudrateGet
                0x0000000008056c08                CsrAppMainBluecoreXtalFrequencyGet
                0x0000000008056c12                CsrAppMainBluecoreLocalDeviceBluetoothAddressGet
                0x0000000008056c3b                CsrAppMainBluecoreLocalDeviceNameGet
                0x0000000008056c45                CsrAppMainBluecorePsrFileGet
                0x0000000008056c4f                CsrAppMainBluecorePsrStringGet
                0x0000000008056c59                CsrAppMainTransportInitialise
                0x0000000008057258                CsrAppMainTransportDeinitialise
                0x0000000008057280                CsrAppMainTransportUsage
 *fill*         0x000000000805737a        0x2 90909090
 .text          0x000000000805737c      0x118 ../output/default/pclin-2.6-x86/lib/libcsr_tm_bluecore.a(csr_tm_bluecore_handler.o)
                0x000000000805737c                CsrTmBlueCoreHandler
                0x00000000080573ff                CsrTmBlueCoreDeinit
 .text          0x0000000008057494      0x79f ../output/default/pclin-2.6-x86/lib/libcsr_tm_bluecore.a(csr_tm_bluecore_sef.o)
                0x0000000008057adc                CsrTmBlueCoreTransportInit
                0x0000000008057b65                CsrTmBlueCoreTmBlueCoreMsgHandler
                0x0000000008057bad                CsrTmBlueCoreBccmdMsgHandler
                0x0000000008057c04                CsrTmBlueCoreHciMsgHandler
 *fill*         0x0000000008057c33        0x1 90909090
 .text          0x0000000008057c34      0x217 ../output/default/pclin-2.6-x86/lib/libcsr_tm_bluecore.a(csr_tm_bluecore_transport.o)
                0x0000000008057c34                CsrTmBlueCoreTransportDelete
                0x0000000008057c39                CsrTmBlueCoreTransportStart
                0x0000000008057c72                CsrTmBlueCoreTransportStop
                0x0000000008057cb0                CsrTmBlueCoreTransportQuery
                0x0000000008057ce4                CsrTmBlueCoreTransportMsgTx
                0x0000000008057d10                CsrTmBlueCoreTransportMsgRx
                0x0000000008057d3c                CsrTmBlueCoreTransportMsgClean
                0x0000000008057d68                CsrTmBlueCoreTransportScoTx
                0x0000000008057d94                CsrTmBlueCoreTransportRegisterMsgRx
                0x0000000008057db7                CsrTmBlueCoreTransportDriverRestart
                0x0000000008057dff                CsrTmBlueCoreTransportRestart
                0x0000000008057e25                CsrTmBlueCoreTransportClose
 *fill*         0x0000000008057e4b        0x1 90909090
 .text          0x0000000008057e4c      0x2df ../output/default/pclin-2.6-x86/lib/libcsr_bccmd.a(csr_bccmd_handler.o)
                0x0000000008057e4c                CsrBccmdInit
                0x0000000008057f15                CsrBccmdHandler
                0x0000000008058009                CsrBccmdDeinit
 *fill*         0x000000000805812b        0x1 90909090
 .text          0x000000000805812c      0x4ba ../output/default/pclin-2.6-x86/lib/libcsr_bccmd.a(csr_bccmd_lib.o)
                0x000000000805812c                CsrBccmdWriteReqSend
                0x00000000080581cc                CsrBccmdReadReqSend
                0x000000000805826c                CsrBccmdReadPsValueReqSend
                0x000000000805831e                CsrBccmdWritePsValueReqSend
                0x00000000080583cf                CsrBccmdReq_struct
                0x000000000805841e                CsrBccmdFlushReq_struct
                0x0000000008058452                CsrTmBlueCoreBuildBccmdSetMsg
                0x0000000008058512                CsrTmBlueCoreBuildBccmdPsSetMsg
 *fill*         0x00000000080585e6        0x2 90909090
 .text          0x00000000080585e8      0xa6d ../output/default/pclin-2.6-x86/lib/libcsr_bccmd.a(csr_bccmd_sef.o)
                0x000000000805881e                CsrBccmdGetBuildId
                0x0000000008058ac7                CsrBccmdCfmSend
                0x0000000008058c2d                CsrBccmdRemoveBootType
                0x0000000008058c65                CsrBccmdReqHandler
                0x0000000008058cc4                CsrBccmdFlushReqHandler
                0x0000000008058d72                CsrBccmdBootstrapReqHandler
                0x0000000008058dce                CsrBccmdResetResHandler
                0x0000000008058e17                CsrBccmdGetBuildIdHandler
                0x0000000008058e90                CsrBccmdHciVendorSpecificEventIndHandler
                0x0000000008058fc6                CsrBccmdRestoreMessageHandler
                0x0000000008059026                CsrTmBlueCoreActivateTransportCfmHandler
 *fill*         0x0000000008059055        0x3 90909090
 .text          0x0000000008059058      0x10d ../output/default/pclin-2.6-x86/lib/libcsr_bccmd.a(csr_bccmd_private_lib.o)
                0x0000000008059058                CsrBccmdBootstrapReq_struct
                0x00000000080590a7                CsrBccmdResetRes_struct
                0x00000000080590db                CsrBccmdGetBuildIdReq_struct
                0x000000000805910f                CsrBccmdQueryReq_struct
                0x0000000008059131                CsrBccmdPanicArgsReq_struct
 *fill*         0x0000000008059165        0x3 90909090
 .text          0x0000000008059168      0x296 ../output/default/pclin-2.6-x86/lib/libcsr_bccmd.a(csr_bccmd_util.o)
                0x0000000008059168                CsrBccmdBccmdCommandBuild
                0x00000000080592d1                CsrBccmdPsKeyCommandBuild
 *fill*         0x00000000080593fe        0x2 90909090
 .text          0x0000000008059400       0x4e ../output/default/pclin-2.6-x86/lib/libcsr_bccmd.a(csr_bccmd_free_up.o)
                0x0000000008059400                CsrBccmdFreeUpstreamMessageContents
 *fill*         0x000000000805944e        0x2 90909090
 .text          0x0000000008059450      0x2be ../output/default/pclin-2.6-x86/lib/libcsr_fastpipe.a(csr_fp_handler.o)
                0x000000000805949d                CsrFpHandler
                0x00000000080595cd                CsrFpInit
                0x0000000008059636                CsrFpDeinit
 *fill*         0x000000000805970e        0x2 90909090
 .text          0x0000000008059710     0x1675 ../output/default/pclin-2.6-x86/lib/libcsr_fastpipe.a(csr_fp_sef.o)
                0x00000000080597ed                CsrFpClistClear
                0x0000000008059839                CsrFpContainerCreate
                0x00000000080598cd                CsrFpContainerDestroy
                0x000000000805992a                CsrFpContainerDestroyAll
                0x000000000805a419                CsrFpCreateReqHandler
                0x000000000805a53f                CsrFpWriteReqHandler
                0x000000000805a695                CsrFpClearReqHandler
                0x000000000805a7c8                CsrFpDestroyReqHandler
                0x000000000805a8c4                CsrFpHciAclDataIndHandler
                0x000000000805ac90                CsrFpBccmdCfmHandler
                0x000000000805ad2e                CsrFpActivate
 *fill*         0x000000000805ad85        0x3 90909090
 .text          0x000000000805ad88       0x4c ../output/default/pclin-2.6-x86/lib/libcsr_fastpipe.a(csr_fp_free_down.o)
                0x000000000805ad88                CsrFpFreeDownstreamMessageContents
 .text          0x000000000805add4      0x220 ../output/default/pclin-2.6-x86/lib/libcsr_hq.a(csr_hq_handler.o)
                0x000000000805add4                CsrHqInit
                0x000000000805ae56                CsrHqHandler
                0x000000000805af65                CsrHqDeinit
 .text          0x000000000805aff4      0x176 ../output/default/pclin-2.6-x86/lib/libcsr_hq.a(csr_hq_subscriber.o)
                0x000000000805aff4                CsrHqInsertSubscriber
                0x000000000805b08c                CsrHqRemoveSubscriberSpecific
                0x000000000805b107                CsrHqRemoveSubscriber
 *fill*         0x000000000805b16a        0x2 90909090
 .text          0x000000000805b16c      0x589 ../output/default/pclin-2.6-x86/lib/libcsr_hq.a(csr_hq_sef.o)
                0x000000000805b1d0                CsrHqRegisterReqHandler
                0x000000000805b25c                CsrHqDeregisterReqHandler
                0x000000000805b2c3                CsrHqMsgResHandler
                0x000000000805b422                CsrHqHciVendorSpecificEventIndHandler
 *fill*         0x000000000805b6f5        0x3 90909090
 .text          0x000000000805b6f8       0x4c ../output/default/pclin-2.6-x86/lib/libcsr_hq.a(csr_hq_free_down.o)
                0x000000000805b6f8                CsrHqFreeDownstreamMessageContents
 .text          0x000000000805b744      0x37b ../output/default/pclin-2.6-x86/lib/libcsr_vm.a(csr_vm_handler.o)
                0x000000000805b8e0                CsrVmInit
                0x000000000805b947                CsrVmHandler
                0x000000000805ba3d                CsrVmDeinit
 *fill*         0x000000000805babf        0x1 90909090
 .text          0x000000000805bac0       0x4c ../output/default/pclin-2.6-x86/lib/libcsr_vm.a(csr_vm_free_down.o)
                0x000000000805bac0                CsrVmFreeDownstreamMessageContents
 .text          0x000000000805bb0c      0x35c ../output/default/pclin-2.6-x86/lib/libcsr_am.a(csr_am_handler.o)
                0x000000000805bbd0                CsrAmInit
                0x000000000805bc23                CsrAmHandler
                0x000000000805bdb7                CsrAmDeinit
                0x000000000805be5b                CsrAmChangeState
 .text          0x000000000805be68     0x3d4c ../output/default/pclin-2.6-x86/lib/libcsr_am.a(csr_am_util.o)
                0x000000000805bf55                CsrAmIssueAmGetChipVer
                0x000000000805bf89                CsrAmIssueGetBuildId
                0x000000000805bfbd                CsrAmIssueBccmdSetSource
                0x000000000805c07d                CsrAmIssueBccmdSetSink
                0x000000000805c13d                CsrAmIssueBccmdCloseSource
                0x000000000805c1b1                CsrAmIssueBccmdCloseSink
                0x000000000805c225                CsrAmIssueBccmdStreamTransStart
                0x000000000805c259                CsrAmIssueBccmdStreamTransComplete
                0x000000000805c28d                CsrAmIssueBccmdStreamConnect
                0x000000000805c327                CsrAmIssueBccmdStreamDisconnect
                0x000000000805c39b                CsrAmIssueBccmdStreamSnkAlias
                0x000000000805c439                CsrAmIssueBccmdStreamSyncEndpoints
                0x000000000805c4d7                CsrAmIssueBccmdConfigStream
                0x000000000805c5a4                CsrAmFreeOperationMessage
                0x000000000805c5e4                CsrAmFreeOperationMessageAndQueuedMessages
                0x000000000805c632                CsrAmGetBcValue
                0x000000000805c664                CsrAmGetBcValue32bit
                0x000000000805c6e6                CsrAmCreateNewStreamElement
                0x000000000805c958                CsrAmFindStreamByAppConnId
                0x000000000805c9a6                CsrAmFindStreamByAppSrcType
                0x000000000805ca24                CsrAmFindStreamByAppSinkType
                0x000000000805caca                CsrAmIsSrcInUse
                0x000000000805cb0c                CsrAmIsSinkInUse
                0x000000000805cb49                CsrAmFindEndPointBySinkId
                0x000000000805cb9f                CsrAmFindEndPointBySinkType
                0x000000000805cc54                CsrAmFindAndRemoveSinkFromSinkList
                0x000000000805ccac                CsrAmCreateLinkOfSinksToAdd
                0x000000000805d136                CsrAmDestroyLinkOfSinksToAdd
                0x000000000805d197                CsrAmFindNewSinkToConfig
                0x000000000805d295                CsrAmStoreNewSinkId
                0x000000000805d301                CsrAmFindAndRemoveConfigItemFromSinkList
                0x000000000805d3b0                CsrAmGetNewSinkToAlloc
                0x000000000805d41c                CsrAmAddNewSinkToStreamSinkList
                0x000000000805d5a2                CsrAmGenerateAppConnId
                0x000000000805d608                CsrAmMarkAllSyncEndpoints
                0x000000000805d63b                CsrAmNeedToSyncEndpoints
                0x000000000805d69b                CsrAmFindAndDoSinkToAlias
                0x000000000805d75e                CsrAmNonAudioGainConfigPresent
                0x000000000805d772                CsrAmConfigDone
                0x000000000805d7eb                CsrAmFreeStreamListAndNewSinkList
                0x000000000805d8ce                CsrAmGetEndpointToConfigBySinkType
                0x000000000805d910                CsrAmGetEndpointToConfig
                0x000000000805db11                CsrAmRestoreSavedMessages
                0x000000000805db7d                CsrAmSrcAllocCfm
                0x000000000805de1a                CsrAmSinkAllocCfm
                0x000000000805e105                CsrAmStreamTransStartCfm
                0x000000000805e44b                CsrAmStreamTransCompleteCfm
                0x000000000805e7b3                CsrAmStreamConnectCfm
                0x000000000805ea0e                CsrAmStreamSyncSidCfm
                0x000000000805eb29                CsrAmStreamAliasAddCfm
                0x000000000805ecc7                CsrAmStreamConfigCfm
                0x000000000805f03f                CsrAmSrcDeallocCfm
                0x000000000805f319                CsrAmGetChipVersionCfm
                0x000000000805f35e                CsrAmGetBuildIdCfm
                0x000000000805f3a9                CsrAmSinkDeallocCfm
                0x000000000805f80c                CsrAmStreamDisconnectCfm
 .text          0x000000000805fbb4      0xf70 ../output/default/pclin-2.6-x86/lib/libcsr_am.a(csr_am_sef.o)
                0x000000000805fbb4                CsrAmInitCfmSend
                0x000000000805fc15                CsrAmAudioPathConnectCfmSend
                0x000000000805fc79                CsrAmAudioPathAddSinkCfmSend
                0x000000000805fcdd                CsrAmAudioPathRemoveSinkCfmSend
                0x000000000805fd41                CsrAmAudioPathConfigCfmSend
                0x000000000805fda5                CsrAmAudioPathReleaseCfmSend
                0x000000000805fe09                CsrAmAudioPathReleaseIndSend
                0x000000000805fe5b                CsrAmSaveMessage
                0x000000000805fea3                CsrAmDiscardMessage
                0x000000000805fec1                CsrAmInitReqHandler
                0x000000000805ff3b                CsrAmInitReqBusyHandler
                0x000000000805ffbd                CsrAmAudioPathConnectReqHandler
                0x0000000008060202                CsrAmAudioPathAddSinkReqHandler
                0x00000000080603b0                CsrAmAudioPathRemoveSinkReqHandler
                0x00000000080604f8                CsrAmAudioPathConfigReqHandler
                0x0000000008060a35                CsrAmAudioPathReleaseReqHandler
 .text          0x0000000008060b24      0x106 ../output/default/pclin-2.6-x86/lib/libcsr_am.a(csr_am_free_down.o)
                0x0000000008060b24                CsrAmFreeDownstreamMessageContents
 *fill*         0x0000000008060c2a        0x2 90909090
 .text          0x0000000008060c2c      0x2b3 ../output/default/pclin-2.6-x86/lib/libcsr_hci.a(csr_hci_handler.o)
                0x0000000008060c2c                CsrHciInit
                0x0000000008060ce4                CsrHciDeinit
                0x0000000008060d8f                CsrHciHandler
 *fill*         0x0000000008060edf        0x1 90909090
 .text          0x0000000008060ee0      0x2c6 ../output/default/pclin-2.6-x86/lib/libcsr_hci.a(csr_hci_lib.o)
                0x0000000008060ee0                CsrHciRegisterEventHandlerReq_struct
                0x0000000008060f14                CsrHciRegisterAclHandlerReq_struct
                0x0000000008060f5a                CsrHciUnregisterAclHandlerReq_struct
                0x0000000008060fa0                CsrHciRegisterScoHandlerReq_struct
                0x0000000008060fe6                CsrHciUnregisterScoHandlerReq_struct
                0x000000000806102c                CsrHciRegisterVendorSpecificEventHandlerReq_struct
                0x0000000008061070                CsrHciUnregisterVendorSpecificEventHandlerReq_struct
                0x00000000080610b4                CsrHciCommandReq_struct
                0x00000000080610f1                CsrHciAclDataReq_struct
                0x000000000806112e                CsrHciScoDataReq_struct
                0x000000000806116b                CsrHciVendorSpecificCommandReq_struct
 *fill*         0x00000000080611a6        0x2 90909090
 .text          0x00000000080611a8      0xcd7 ../output/default/pclin-2.6-x86/lib/libcsr_hci.a(csr_hci_sef.o)
                0x00000000080615f1                CsrHciSendScoData
                0x00000000080616cd                CsrHciTransportCreate
                0x00000000080616f3                CsrHciInstanceRegister
                0x0000000008061700                CsrHciRegisterEventHandlerReqHandler
                0x0000000008061731                CsrHciRegisterAclHandlerReqHandler
                0x00000000080617a9                CsrHciUnregisterAclHandlerReqHandler
                0x000000000806181c                CsrHciRegisterScoHandlerReqHandler
                0x0000000008061877                CsrHciUnregisterScoHandlerReqHandler
                0x00000000080618d2                CsrHciRegisterVendorSpecificEventHandlerReqHandler
                0x000000000806195a                CsrHciUnregisterVendorSpecificEventHandlerReqHandler
                0x00000000080619b5                CsrHciCommandReqHandler
                0x00000000080619f2                CsrHciAclDataReqHandler
                0x0000000008061aae                CsrHciScoDataReqHandler
                0x0000000008061b6a                CsrHciVendorSpecificCommandReqHandler
 *fill*         0x0000000008061e7f        0x1 90909090
 .text          0x0000000008061e80      0x8b6 ../output/default/pclin-2.6-x86/lib/libcsr_hci.a(csr_hci_util.o)
                0x0000000008061e80                CsrHciRegisterHandle
                0x0000000008061ef5                CsrHciUnregisterHandle
                0x0000000008061f7c                CsrHciUnregisterAllHandles
                0x0000000008061fbf                CsrHciSendRegisterEventHandlerCfm
                0x0000000008062000                CsrHciSendRegisterAclHandlerCfm
                0x0000000008062053                CsrHciSendUnregisterAclHandlerCfm
                0x00000000080620a6                CsrHciSendRegisterScoHandlerCfm
                0x00000000080620f9                CsrHciSendUnregisterScoHandlerCfm
                0x000000000806214c                CsrHciSendRegisterVendorSpecificEventHandlerCfm
                0x000000000806219d                CsrHciSendUnregisterVendorSpecificEventHandlerCfm
                0x00000000080621ee                CsrHciSendAclDataInd
                0x0000000008062250                CsrHciSendScoDataInd
                0x00000000080622ac                CsrHciSendEventInd
                0x0000000008062308                CsrHciSendVendorSpecificEventInd
                0x0000000008062362                CsrHciGetHandler
                0x0000000008062398                CsrHciCheckHandlers
                0x00000000080623d2                CsrHciInsertAclHeader
                0x000000000806241f                CsrHciInsertScoHeader
                0x000000000806245c                CsrHciExtractAclHeader
                0x00000000080624a8                CsrHciExtractScoHeader
                0x00000000080624e1                CsrHciSaveMessage
                0x0000000008062513                CsrHciRestoreSavedMessages
                0x0000000008062554                CsrHciDiscardSavedMessages
                0x000000000806259c                CsrHciReassembleVendorSpecificEvents
                0x00000000080626c9                CsrHciSendTmNopInd
 *fill*         0x0000000008062736        0x2 90909090
 .text          0x0000000008062738      0x1ca ../output/default/pclin-2.6-x86/lib/libcsr_hci.a(csr_hci_sco.o)
                0x0000000008062738                CsrHciInitScoHandle
                0x0000000008062774                CsrHciRegisterScoHandle
                0x00000000080627ed                CsrHciDeRegisterScoHandle
                0x000000000806285a                CsrHciLookForScoHandle
 *fill*         0x0000000008062902        0x2 90909090
 .text          0x0000000008062904       0xe3 ../output/default/pclin-2.6-x86/lib/libcsr_hci.a(csr_hci_free_down.o)
                0x0000000008062904                CsrHciFreeDownstreamMessageContents
 *fill*         0x00000000080629e7        0x1 90909090
 .text          0x00000000080629e8       0xd8 ../output/default/pclin-2.6-x86/lib/libcsr_hci.a(csr_hci_free_up.o)
                0x00000000080629e8                CsrHciFreeUpstreamMessageContents
 .text          0x0000000008062ac0       0x4e ../output/default/pclin-2.6-x86/lib/libcsr_hci.a(csr_hci_private_free_up.o)
                0x0000000008062ac0                CsrHciPrivateFreeUpstreamMessageContents
 *fill*         0x0000000008062b0e        0x2 90909090
 .text          0x0000000008062b10      0x250 ../output/default/pclin-2.6-x86/lib/libcsr_bluecore_manager.a(csr_bluecore_manager_handler.o)
                0x0000000008062b10                CsrBluecoreManagerInit
                0x0000000008062b77                CsrBluecoreManagerHandler
                0x0000000008062ce6                CsrBluecoreManagerDeinit
 .text          0x0000000008062d60      0xcc3 ../output/default/pclin-2.6-x86/lib/libcsr_bluecore_manager.a(csr_bluecore_manager_sef.o)
                0x0000000008062f5a                CsrBluecoreManagerTmBluecoreActivateTransportCfmHandler
                0x0000000008063133                CsrBluecoreManagerTmBluecoreDeactivateTransportCfmHandler
                0x0000000008063231                CsrBluecoreManagerTmBluecoreDeactivateTransportIndHandler
                0x0000000008063343                CsrBluecoreManagerAppRegisterCfmHandler
                0x0000000008063362                CsrBluecoreManagerAppTakeControlIndHandler
                0x00000000080633da                CsrBluecoreManagerUiUieCreateCfmHandler
                0x0000000008063985                CsrBluecoreManagerUiEventIndHandler
 *fill*         0x0000000008063a23        0x1 90909090
 .text          0x0000000008063a24      0x9c2 ../output/default/pclin-2.6-x86/lib/libcsr_ethernet_manager.a(csr_ethernet_manager.o)
                0x0000000008063d45                CsrEthernetManagerInit
                0x0000000008063dba                CsrEthernetManagerDeinit
                0x0000000008063de3                CsrEthernetManagerHandler
 *fill*         0x00000000080643e6        0x2 90909090
 .text          0x00000000080643e8      0x297 ../output/default/pclin-2.6-x86/lib/libcsr_tcp_transceiver.a(csr_tcp_transceiver_handler.o)
                0x00000000080643e8                CsrTcpTransceiverInit
                0x0000000008064473                CsrTcpTransceiverHandler
                0x00000000080645b6                CsrTcpTransceiverDeinit
 *fill*         0x000000000806467f        0x1 90909090
 .text          0x0000000008064680     0x222b ../output/default/pclin-2.6-x86/lib/libcsr_tcp_transceiver.a(csr_tcp_transceiver_sef.o)
                0x0000000008064c6c                CsrTcpTransceiverIpSocketTcpNewCfmHandler
                0x0000000008064e27                CsrTcpTransceiverIpSocketOptionsCfmHandler
                0x0000000008064f3b                CsrTcpTransceiverIpSocketTcpBindCfmHandler
                0x0000000008065036                CsrTcpTransceiverIpSocketTcpListenCfmHandler
                0x00000000080651aa                CsrTcpTransceiverIpSocketTcpConnectCfmHandler
                0x000000000806534e                CsrTcpTransceiverIpSocketTcpAcceptIndHandler
                0x00000000080653fc                CsrTcpTransceiverIpSocketTcpDataCfmHandler
                0x0000000008065435                CsrTcpTransceiverIpSocketTcpDataIndHandler
                0x00000000080654d4                CsrTcpTransceiverIpSocketTcpCloseIndHandler
                0x00000000080656e2                CsrTcpTransceiverAppRegisterCfmHandler
                0x0000000008065701                CsrTcpTransceiverAppTakeControlIndHandler
                0x0000000008065779                CsrTcpTransceiverUiUieCreateCfmHandler
                0x0000000008065e6d                CsrTcpTransceiverUiInputdialogGetCfmHandler
                0x000000000806637d                CsrTcpTransceiverUiEventIndHandler
 *fill*         0x00000000080668ab        0x1 90909090
 .text          0x00000000080668ac      0x838 ../bsp/ports/pclin/output/default/pclin-2.6-x86/lib/libcsr_ip.a(csr_ip_handler.o)
                0x00000000080668ac                CsrIpInit
                0x0000000008066940                CsrIpHandler
                0x0000000008066ac5                CsrIpDeinit
 .text          0x00000000080670e4     0x1c1c ../bsp/ports/pclin/output/default/pclin-2.6-x86/lib/libcsr_ip.a(csr_ip_ifconfig_sef.o)
                0x000000000806799b                csrIpIfconfigReadRoute
                0x0000000008067d9c                CsrIpIfconfigRequestDefer
                0x0000000008068bee                csrIpIfconfigDeferredProcess
 .text          0x0000000008068d00      0x471 ../bsp/ports/pclin/output/default/pclin-2.6-x86/lib/libcsr_ip.a(csr_ip_netlink_parser.o)
                0x0000000008068d00                csrIfAddrMsgIndexGet
                0x0000000008068d17                csrIfInfoMsgIndexGet
                0x0000000008068d2e                csrIpIfconfigDevLookup
 *fill*         0x0000000008069171        0x3 90909090
 .text          0x0000000008069174     0x43fb ../bsp/ports/pclin/output/default/pclin-2.6-x86/lib/libcsr_ip.a(csr_ip_socket_sef.o)
                0x0000000008069649                csrIpSocketInstFree
                0x000000000806a2db                csrIpSocketHandleSockets
                0x000000000806a72d                CsrIpSocketDnsResolveNameReqHandler
                0x000000000806a85e                CsrIpSocketUdpNewReqHandler
                0x000000000806aad8                CsrIpSocketUdpBindReqHandler
                0x000000000806ae67                CsrIpSocketUdpDataReqHandler
                0x000000000806b23e                CsrIpSocketUdpCloseReqHandler
                0x000000000806b29c                CsrIpSocketUdpMulticastSubscribeReqHandler
                0x000000000806b532                CsrIpSocketUdpMulticastUnsubscribeReqHandler
                0x000000000806b7c8                CsrIpSocketUdpMulticastInterfaceReqHandler
                0x000000000806b995                CsrIpSocketTcpNewReqHandler
                0x000000000806bbb6                CsrIpSocketTcpBindReqHandler
                0x000000000806bf45                CsrIpSocketTcpListenReqHandler
                0x000000000806c05e                CsrIpSocketTcpConnectReqHandler
                0x000000000806c39e                CsrIpSocketTcpDataReqHandler
                0x000000000806c5a5                CsrIpSocketTcpDataResHandler
                0x000000000806c6c5                CsrIpSocketTcpCloseReqHandler
                0x000000000806c723                CsrIpSocketTcpAbortReqHandler
                0x000000000806c781                CsrIpSocketRawNewReqHandler
                0x000000000806ca23                CsrIpSocketRawBindReqHandler
                0x000000000806cc53                CsrIpSocketRawDataReqHandler
                0x000000000806d018                CsrIpSocketRawCloseReqHandler
                0x000000000806d076                CsrIpSocketOptionsReqHandler
 *fill*         0x000000000806d56f        0x1 90909090
 .text          0x000000000806d570      0xbd1 ../bsp/ports/pclin/output/default/pclin-2.6-x86/lib/libcsr_ip.a(csr_ip_thread.o)
                0x000000000806d570                ipTaskThreadFunction
                0x000000000806da44                CsrIpThreadInit
 *fill*         0x000000000806e141        0x3 90909090
 .text          0x000000000806e144      0x376 ../bsp/ports/pclin/output/default/pclin-2.6-x86/lib/libcsr_ip.a(csr_ip_util.o)
                0x000000000806e144                CsrIpLock
                0x000000000806e162                CsrIpUnlock
                0x000000000806e180                CsrIpCommand
                0x000000000806e1b4                CsrIpFdAdd
                0x000000000806e2a2                CsrIpFdRemove
                0x000000000806e456                CsrIpMessageForward
 *fill*         0x000000000806e4ba        0x2 90909090
 .text          0x000000000806e4bc      0x826 ../bsp/ports/pclin/output/default/pclin-2.6-x86/lib/libcsr_ip.a(csr_ip_ether_sef.o)
                0x000000000806e6bc                csrIpEtherFree
                0x000000000806e6f9                csrIpEtherRemove
                0x000000000806e75d                csrIpEtherHandleEthers
                0x000000000806e853                CsrIpEtherIfAddReqHandler
                0x000000000806e9e3                CsrIpEtherIfRemoveReqHandler
                0x000000000806ea6c                CsrIpEtherIfLinkUpReqHandler
                0x000000000806eb28                CsrIpEtherIfLinkDownReqHandler
                0x000000000806ebe4                CsrIpEtherIfFlowControlPauseReqHandler
                0x000000000806ec63                CsrIpEtherIfFlowControlResumeReqHandler
 *fill*         0x000000000806ece2        0x2 90909090
 .text          0x000000000806ece4       0x1e ../output/default/pclin-2.6-x86/lib/libcsr_ip_ether_lib.a(csr_ip_ether_free_down.o)
                0x000000000806ece4                CsrIpEtherFreeDownstreamMessageContents
 *fill*         0x000000000806ed02        0x2 90909090
 .text          0x000000000806ed04      0x1d1 ../output/default/pclin-2.6-x86/lib/libcsr_ip_ether_lib.a(csr_ip_ether_private_lib.o)
                0x000000000806ed04                CsrIpEtherIfAddCfm_struct
                0x000000000806ed63                CsrIpEtherIfRemoveCfm_struct
                0x000000000806eda0                CsrIpEtherIfLinkUpCfm_struct
                0x000000000806eddd                CsrIpEtherIfLinkDownCfm_struct
                0x000000000806ee1a                CsrIpEtherIfMulticastAddrAddInd_struct
                0x000000000806ee62                CsrIpEtherIfMulticastAddrRemoveInd_struct
                0x000000000806eeaa                CsrIpEtherIfMulticastAddrFlushInd_struct
 *fill*         0x000000000806eed5        0x3 90909090
 .text          0x000000000806eed8       0xd7 ../output/default/pclin-2.6-x86/lib/libcsr_ip_socket_lib.a(csr_ip_socket_free_up.o)
                0x000000000806eed8                CsrIpSocketFreeUpstreamMessageContents
 *fill*         0x000000000806efaf        0x1 90909090
 .text          0x000000000806efb0       0xcd ../output/default/pclin-2.6-x86/lib/libcsr_ip_socket_lib.a(csr_ip_socket_free_down.o)
                0x000000000806efb0                CsrIpSocketFreeDownstreamMessageContents
 *fill*         0x000000000806f07d        0x3 90909090
 .text          0x000000000806f080      0x7cd ../output/default/pclin-2.6-x86/lib/libcsr_ip_socket_lib.a(csr_ip_socket_lib.o)
                0x000000000806f080                CsrIpSocketDnsResolveNameReq_struct
                0x000000000806f0cd                CsrIpSocketUdpNewReq_struct
                0x000000000806f111                CsrIpSocketUdpBindReq_struct
                0x000000000806f19a                CsrIpSocketUdpDataReq_struct
                0x000000000806f23e                CsrIpSocketUdpCloseReq_struct
                0x000000000806f272                CsrIpSocketUdpMulticastSubscribeReq_struct
                0x000000000806f2e0                CsrIpSocketUdpMulticastUnsubscribeReq_struct
                0x000000000806f34e                CsrIpSocketUdpMulticastInterfaceReq_struct
                0x000000000806f39f                CsrIpSocketTcpNewReq_struct
                0x000000000806f3e3                CsrIpSocketTcpBindReq_struct
                0x000000000806f46c                CsrIpSocketTcpListenReq_struct
                0x000000000806f4a0                CsrIpSocketTcpConnectReq_struct
                0x000000000806f529                CsrIpSocketTcpDataReq_struct
                0x000000000806f578                CsrIpSocketTcpDataRes_struct
                0x000000000806f5ac                CsrIpSocketTcpCloseReq_struct
                0x000000000806f5e0                CsrIpSocketTcpAbortReq_struct
                0x000000000806f614                CsrIpSocketRawNewReq_struct
                0x000000000806f668                CsrIpSocketRawBindReq_struct
                0x000000000806f6df                CsrIpSocketRawDataReq_struct
                0x000000000806f771                CsrIpSocketRawCloseReq_struct
                0x000000000806f7a5                CsrIpSocketOptionsReq_struct
 *fill*         0x000000000806f84d        0x3 90909090
 .text          0x000000000806f850      0x796 ../output/default/pclin-2.6-x86/lib/libcsr_ip_socket_lib.a(csr_ip_socket_private_lib.o)
                0x000000000806f850                CsrIpSocketDnsResolveNameCfm_struct
                0x000000000806f8ba                CsrIpSocketUdpNewCfm_struct
                0x000000000806f900                CsrIpSocketUdpBindCfm_struct
                0x000000000806f958                CsrIpSocketUdpDataInd_struct
                0x000000000806f9eb                CsrIpSocketUdpDataCfm_struct
                0x000000000806fa1f                CsrIpSocketUdpMulticastSubscribeCfm_struct
                0x000000000806faaf                CsrIpSocketUdpMulticastUnsubscribeCfm_struct
                0x000000000806fb3f                CsrIpSocketUdpMulticastInterfaceCfm_struct
                0x000000000806fb85                CsrIpSocketTcpNewCfm_struct
                0x000000000806fbcb                CsrIpSocketTcpBindCfm_struct
                0x000000000806fc23                CsrIpSocketTcpListenCfm_struct
                0x000000000806fc69                CsrIpSocketTcpConnectCfm_struct
                0x000000000806fcaf                CsrIpSocketTcpAcceptInd_struct
                0x000000000806fd39                CsrIpSocketTcpDataCfm_struct
                0x000000000806fd7f                CsrIpSocketTcpDataInd_struct
                0x000000000806fdce                CsrIpSocketTcpCloseInd_struct
                0x000000000806fe02                CsrIpSocketRawNewCfm_struct
                0x000000000806fe48                CsrIpSocketRawBindCfm_struct
                0x000000000806fe8e                CsrIpSocketRawDataInd_struct
                0x000000000806ff0a                CsrIpSocketRawDataCfm_struct
                0x000000000806ff3e                CsrIpSocketOptionsCfm_struct
 *fill*         0x000000000806ffe6        0x2 90909090
 .text          0x000000000806ffe8       0x4e ../output/default/pclin-2.6-x86/lib/libcsr_ip_ifconfig_lib.a(csr_ip_ifconfig_free_up.o)
                0x000000000806ffe8                CsrIpIfconfigFreeUpstreamMessageContents
 *fill*         0x0000000008070036        0x2 90909090
 .text          0x0000000008070038       0x1e ../output/default/pclin-2.6-x86/lib/libcsr_ip_ifconfig_lib.a(csr_ip_ifconfig_free_down.o)
                0x0000000008070038                CsrIpIfconfigFreeDownstreamMessageContents
 *fill*         0x0000000008070056        0x2 90909090
 .text          0x0000000008070058      0x36c ../output/default/pclin-2.6-x86/lib/libcsr_ip_ifconfig_lib.a(csr_ip_ifconfig_lib.o)
                0x0000000008070058                CsrIpIfconfigSubscribeReq_struct
                0x000000000807008c                CsrIpIfconfigUnsubscribeReq_struct
                0x00000000080700c0                CsrIpIfconfigUpReq_struct
                0x0000000008070242                CsrIpIfconfigDownReq_struct
                0x000000000807027f                CsrIpIfconfigNatReq_struct
                0x00000000080702cc                CsrIpIfconfigForwardReq_struct
                0x0000000008070310                CsrIpIfconfigArpEntryAddReq_struct
 .text          0x00000000080703c4      0x1d3 ../output/default/pclin-2.6-x86/lib/libcsr_ip_ifconfig_lib.a(csr_ip_ifconfig_private_lib.o)
                0x00000000080703c4                CsrIpIfconfigSubscribeCfm_struct
                0x0000000008070401                CsrIpIfconfigUnsubscribeCfm_struct
                0x0000000008070423                CsrIpIfconfigUpdateInd_struct
                0x0000000008070478                CsrIpIfconfigUpCfm_struct
                0x00000000080704b5                CsrIpIfconfigDownCfm_struct
                0x00000000080704f2                CsrIpIfconfigNatCfm_struct
                0x000000000807052f                CsrIpIfconfigForwardCfm_struct
                0x0000000008070563                CsrIpIfconfigArpEntryAddCfm_struct
 *fill*         0x0000000008070597        0x1 90909090
 .text          0x0000000008070598     0x1ade ../output/default/pclin-2.6-x86/lib/libcsr_dhcp_server_manager.a(csr_dhcp_server_manager.o)
                0x0000000008070598                CsrDhcpServerManagerInit
                0x00000000080706b8                CsrDhcpServerManagerDeinit
                0x0000000008070d96                CsrDhcpServerManagerHandler
 *fill*         0x0000000008072076        0x2 90909090
 .text          0x0000000008072078      0x748 ../output/default/pclin-2.6-x86/lib/libcsr_dhcp_server.a(csr_dhcp_server_handler.o)
                0x000000000807225f                CsrDhcpServerInit
                0x00000000080722c5                CsrDhcpServerHandler
                0x00000000080723e0                CsrDhcpServerDeinit
                0x00000000080724a4                CsrDhcpServerFifoInit
                0x00000000080724bc                CsrDhcpServerFifoQueue
                0x0000000008072516                CsrDhcpServerFifoDequeue
                0x0000000008072576                CsrDhcpServerListAdd
                0x00000000080725d5                CsrDhcpServerTimerAdd
                0x0000000008072703                CsrDhcpServerTimerRemove
                0x000000000807278a                CsrDhcpServerTimerFindFromClient
 .text          0x00000000080727c0      0xfa5 ../output/default/pclin-2.6-x86/lib/libcsr_dhcp_server.a(csr_dhcp_server_sef.o)
                0x0000000008072824                CsrDhcpServerCreateHandler
                0x000000000807299e                CsrDhcpServerDestroyHandler
                0x0000000008072a94                CsrDhcpServerStartHandler
                0x0000000008072b4c                CsrDhcpServerStopHandler
                0x0000000008072c72                CsrDhcpServerLeasesGetHandler
                0x0000000008072d4d                CsrDhcpServerLeasesSetHandler
                0x0000000008072f12                CsrDhcpServerIpSocketUdpNewHandler
                0x00000000080730ac                CsrDhcpServerIpSocketUdpBindHandler
                0x00000000080733b1                CsrDhcpServerIpSocketUdpDataIndHandler
                0x0000000008073448                CsrDhcpServerIpSocketOptionsHandler
                0x00000000080736cd                CsrDhcpServerIpSocketUdpDataHandler
 *fill*         0x0000000008073765        0x3 90909090
 .text          0x0000000008073768     0x33d2 ../output/default/pclin-2.6-x86/lib/libcsr_dhcp_server.a(csr_dhcp_server_util.o)
                0x00000000080737b2                CsrDhcpServerTimerExpired
                0x0000000008074f14                CsrDhcpServerMessageSend
                0x0000000008074fef                CsrDhcpServerNetworkBroadcastAddressRetrieve
                0x0000000008076a06                CsrDhcpServerHandleMessage
 *fill*         0x0000000008076b3a        0x2 90909090
 .text          0x0000000008076b3c       0x4c ../output/default/pclin-2.6-x86/lib/libcsr_dhcp_server_lib.a(csr_dhcp_server_free_down.o)
                0x0000000008076b3c                CsrDhcpServerFreeDownstreamMessageContents
 .text          0x0000000008076b88      0x274 ../output/default/pclin-2.6-x86/lib/libcsr_dhcp_server_lib.a(csr_dhcp_server_lib.o)
                0x0000000008076b88                CsrDhcpServerCreateReq_struct
                0x0000000008076c92                CsrDhcpServerDestroyReq_struct
                0x0000000008076cd5                CsrDhcpServerStartReq_struct
                0x0000000008076d18                CsrDhcpServerStopReq_struct
                0x0000000008076d5b                CsrDhcpServerLeasesGetReq_struct
                0x0000000008076d9e                CsrDhcpServerLeasesSetReq_struct
 .text          0x0000000008076dfc      0x340 ../output/default/pclin-2.6-x86/lib/libcsr_dhcp_server_lib.a(csr_dhcp_server_lib_priv.o)
                0x0000000008076dfc                CsrDhcpServerCreateCfmSend
                0x0000000008076e70                CsrDhcpServerDestroyCfmSend
                0x0000000008076ee4                CsrDhcpServerStartCfmSend
                0x0000000008076f58                CsrDhcpServerStopCfmSend
                0x0000000008076fcc                CsrDhcpServerLeasesGetCfmSend
                0x0000000008077049                CsrDhcpServerLeasesSetCfmSend
                0x00000000080770bd                CsrDhcpServerRogueIpAddressIndSend
 .text          0x000000000807713c      0x2af ../output/default/pclin-2.6-x86/lib/libcsr_tftp.a(csr_tftp_handler.o)
                0x000000000807713c                CsrTftpInit
                0x00000000080771b4                CsrTftpHandler
                0x0000000008077343                CsrTftpDeinit
 *fill*         0x00000000080773eb        0x1 90909090
 .text          0x00000000080773ec     0x2144 ../output/default/pclin-2.6-x86/lib/libcsr_tftp.a(csr_tftp_sef.o)
                0x0000000008077bc5                CsrTftpActivateHandler
                0x0000000008077d11                CsrTftpDeactivateHandler
                0x0000000008077d5d                CsrTftpConnectHandler
                0x0000000008077e24                CsrTftpReadHandler
                0x0000000008077f82                CsrTftpWriteHandler
                0x0000000008078086                CsrTftpIpSocketUdpNewHandler
                0x0000000008078273                CsrTftpIpSocketUdpBindHandler
                0x0000000008078df0                CsrTftpIpSocketUdpDataIndHandler
                0x000000000807901f                CsrTftpIpSocketUdpDataCfmHandler
                0x00000000080791e4                CsrTftpIpSocketUdpNewHandlerDeactivating
                0x0000000008079263                CsrTftpIpSocketUdpBindHandlerDeactivating
                0x00000000080792d6                CsrTftpIpSocketUdpDataIndHandlerDeactivating
                0x00000000080792fe                CsrTftpIpSocketUdpDataCfmHandlerDeactivating
                0x0000000008079379                CsrTftpConnectionInit
                0x0000000008079406                CsrTftpConnectionClientInit
                0x0000000008079476                CsrTftpFifoQueue
                0x00000000080794d0                CsrTftpFifoDequeue
 .text          0x0000000008079530       0x4c ../output/default/pclin-2.6-x86/lib/libcsr_tftp_lib.a(csr_tftp_free_down.o)
                0x0000000008079530                CsrTftpFreeDownstreamMessageContents
 .text          0x000000000807957c      0x25a ../output/default/pclin-2.6-x86/lib/libcsr_tftp_lib.a(csr_tftp_lib_priv.o)
                0x000000000807957c                CsrTftpActivateCfmSend
                0x00000000080795cf                CsrTftpDeactivateCfmSend
                0x0000000008079610                CsrTftpConnectIndSend
                0x00000000080796f8                CsrTftpReadIndSend
                0x0000000008079739                CsrTftpWriteIndSend
                0x0000000008079795                CsrTftpDisconnectIndSend
 *fill*         0x00000000080797d6        0x2 90909090
 .text          0x00000000080797d8      0x29d ../output/default/pclin-2.6-x86/lib/libcsr_tftp_file.a(csr_tftp_file_handler.o)
                0x00000000080797d8                CsrTftpFileInit
                0x0000000008079848                CsrTftpFileHandler
                0x00000000080799f1                CsrTftpFileDeinit
 *fill*         0x0000000008079a75        0x3 90909090
 .text          0x0000000008079a78      0x6a3 ../output/default/pclin-2.6-x86/lib/libcsr_tftp_file.a(csr_tftp_file_sef.o)
                0x0000000008079a78                CsrTftpFileActivateHandler
                0x0000000008079ac6                CsrTftpFileDeactivateHandler
                0x0000000008079acb                CsrTftpFileConnectHandler
                0x0000000008079b91                CsrTftpFileReadHandler
                0x0000000008079bda                CsrTftpFileWriteHandler
                0x0000000008079c3b                CsrTftpFileDisconnectHandler
                0x0000000008079c99                CsrTftpFileFsalSessionCreateHandler
                0x0000000008079d51                CsrTftpFileFsalSessionDestroyHandler
                0x0000000008079d56                CsrTftpFileFsalOpenHandler
                0x0000000008079dcc                CsrTftpFileFsalCloseHandler
                0x0000000008079dd8                CsrTftpFileFsalReadHandler
                0x0000000008079f2d                CsrTftpFileFsalWriteHandler
                0x000000000807a030                CsrTftpFileFsalOpenDisconnectedHandler
                0x000000000807a087                CsrTftpFileFsalReadDisconnectedHandler
                0x000000000807a0e1                CsrTftpFileFsalWriteDisconnectedHandler
 *fill*         0x000000000807a11b        0x1 90909090
 .text          0x000000000807a11c      0x196 ../output/default/pclin-2.6-x86/lib/libcsr_fsal.a(csr_fsal_handler.o)
                0x000000000807a11c                CsrFsalInit
                0x000000000807a157                CsrFsalDeinit
                0x000000000807a1e3                CsrFsalHandler
 *fill*         0x000000000807a2b2        0x2 90909090
 .text          0x000000000807a2b4     0x13e0 ../output/default/pclin-2.6-x86/lib/libcsr_fsal.a(csr_fsal_sef.o)
                0x000000000807b262                CsrFsalSessionCreateReqHandler
                0x000000000807b2db                CsrFsalSessionDestroyReqHandler
                0x000000000807b339                CsrFsalFileOpenReqHandler
                0x000000000807b38a                CsrFsalFileCloseReqHandler
                0x000000000807b3b0                CsrFsalFileSeekReqHandler
                0x000000000807b420                CsrFsalFileReadReqHandler
                0x000000000807b450                CsrFsalFileWriteReqHandler
                0x000000000807b48a                CsrFsalFileTellReqHandler
                0x000000000807b4b0                CsrFsalStatReqHandler
                0x000000000807b4e0                CsrFsalRemoveReqHandler
                0x000000000807b510                CsrFsalRemoveRecursivelyReqHandler
                0x000000000807b540                CsrFsalRenameReqHandler
                0x000000000807b57a                CsrFsalPermissionsSetReqHandler
                0x000000000807b5b8                CsrFsalDirMakeReqHandler
                0x000000000807b5e8                CsrFsalDirChangeReqHandler
                0x000000000807b618                CsrFsalDirFindFirstReqHandler
                0x000000000807b648                CsrFsalDirFindNextReqHandler
                0x000000000807b66e                CsrFsalDirFindCloseReqHandler
 .text          0x000000000807b694      0x34e ../output/default/pclin-2.6-x86/lib/libcsr_fsal.a(csr_fsal_sef_utils.o)
                0x000000000807b694                CsrFsalLookupOpenFlags
                0x000000000807b732                CsrFsalLookupPerms
                0x000000000807b771                CsrFsalFileSize
                0x000000000807b7b0                CsrFsalRemoveRecursively
 *fill*         0x000000000807b9e2        0x2 90909090
 .text          0x000000000807b9e4      0x733 ../output/default/pclin-2.6-x86/lib/libcsr_fsal.a(csr_fsal_utils.o)
                0x000000000807b9e4                CsrFsalFileHandleInit
                0x000000000807ba6d                CsrFsalDirHandleInit
                0x000000000807bcde                CsrFsalGetAppHandleFromSessionId
                0x000000000807bd17                CsrFsalGetAppHandleFromFileHandle
                0x000000000807bd5f                CsrFsalGetAppHandleFromDirHandle
                0x000000000807bda7                CsrFsalGetAppHandleFromSessionIdAndStoreDirHandle
                0x000000000807bdef                CsrFsalGetAppHandleFromSessionIdAndStoreFileHandle
                0x000000000807be37                CsrFsalClearHandleIndexFromSessionId
                0x000000000807bee9                CsrFsalClearFileHandleIndex
                0x000000000807bf52                CsrFsalGetAppHandleFromFileHandleAndClearFileHandleIndex
                0x000000000807bfe3                CsrFsalGetAppHandleFromDirHandleAndClearDirHandleIndex
                0x000000000807c074                CsrFsalReserveNewSessionId
                0x000000000807c0c4                CsrFsalGetSession
 *fill*         0x000000000807c117        0x1 90909090
 .text          0x000000000807c118      0x108 ../output/default/pclin-2.6-x86/lib/libcsr_fsal_lib.a(csr_fsal_free_up.o)
                0x000000000807c118                CsrFsalFreeUpstreamMessageContents
 .text          0x000000000807c220      0x1a7 ../output/default/pclin-2.6-x86/lib/libcsr_fsal_lib.a(csr_fsal_free_down.o)
                0x000000000807c220                CsrFsalFreeDownstreamMessageContents
 *fill*         0x000000000807c3c7        0x1 90909090
 .text          0x000000000807c3c8      0x3d3 ../output/default/pclin-2.6-x86/lib/libcsr_fsal_lib.a(csr_fsal_lib.o)
                0x000000000807c3c8                CsrFsalSessionCreateReq_struct
                0x000000000807c3fc                CsrFsalSessionDestroyReq_struct
                0x000000000807c427                CsrFsalFileOpenReq_struct
                0x000000000807c47f                CsrFsalFileCloseReq_struct
                0x000000000807c4aa                CsrFsalFileSeekReq_struct
                0x000000000807c4ee                CsrFsalFileReadReq_struct
                0x000000000807c522                CsrFsalFileWriteReq_struct
                0x000000000807c55f                CsrFsalFileTellReq_struct
                0x000000000807c58a                CsrFsalStatReq_struct
                0x000000000807c5be                CsrFsalRemoveReq_struct
                0x000000000807c5f2                CsrFsalRemoveRecursivelyReq_struct
                0x000000000807c626                CsrFsalRenameReq_struct
                0x000000000807c663                CsrFsalPermissionsSetReq_struct
                0x000000000807c6a9                CsrFsalDirMakeReq_struct
                0x000000000807c6dd                CsrFsalDirChangeReq_struct
                0x000000000807c711                CsrFsalDirFindFirstReq_struct
                0x000000000807c745                CsrFsalDirFindNextReq_struct
                0x000000000807c770                CsrFsalDirFindCloseReq_struct
 *fill*         0x000000000807c79b        0x1 90909090
 .text          0x000000000807c79c      0x605 ../output/default/pclin-2.6-x86/lib/libcsr_fsal_lib.a(csr_fsal_lib_priv.o)
                0x000000000807c79c                CsrFsalSessionCreateCfm_struct
                0x000000000807c7e2                CsrFsalSessionDestroyCfm_struct
                0x000000000807c81f                CsrFsalFileOpenCfmSend_struct
                0x000000000807c86e                CsrFsalFileCloseCfmSend_struct
                0x000000000807c8ab                CsrFsalFileSeekCfmSend_struct
                0x000000000807c8e8                CsrFsalFileReadCfmSend_struct
                0x000000000807c937                CsrFsalFileWriteCfmSend_struct
                0x000000000807c97d                CsrFsalFileTellCfmSend_struct
                0x000000000807c9c3                CsrFsalStatCfmSend_struct
                0x000000000807ca79                CsrFsalRemoveCfmSend_struct
                0x000000000807cab6                CsrFsalRemoveRecursivelyCfmSend_struct
                0x000000000807caf3                CsrFsalRenameCfmSend_struct
                0x000000000807cb30                CsrFsalPermissionsSetCfmSend_struct
                0x000000000807cb6d                CsrFsalDirMakeCfmSend_struct
                0x000000000807cbaa                CsrFsalDirChangeCfmSend_struct
                0x000000000807cbf0                CsrFsalDirFindFirstCfmSend_struct
                0x000000000807ccae                CsrFsalDirFindNextCfmSend_struct
                0x000000000807cd64                CsrFsalDirFindCloseCfmSend_struct
 *fill*         0x000000000807cda1        0x3 90909090
 .text          0x000000000807cda4      0x525 ../output/default/pclin-2.6-x86/lib/libcsr_list.a(csr_list.o)
                0x000000000807cda4                CsrCmnListInit
                0x000000000807cde1                CsrCmnListDeinit
                0x000000000807ce40                CsrCmnListElementGetFirst
                0x000000000807ce57                CsrCmnListElementGetLast
                0x000000000807ce6f                CsrCmnListElementAddFirst
                0x000000000807ceea                CsrCmnListElementAddLast
                0x000000000807cf67                CsrCmnListElementRemove
                0x000000000807cfe9                CsrCmnListGetFromIndex
                0x000000000807d020                CsrCmnListIterate
                0x000000000807d052                CsrCmnListIterateAllowRemove
                0x000000000807d0aa                CsrCmnListSearch
                0x000000000807d16f                CsrCmnListSort
                0x000000000807d20e                CsrCmnListSearchOffsetUint8
                0x000000000807d24e                CsrCmnListSearchOffsetUint16
                0x000000000807d290                CsrCmnListSearchOffsetUint32
 *fill*         0x000000000807d2c9        0x3 90909090
 .text          0x000000000807d2cc      0x24b ../output/default/pclin-2.6-x86/lib/libcsr_message_queue.a(csr_message_queue.o)
                0x000000000807d2cc                CsrMessageQueuePush
                0x000000000807d3fa                CsrMessageQueueRestore
                0x000000000807d45e                CsrMessageQueuePop
 *fill*         0x000000000807d517        0x1 90909090
 .text          0x000000000807d518       0x4e ../output/default/pclin-2.6-x86/lib/libcsr_formatted_io.a(csr_formatted_io.o)
                0x000000000807d518                CsrSnprintf
 *fill*         0x000000000807d566        0x2 90909090
 .text          0x000000000807d568     0x1298 ../output/default/pclin-2.6-x86/lib/libcsr_unicode.a(csr_utf16.o)
                0x000000000807d568                CsrUint32ToUtf16String
                0x000000000807d631                CsrUtf16StringToUint32
                0x000000000807d6dc                CsrUtf16MemCpy
                0x000000000807d6ff                CsrUtf16ConcatenateTexts
                0x000000000807d81b                CsrUtf16StrLen
                0x000000000807d848                CsrUtf16String2Utf8
                0x000000000807dc52                CsrUtf82Utf16String
                0x000000000807ded0                CsrUtf16StrCpy
                0x000000000807df0e                CsrUtf16StringDuplicate
                0x000000000807df60                CsrUtf16StrICmp
                0x000000000807e013                CsrUtf16StrNICmp
                0x000000000807e0d1                CsrUtf16String2XML
                0x000000000807e283                CsrXML2Utf16String
                0x000000000807e54a                CsrUtf8StrCmp
                0x000000000807e564                CsrUtf8StrNCmp
                0x000000000807e585                CsrUtf8StringLengthInBytes
                0x000000000807e5ab                CsrUtf8StrCpy
                0x000000000807e5c5                CsrUtf8StrTruncate
                0x000000000807e66f                CsrUtf8StrNCpy
                0x000000000807e690                CsrUtf8StrNCpyZero
                0x000000000807e6d9                CsrUtf8StrDup
                0x000000000807e6ec                CsrUtf8StringConcatenateTexts
 .text          0x000000000807e800      0xa1c ../output/default/pclin-2.6-x86/lib/libcsr_mblk.a(csr_mblk.o)
                0x000000000807e800                CsrMblkDestruct
                0x000000000807e84c                CsrMblkDestroy
                0x000000000807e875                CsrMblkReadTail
                0x000000000807e980                CsrMblkDiscardHead
                0x000000000807ea16                CsrMblkDiscardTail
                0x000000000807eab9                CsrMblkCopyToMemory
                0x000000000807ec1b                CsrMblkMap
                0x000000000807eca7                CsrMblkUnmap
                0x000000000807ecc3                CsrMblkGetLength
                0x000000000807ecf0                CsrMblkSetDestructor
                0x000000000807ecfe                CsrMblkIncRefcount
                0x000000000807ed3c                CsrMblkDuplicateRegion
                0x000000000807ee64                CsrMblkSplit
                0x000000000807ef37                CsrMblkCoalesce
                0x000000000807ef87                CsrMblkJoinChain
                0x000000000807efc9                CsrMblkIterateRegion
                0x000000000807f0e0                CsrMblkCoalesceToPmalloc
                0x000000000807f19f                CsrMblkCopy
 .text          0x000000000807f21c      0x1d5 ../output/default/pclin-2.6-x86/lib/libcsr_mblk.a(csr_mblk_duplicate.o)
                0x000000000807f21c                CsrMblkDuplicateCreate
 *fill*         0x000000000807f3f1        0x3 90909090
 .text          0x000000000807f3f4      0x4c5 ../output/default/pclin-2.6-x86/lib/libcsr_mblk.a(csr_mblk_pmalloc.o)
                0x000000000807f3f4                CsrMblkPmallocNew
                0x000000000807f4f0                CsrMblkDataCreate
                0x000000000807f535                CsrMblkMallocCreate
 *fill*         0x000000000807f8b9        0x3 90909090
 .text          0x000000000807f8bc       0xa5 ../output/default/pclin-2.6-x86/lib/libcsr_mblk.a(csr_mblk_read_head.o)
                0x000000000807f8bc                CsrMblkReadHead
 *fill*         0x000000000807f961        0x3 90909090
 .text          0x000000000807f964      0x153 ../output/default/pclin-2.6-x86/lib/libcsr_bcsp.a(csr_abcsp_transport.o)
                0x000000000807fa88                CsrTmBlueCoreBcspInit
                0x000000000807faa4                CsrTmBlueCoreRegisterUartHandleBcsp
 *fill*         0x000000000807fab7        0x1 90909090
 .text          0x000000000807fab8      0x150 ../output/default/pclin-2.6-x86/lib/libcsr_bcsp.a(csr_abcsp_init_c.o)
                0x000000000807fab8                CsrAbcspRegisterUartHandle
                0x000000000807fac5                CsrAbcspInit
                0x000000000807fb8a                CsrAbcspDeinit
 .text          0x000000000807fc08       0x43 ../output/default/pclin-2.6-x86/lib/libcsr_bcsp.a(csr_abcsp_events.o)
                0x000000000807fc08                CsrAbcspEvent
 *fill*         0x000000000807fc4b        0x1 90909090
 .text          0x000000000807fc4c       0xe4 ../output/default/pclin-2.6-x86/lib/libcsr_bcsp.a(csr_abcsp_rd_hl.o)
                0x000000000807fc4c                CsrAbcspTxMsgQueueClean
                0x000000000807fc95                CsrAbcspBgintSend
                0x000000000807fd04                CsrAbcspPumpTxMsgsOut
                0x000000000807fd16                CsrAbcspReqPumpTxMsgs
 .text          0x000000000807fd30      0x2f7 ../output/default/pclin-2.6-x86/lib/libcsr_bcsp.a(csr_abcsp_le.o)
                0x000000000807fd30                CsrAbcspBcspLeInit
                0x000000000807fda5                CsrAbcspBcspLeDeinit
                0x000000000807fdbc                CsrAbcspBcspLeMsgPut
                0x000000000807fde3                CsrAbcspTshyTimedEvent
                0x000000000807fdf7                CsrAbcspTconfTimedEvent
 *fill*         0x0000000008080027        0x1 90909090
 .text          0x0000000008080028      0x6d5 ../output/default/pclin-2.6-x86/lib/libcsr_bcsp.a(csr_abcsp_rx.o)
                0x000000000808038e                CsrAbcspUartInit
                0x00000000080806dd                CsrTmBlueCoreBcspDeliverMsg
 *fill*         0x00000000080806fd        0x3 90909090
 .text          0x0000000008080700      0xb52 ../output/default/pclin-2.6-x86/lib/libcsr_bcsp.a(csr_abcsp_txmsg.o)
                0x0000000008080700                CsrAbcspTxMsgInit
                0x000000000808077a                CsrAbcspTxMsgDeinit
                0x0000000008080825                CsrAbcspMsgSend
                0x00000000080811de                CsrAbcspPumpTxMsgs
                0x00000000080811f6                CsrAbcspBcspTimedEvent
 *fill*         0x0000000008081252        0x2 90909090
 .text          0x0000000008081254       0xa9 ../output/default/pclin-2.6-x86/lib/libcsr_bcsp.a(csr_abcsp_tx_rx_msg_intf.o)
                0x0000000008081254                CsrAbcspRxMsgDestroy
                0x0000000008081259                CsrAbcspTxMsgInitRead
                0x0000000008081271                CsrAbcspTxMsgLength
                0x0000000008081285                CsrAbcspTxMsgBufGet
                0x00000000080812c3                CsrAbcspTxMsgTaken
                0x00000000080812e2                CsrAbcspTxMsgDone
 *fill*         0x00000000080812fd        0x3 90909090
 .text          0x0000000008081300      0x317 ../output/default/pclin-2.6-x86/lib/libcsr_bcsp.a(csr_abcsp_txslip.o)
                0x0000000008081300                CsrAbcspTxSlipInit
                0x0000000008081375                CsrAbcspTxSlipMsgDelim
                0x000000000808156f                CsrAbcspTxSlipSendBuf
                0x00000000080815d5                CsrAbcspTxSlipFlush
 *fill*         0x0000000008081617        0x1 90909090
 .text          0x0000000008081618      0x218 ../output/default/pclin-2.6-x86/lib/libcsr_bcsp.a(csr_abcsp_timers.o)
                0x0000000008081618                CsrAbcspStartBcspTimer
                0x00000000080816dd                CsrAbcspStartTshyTimer
                0x0000000008081713                CsrAbcspStartTconfTimer
                0x0000000008081749                CsrAbcspCancelBcspTimer
                0x0000000008081778                CsrAbcspCancelTshyTimer
                0x00000000080817a7                CsrAbcspCancelTconfTimer
 .text          0x0000000008081830       0x3f ../output/default/pclin-2.6-x86/lib/libcsr_bcsp.a(csr_abcsp_tx_handle.o)
                0x0000000008081830                CsrAbcspUartTxBufGet
                0x000000000808183a                CsrAbcspUartBytesSend
 *fill*         0x000000000808186f        0x1 90909090
 .text          0x0000000008081870      0x12d ../output/default/pclin-2.6-x86/lib/libcsr_bcsp.a(csr_abcsp_crc.o)
                0x0000000008081870                CsrAbcspCrcInit
                0x000000000808187d                CsrAbcspCrcUpdate
                0x00000000080818da                CsrAbcspCrcReverse
                0x0000000008081962                CsrAbcspCrcBlock
 *fill*         0x000000000808199d        0x3 90909090
 .text          0x00000000080819a0      0x1ac ../output/default/pclin-2.6-x86/lib/libcsr_h4ds.a(csr_h4ds_transport.o)
                0x0000000008081b1d                CsrTmBlueCoreH4dsInit
                0x0000000008081b39                CsrTmBlueCoreRegisterUartHandleH4ds
 .text          0x0000000008081b4c      0x4b6 ../output/default/pclin-2.6-x86/lib/libcsr_h4ds.a(csr_h4ds_initialize.o)
                0x0000000008081b4c                CsrH4dsRegisterUartHandle
                0x0000000008081be9                CsrH4DSInitialize
                0x0000000008081d59                CsrH4DSDeinitialize
 *fill*         0x0000000008082002        0x2 90909090
 .text          0x0000000008082004       0xa2 ../output/default/pclin-2.6-x86/lib/libcsr_h4ds.a(csr_h4ds_pump_msg.o)
                0x0000000008082004                CsrH4DSMsgPump
                0x0000000008082065                CsrH4DSPumpTxMsgsReq
                0x000000000808208a                CsrH4PumpTxReq
 *fill*         0x00000000080820a6        0x2 90909090
 .text          0x00000000080820a8       0x39 ../output/default/pclin-2.6-x86/lib/libcsr_h4ds.a(csr_h4ds_init.o)
                0x00000000080820a8                CsrH4DSInit
 *fill*         0x00000000080820e1        0x3 90909090
 .text          0x00000000080820e4      0x251 ../output/default/pclin-2.6-x86/lib/libcsr_h4ds.a(csr_h4ds_le.o)
                0x00000000080820e4                CsrH4DSLeInit
                0x000000000808210e                CsrH4DSLeFsm
                0x0000000008082222                CsrH4DSLeTxChoked
                0x0000000008082233                CsrH4DSLeRxChoked
                0x000000000808225a                CsrH4DSLePause
                0x000000000808226e                CsrH4DSLeUnpause
                0x00000000080822c9                CsrH4DSTsyncTimedEvent
                0x00000000080822ff                CsrH4DSTconfTimedEvent
 *fill*         0x0000000008082335        0x3 90909090
 .text          0x0000000008082338      0x666 ../output/default/pclin-2.6-x86/lib/libcsr_h4ds.a(csr_h4ds_tx.o)
                0x0000000008082338                CsrH4DSTxInit
                0x0000000008082366                CsrH4DSTxMsgFrag
                0x00000000080823f9                CsrH4DSTxPump
                0x00000000080826a1                CsrH4DSReqTxLeSync
                0x00000000080826bd                CsrH4DSReqTxLeSack
                0x00000000080826d9                CsrH4DSReqTxLeConf
                0x00000000080826f5                CsrH4DSReqTxLeCack
                0x0000000008082711                CsrH4DSReqTxDsWu
                0x0000000008082725                CsrH4DSReqTxDsIa
                0x0000000008082739                CsrH4DSReqTxDsYms
                0x000000000808274d                CsrH4DsTxPathClear
 *fill*         0x000000000808299e        0x2 90909090
 .text          0x00000000080829a0      0x4af ../output/default/pclin-2.6-x86/lib/libcsr_h4ds.a(csr_h4ds_ds.o)
                0x00000000080829a0                CsrH4DSFsmInit
                0x00000000080829be                CsrH4DSHlTxMsgAvail
                0x00000000080829d2                CsrH4DSWuMsgRxed
                0x00000000080829e6                CsrH4DSIaMsgRxed
                0x00000000080829fa                CsrH4DSYmsMsgRxed
                0x0000000008082a0e                CsrH4DSTwuTimedEvent
                0x0000000008082a22                CsrH4DSTflushTimedEvent
                0x0000000008082a36                CsrH4DSUartIdleTimedEvent
                0x0000000008082a4a                CsrH4DSAlertRxUartActivity
                0x0000000008082a5e                CsrH4DSAlertTxBufferEmpty
                0x0000000008082a84                CsrH4DSTxPumpCalled
                0x0000000008082def                CsrH4DSUartActive
                0x0000000008082dfb                CsrH4DSCanTransmit
                0x0000000008082e20                CsrH4DSCanReceive
 *fill*         0x0000000008082e4f        0x1 90909090
 .text          0x0000000008082e50      0x2af ../output/default/pclin-2.6-x86/lib/libcsr_h4ds.a(csr_h4ds_rx.o)
                0x0000000008082e50                CsrH4DSRxInit
                0x0000000008082e5c                CsrH4DSUartDeliverbytes
 *fill*         0x00000000080830ff        0x1 90909090
 .text          0x0000000008083100       0x42 ../output/default/pclin-2.6-x86/lib/libcsr_h4ds.a(csr_h4ds_pump.o)
                0x0000000008083100                CsrH4DSPumpInit
                0x000000000808310c                CsrH4DSPump
                0x0000000008083120                CsrH4DSPumpTxReq
 *fill*         0x0000000008083142        0x2 90909090
 .text          0x0000000008083144       0x30 ../output/default/pclin-2.6-x86/lib/libcsr_h4ds.a(csr_h4_events.o)
                0x0000000008083144                CsrH4Event
 .text          0x0000000008083174       0x1a ../output/default/pclin-2.6-x86/lib/libcsr_h4ds.a(csr_h4_int_handle.o)
                0x0000000008083174                CsrH4PumpTxMsgsReq
 *fill*         0x000000000808318e        0x2 90909090
 .text          0x0000000008083190      0x408 ../output/default/pclin-2.6-x86/lib/libcsr_h4ds.a(csr_h4_tx.o)
                0x0000000008083216                CsrH4MsgSend
                0x0000000008083584                CsrH4TxMsgsPump
 .text          0x0000000008083598       0xb8 ../output/default/pclin-2.6-x86/lib/libcsr_h4ds.a(csr_h4_rx.o)
                0x0000000008083598                CsrH4RxMsgPut
                0x0000000008083625                CsrH4RxMsgFree
 .text          0x0000000008083650       0x6c ../output/default/pclin-2.6-x86/lib/libcsr_h4ds.a(csr_h4ds_event.o)
                0x0000000008083650                CsrH4DSEvent
                0x0000000008083698                CsrH4DSPanic
 .text          0x00000000080836bc      0x28f ../output/default/pclin-2.6-x86/lib/libcsr_h4ds.a(csr_h4ds_timers.o)
                0x0000000008083752                CsrH4DSCancelTsyncTimer
                0x0000000008083781                CsrH4DSStartTsyncTimer
                0x00000000080837b7                CsrH4DSCancelTconfTimer
                0x00000000080837e6                CsrH4DSStartTconfTimer
                0x000000000808381c                CsrH4DSCancelTwuTimer
                0x000000000808384b                CsrH4DSStartTwuTimer
                0x0000000008083881                CsrH4DSCancelTflushTimer
                0x00000000080838b0                CsrH4DSStartTflushTimer
                0x00000000080838e6                CsrH4DSCancelUartIdleTimer
                0x0000000008083915                CsrH4DSStartUartIdleTimer
 *fill*         0x000000000808394b        0x1 90909090
 .text          0x000000000808394c      0x7ca ../output/default/pclin-2.6-x86/lib/libcsr_h4ds.a(csr_h4ds_low_level_transport.o)
                0x000000000808396a                CsrH4DSAlertArmRxUartActivity
                0x0000000008083976                CsrH4DSAlertCancelRxUartActivity
                0x0000000008083982                CsrH4DSAlertArmTxBufferEmpty
                0x00000000080839cb                CsrH4DSAlertCancelTxBufferEmpty
                0x0000000008083a03                CsrH4DSUartBuffersEmpty
                0x0000000008083d93                CsrH4DSLowLevelPacketReassembly
 *fill*         0x0000000008084116        0x2 90909090
 .text          0x0000000008084118       0x2d ../output/default/pclin-2.6-x86/lib/libcsr_h4ds.a(csr_h4ds_tx_handle.o)
                0x0000000008084118                CsrH4DSUartBytesSend
 *fill*         0x0000000008084145        0x3 90909090
 .text          0x0000000008084148        0x0 ../output/default/pclin-2.6-x86/lib/libcsr_h4ds.a(csr_h4ds_msgs.o)
 .text          0x0000000008084148      0x1d6 ../output/default/pclin-2.6-x86/lib/libcsr_h4ds.a(csr_h4ds_scanner.o)
                0x0000000008084148                CsrH4DSRxInitMatchMsg
                0x000000000808415b                CsrH4DSRxMatchMsg
 *fill*         0x000000000808431e        0x2 90909090
 .text          0x0000000008084320      0x186 ../output/default/pclin-2.6-x86/lib/libcsr_queue_lib.a(csr_queue_lib.o)
                0x0000000008084320                CsrQueueMsgAdd
                0x000000000808435e                CsrQueueMsgPop
                0x000000000808438b                CsrQueueMake
                0x000000000808441b                CsrQueueMsgTake
                0x000000000808442e                CsrQueueDestroy
                0x000000000808445c                CsrQueueMsgStore
                0x000000000808447f                CsrQueueLength
 *fill*         0x00000000080844a6        0x2 90909090
 .text          0x00000000080844a8      0xeb9 ../bsp/ports/pclin/output/default/pclin-2.6-x86/lib/libcsr_util.a(csr_util.o)
                0x00000000080844a8                CsrBitCountSparse
                0x00000000080844cd                CsrBitCountDense
                0x00000000080844f5                CsrHexStrToUint8
                0x0000000008084762                CsrHexStrToUint16
                0x00000000080849d8                CsrHexStrToUint32
                0x0000000008084c50                CsrPow
                0x0000000008084c8d                CsrIntToBase10
                0x0000000008084d87                CsrUInt16ToHex
                0x0000000008084df0                CsrUInt32ToHex
                0x0000000008084e4c                CsrMemCpy
                0x0000000008084e6d                CsrMemSet
                0x0000000008084e95                CsrMemMove
                0x0000000008084eb6                CsrMemCmp
                0x0000000008084ed7                CsrMemDup
                0x0000000008084f16                CsrStrCpy
                0x0000000008084f30                CsrStrNCpy
                0x0000000008084f51                CsrStrCat
                0x0000000008084f6b                CsrStrNCat
                0x0000000008084f8c                CsrStrStr
                0x0000000008084fa6                CsrStrLen
                0x0000000008084fd2                CsrStrCmp
                0x0000000008084fec                CsrStrNCmp
                0x000000000808500d                CsrStrChr
                0x000000000808502e                CsrVsnprintf
                0x0000000008085056                CsrStrNCpyZero
                0x0000000008085089                CsrStrToInt
                0x0000000008085104                CsrStrDup
                0x0000000008085154                CsrStrNICmp
                0x00000000080852ae                CsrGetBaseName
                0x0000000008085320                CsrIsSpace
 *fill*         0x0000000008085361        0x3 90909090
 .text          0x0000000008085364       0x61 ../bsp/ports/pclin/output/default/pclin-2.6-x86/lib/libcsr_pmem.a(csr_pmem.o)
                0x0000000008085364                CsrPmemInit
                0x0000000008085369                CsrPmemDeinit
                0x000000000808536e                CsrPmemAlloc
                0x00000000080853a9                CsrPmemFree
 *fill*         0x00000000080853c5        0x3 90909090
 .text          0x00000000080853c8      0x17f ../bsp/ports/pclin/output/default/pclin-2.6-x86/lib/libcsr_time.a(csr_time.o)
                0x00000000080853c8                CsrTimeGet
                0x0000000008085462                CsrTimeUtcGet
 *fill*         0x0000000008085547        0x1 90909090
 .text          0x0000000008085548       0x54 ../bsp/ports/pclin/output/default/pclin-2.6-x86/lib/libcsr_panic.a(csr_panic.o)
                0x0000000008085548                CsrPanicInit
                0x0000000008085555                CsrPanic
 .text          0x000000000808559c      0xc9d ../bsp/ports/pclin/output/default/pclin-2.6-x86/lib/libcsr_ser_com.a(csr_serial_com.o)
                0x0000000008085c86                CsrUartDrvStart
                0x0000000008085e04                CsrUartDrvStop
                0x0000000008085ea5                CsrUartDrvGetTxSpace
                0x0000000008085eaf                CsrUartDrvTx
                0x0000000008085ef9                CsrUartDrvGetRxAvailable
                0x0000000008085f29                CsrUartDrvRx
                0x0000000008086051                CsrUartDrvLowLevelTransportTxBufLevel
                0x000000000808605b                CsrUartDrvLowLevelTransportRx
                0x0000000008086146                CsrUartDrvGetBaudrate
                0x0000000008086150                CsrUartDrvRegister
                0x0000000008086171                CsrUartDrvInitialise
                0x0000000008086225                CsrUartDrvDeinitialise
                0x0000000008086231                CsrUartDrvBaudrateActualGet
 *fill*         0x0000000008086239        0x3 90909090
 .text          0x000000000808623c      0x795 ../bsp/ports/pclin/output/default/pclin-2.6-x86/lib/libcsr_usb_com.a(csr_usb_com.o)
                0x000000000808623c                CsrUsbDrvRx
                0x0000000008086551                CsrUsbDrvTx
                0x00000000080865a4                CsrUsbDrvStop
                0x00000000080866ae                CsrUsbDrvWarmReset
                0x0000000008086769                CsrUsbDrvStart
                0x000000000808697b                CsrUsbDrvEnterDFU
                0x00000000080869b0                CsrUsbDrvConfigure
 *fill*         0x00000000080869d1        0x3 90909090
 .text          0x00000000080869d4      0x57b ../bsp/ports/pclin/output/default/pclin-2.6-x86/lib/libcsr_framework_ext.a(csr_framework_ext.o)
                0x00000000080869d4                CsrEventCreate
                0x0000000008086a97                CsrEventWait
                0x0000000008086c16                CsrEventSet
                0x0000000008086c68                CsrEventDestroy
                0x0000000008086c84                CsrMutexCreate
                0x0000000008086cbc                CsrMutexLock
                0x0000000008086ce1                CsrMutexUnlock
                0x0000000008086d06                CsrMutexDestroy
                0x0000000008086d22                CsrGlobalMutexLock
                0x0000000008086d36                CsrGlobalMutexUnlock
                0x0000000008086d4a                CsrThreadCreate
                0x0000000008086e02                CsrThreadGetHandle
                0x0000000008086e26                CsrThreadEqual
                0x0000000008086e67                CsrThreadSleep
                0x0000000008086ec5                CsrMemAlloc
                0x0000000008086ede                CsrMemCalloc
                0x0000000008086efe                CsrMemFree
                0x0000000008086f1a                CsrMemAllocDma
                0x0000000008086f33                CsrMemFreeDma
 *fill*         0x0000000008086f4f        0x1 90909090
 .text          0x0000000008086f50      0xf1d ../bsp/ports/pclin/output/default/pclin-2.6-x86/lib/libcsr_fs.a(csr_posix_filesystem.o)
                0x00000000080870f4                CsrFileOpen
                0x00000000080871ca                CsrFileClose
                0x00000000080871fd                CsrFileWrite
                0x0000000008087269                CsrFileRead
                0x00000000080872d1                CsrFileSeek
                0x0000000008087356                CsrFileFlush
                0x0000000008087399                CsrFileSetEndOfFile
                0x00000000080873f5                CsrFileSetPerms
                0x000000000808744d                CsrFileRemove
                0x000000000808749b                CsrFileRename
                0x00000000080874f0                CsrFileTell
                0x0000000008087705                CsrDirGetCurrentWorkingDir
                0x000000000808777d                CsrDirStat
                0x00000000080877f9                CsrDirMake
                0x000000000808784f                CsrDirRemove
                0x000000000808789d                CsrDirChange
                0x0000000008087b52                CsrDirFindFirst
                0x0000000008087df9                CsrDirFindNext
                0x0000000008087e26                CsrDirFindClose
 *fill*         0x0000000008087e6d        0x3 90909090
 .text          0x0000000008087e70      0x1ca ../output/default/pclin-2.6-x86/lib/libcsr_usb.a(csr_usb_transport.o)
                0x0000000008087ff6                CsrTmBlueCoreUsbDeliverMsg
                0x000000000808801e                CsrTmBlueCoreUsbInit
 *fill*         0x000000000808803a        0x2 90909090
 .text          0x000000000808803c      0xa00 ../output/default/pclin-2.6-x86/lib/libcsr_ui.a(csr_ui_lib.o)
                0x000000000808803c                CsrUiUieCreateReq_struct
                0x0000000008088082                CsrUiMenuSetReq_struct
                0x00000000080880d1                CsrUiMenuGetReq_struct
                0x0000000008088117                CsrUiMenuAdditemReq_struct
                0x00000000080881f2                CsrUiMenuRemoveitemReq_struct
                0x0000000008088238                CsrUiMenuRemoveallitemsReq_struct
                0x000000000808826c                CsrUiMenuSetitemReq_struct
                0x0000000008088335                CsrUiMenuGetitemReq_struct
                0x000000000808838d                CsrUiMenuSetcursorReq_struct
                0x00000000080883d3                CsrUiMenuGetcursorReq_struct
                0x0000000008088419                CsrUiEventSetReq_struct
                0x0000000008088471                CsrUiEventGetReq_struct
                0x00000000080884b7                CsrUiDialogSetReq_struct
                0x000000000808855e                CsrUiDialogGetReq_struct
                0x00000000080885a4                CsrUiInputdialogSetReq_struct
                0x000000000808869a                CsrUiInputdialogGetReq_struct
                0x00000000080886e0                CsrUiIdlescreenSetReq_struct
                0x000000000808879b                CsrUiIdlescreenGetReq_struct
                0x00000000080887e1                CsrUiUieShowReq_struct
                0x0000000008088850                CsrUiUieHideReq_struct
                0x0000000008088884                CsrUiDisplaySetinputmodeReq_struct
                0x00000000080888ca                CsrUiDisplayGethandleReq_struct
                0x00000000080888fe                CsrUiStatusBatterySetReq_struct
                0x0000000008088930                CsrUiStatusRadiometerSetReq_struct
                0x0000000008088962                CsrUiStatusHeadsetSetReq_struct
                0x00000000080889a4                CsrUiStatusBluetoothSetReq_struct
                0x00000000080889d6                CsrUiStatusWifiSetReq_struct
                0x0000000008088a08                CsrUiUieDestroyReq_struct
 .text          0x0000000008088a3c      0x17b ../output/default/pclin-2.6-x86/lib/libcsr_ui.a(csr_ui_free_up.o)
                0x0000000008088a3c                CsrUiFreeUpstreamMessageContents
 *fill*         0x0000000008088bb7        0x1 90909090
 .text          0x0000000008088bb8      0x344 ../output/default/pclin-2.6-x86/lib/libcsr_app.a(csr_app_lib.o)
                0x0000000008088bb8                CsrAppRegisterReq_struct
                0x0000000008088c37                CsrAppBacklogReqSend2
                0x0000000008088da1                CsrAppBacklogReqSend
 .text          0x0000000008088efc      0x18c ../output/default/pclin-2.6-x86/lib/libcsr_random.a(csr_random.o)
                0x0000000008088efc                CsrRandomSeed
                0x0000000008088fcc                CsrRandom
 .text          0x0000000008089088       0x68 ../output/default/pclin-2.6-x86/lib/libcsr_tm_bluecore.a(csr_tm_bluecore_lib.o)
                0x0000000008089088                CsrTmBlueCoreActivateTransportReq_struct
                0x00000000080890bc                CsrTmBlueCoreDeactivateTransportReq_struct
 .text          0x00000000080890f0       0x44 ../output/default/pclin-2.6-x86/lib/libcsr_tm_bluecore.a(csr_tm_bluecore_private_lib.o)
                0x00000000080890f0                CsrTmBluecoreResetInd_struct
                0x0000000008089112                CsrTmBluecorePanicInd_struct
 .text          0x0000000008089134       0x77 ../output/default/pclin-2.6-x86/lib/libcsr_tftp_lib.a(csr_tftp_free_up.o)
                0x0000000008089134                CsrTftpFreeUpstreamMessageContents
 *fill*         0x00000000080891ab        0x1 90909090
 .text          0x00000000080891ac      0x14c ../output/default/pclin-2.6-x86/lib/libcsr_tftp_lib.a(csr_tftp_lib.o)
                0x00000000080891ac                CsrTftpActivateReq_struct
                0x000000000808920d                CsrTftpDeactivateReq_struct
                0x0000000008089241                CsrTftpConnectRes_struct
                0x0000000008089275                CsrTftpReadRes_struct
                0x00000000080892c4                CsrTftpWriteRes_struct
 *fill*         0x00000000080892f8        0x8 90909090
 .text          0x0000000008089300       0x72 /usr/lib/i386-linux-gnu/libc_nonshared.a(elf-init.oS)
                0x0000000008089300                __libc_csu_init
                0x0000000008089370                __libc_csu_fini
 .text.__i686.get_pc_thunk.bx
                0x0000000008089372        0x4 /usr/lib/i386-linux-gnu/libc_nonshared.a(elf-init.oS)
                0x0000000008089372                __i686.get_pc_thunk.bx
 *fill*         0x0000000008089376        0xa 90909090
 .text          0x0000000008089380       0x30 /usr/lib/i386-linux-gnu/libc_nonshared.a(stat.oS)
                0x0000000008089380                __stat
                0x0000000008089380                stat
 .text          0x00000000080893b0       0x2a /usr/lib/gcc/i686-linux-gnu/4.6/crtend.o
 *fill*         0x00000000080893da        0x2 90909090
 .text          0x00000000080893dc        0x0 /usr/lib/gcc/i686-linux-gnu/4.6/../../../i386-linux-gnu/crtn.o
 *(.gnu.warning)

.fini           0x00000000080893dc       0x1a
 *(.fini)
 .fini          0x00000000080893dc       0x10 /usr/lib/gcc/i686-linux-gnu/4.6/../../../i386-linux-gnu/crti.o
                0x00000000080893dc                _fini
 .fini          0x00000000080893ec        0x5 /usr/lib/gcc/i686-linux-gnu/4.6/crtbegin.o
 .fini          0x00000000080893f1        0x5 /usr/lib/gcc/i686-linux-gnu/4.6/../../../i386-linux-gnu/crtn.o
                0x00000000080893f6                PROVIDE (__etext, .)
                0x00000000080893f6                PROVIDE (_etext, .)
                0x00000000080893f6                PROVIDE (etext, .)

.rodata         0x0000000008089400    0x38658
 *(.rodata .rodata.* .gnu.linkonce.r.*)
 .rodata        0x0000000008089400        0x4 /usr/lib/gcc/i686-linux-gnu/4.6/../../../i386-linux-gnu/crt1.o
                0x0000000008089400                _fp_hw
 .rodata.cst4   0x0000000008089404        0x4 /usr/lib/gcc/i686-linux-gnu/4.6/../../../i386-linux-gnu/crt1.o
                0x0000000008089404                _IO_stdin_used
 .rodata        0x0000000008089408       0xba output/default/pclin-2.6-x86/obj/csr_tasks.o
 *fill*         0x00000000080894c2       0x1e 00
 .rodata        0x00000000080894e0       0x90 output/default/pclin-2.6-x86/obj/bootstrap/csr_bootstrap_specific_string_based.o
 *fill*         0x0000000008089570       0x10 00
 .rodata        0x0000000008089580      0x15c output/default/pclin-2.6-x86/obj/bootstrap/psr/pb-101r2_7558_uart.o
                0x0000000008089580                bootstrap_patch_string_pb_101r2_7558_uart_psr
 *fill*         0x00000000080896dc        0x4 00
 .rodata        0x00000000080896e0      0x600 output/default/pclin-2.6-x86/obj/bootstrap/psr/pb-14r2_3164.o
                0x00000000080896e0                bootstrap_patch_string_pb_14r2_3164_psr
 .rodata        0x0000000008089ce0      0x509 output/default/pclin-2.6-x86/obj/bootstrap/psr/pb-22r14_4363.o
                0x0000000008089ce0                bootstrap_patch_string_pb_22r14_4363_psr
 *fill*         0x000000000808a1e9       0x17 00
 .rodata        0x000000000808a200     0x1948 output/default/pclin-2.6-x86/obj/bootstrap/psr/pb-26r17_4698.o
                0x000000000808a200                bootstrap_patch_string_pb_26r17_4698_psr
 *fill*         0x000000000808bb48       0x18 00
 .rodata        0x000000000808bb60      0xea9 output/default/pclin-2.6-x86/obj/bootstrap/psr/pb-27r20_4841.o
                0x000000000808bb60                bootstrap_patch_string_pb_27r20_4841_psr
 *fill*         0x000000000808ca09       0x17 00
 .rodata        0x000000000808ca20       0xf3 output/default/pclin-2.6-x86/obj/bootstrap/psr/pb-28r2_4839.o
                0x000000000808ca20                bootstrap_patch_string_pb_28r2_4839_psr
 *fill*         0x000000000808cb13        0xd 00
 .rodata        0x000000000808cb20      0x6c0 output/default/pclin-2.6-x86/obj/bootstrap/psr/pb-2r17_1958.o
                0x000000000808cb20                bootstrap_patch_string_pb_2r17_1958_psr
 .rodata        0x000000000808d1e0       0xb3 output/default/pclin-2.6-x86/obj/bootstrap/psr/pb-49r3_5892.o
                0x000000000808d1e0                bootstrap_patch_string_pb_49r3_5892_psr
 *fill*         0x000000000808d293        0xd 00
 .rodata        0x000000000808d2a0     0x19b8 output/default/pclin-2.6-x86/obj/bootstrap/psr/pb-51r22_5985_bga.o
                0x000000000808d2a0                bootstrap_patch_string_pb_51r22_5985_bga_psr
 *fill*         0x000000000808ec58        0x8 00
 .rodata        0x000000000808ec60     0x19a2 output/default/pclin-2.6-x86/obj/bootstrap/psr/pb-51r22_5985_csp0p4.o
                0x000000000808ec60                bootstrap_patch_string_pb_51r22_5985_csp0p4_psr
 *fill*         0x0000000008090602       0x1e 00
 .rodata        0x0000000008090620     0x1a0a output/default/pclin-2.6-x86/obj/bootstrap/psr/pb-51r22_5985_csp0p5.o
                0x0000000008090620                bootstrap_patch_string_pb_51r22_5985_csp0p5_psr
 *fill*         0x000000000809202a       0x16 00
 .rodata        0x0000000008092040     0x1b72 output/default/pclin-2.6-x86/obj/bootstrap/psr/pb-51r26_5985_bga.o
                0x0000000008092040                bootstrap_patch_string_pb_51r26_5985_bga_psr
 *fill*         0x0000000008093bb2        0xe 00
 .rodata        0x0000000008093bc0     0x1b5c output/default/pclin-2.6-x86/obj/bootstrap/psr/pb-51r26_5985_csp0p4.o
                0x0000000008093bc0                bootstrap_patch_string_pb_51r26_5985_csp0p4_psr
 *fill*         0x000000000809571c        0x4 00
 .rodata        0x0000000008095720     0x1bc4 output/default/pclin-2.6-x86/obj/bootstrap/psr/pb-51r26_5985_csp0p5.o
                0x0000000008095720                bootstrap_patch_string_pb_51r26_5985_csp0p5_psr
 *fill*         0x00000000080972e4       0x1c 00
 .rodata        0x0000000008097300      0x4d8 output/default/pclin-2.6-x86/obj/bootstrap/psr/pb-53r7_6247_csp.o
                0x0000000008097300                bootstrap_patch_string_pb_53r7_6247_csp_psr
 *fill*         0x00000000080977d8        0x8 00
 .rodata        0x00000000080977e0      0x4d8 output/default/pclin-2.6-x86/obj/bootstrap/psr/pb-53r7_6247_qfn.o
                0x00000000080977e0                bootstrap_patch_string_pb_53r7_6247_qfn_psr
 *fill*         0x0000000008097cb8        0x8 00
 .rodata        0x0000000008097cc0      0x489 output/default/pclin-2.6-x86/obj/bootstrap/psr/pb-75_6455_csp.o
                0x0000000008097cc0                bootstrap_patch_string_pb_75_6455_csp_psr
 *fill*         0x0000000008098149       0x17 00
 .rodata        0x0000000008098160       0xb0 output/default/pclin-2.6-x86/obj/bootstrap/psr/pb-84r2_6817_csp.o
                0x0000000008098160                bootstrap_patch_string_pb_84r2_6817_csp_psr
 *fill*         0x0000000008098210       0x10 00
 .rodata        0x0000000008098220      0x52e output/default/pclin-2.6-x86/obj/bootstrap/psr/pb-90r1_6817.o
                0x0000000008098220                bootstrap_patch_string_pb_90r1_6817_psr
 *fill*         0x000000000809874e       0x12 00
 .rodata        0x0000000008098760       0xfc output/default/pclin-2.6-x86/obj/bootstrap/psr/ps-default.o
                0x0000000008098760                bootstrap_patch_string_ps_default_psr
 *fill*         0x000000000809885c        0x4 00
 .rodata        0x0000000008098860      0x116 output/default/pclin-2.6-x86/obj/bootstrap/psr/ps-gemini_a06.o
                0x0000000008098860                bootstrap_patch_string_ps_gemini_a06_psr
 *fill*         0x0000000008098976        0x2 00
 .rodata        0x0000000008098978      0x161 ../output/default/pclin-2.6-x86/lib/libcsr_sched.a(csr_sched.o)
 *fill*         0x0000000008098ad9        0x7 00
 .rodata        0x0000000008098ae0       0x74 ../output/default/pclin-2.6-x86/lib/libcsr_ui.a(csr_ui_ctrl.o)
 *fill*         0x0000000008098b54        0xc 00
 .rodata        0x0000000008098b60      0x148 ../output/default/pclin-2.6-x86/lib/libcsr_ui.a(csr_ui_keyhandler.o)
 *fill*         0x0000000008098ca8       0x18 00
 .rodata        0x0000000008098cc0     0xdff2 ../output/default/pclin-2.6-x86/lib/libcsr_ui.a(csr_ui_renderer.o)
 *fill*         0x00000000080a6cb2        0x2 00
 .rodata        0x00000000080a6cb4       0x14 ../output/default/pclin-2.6-x86/lib/libcsr_ui.a(csr_ui_uiemanager.o)
 .rodata        0x00000000080a6cc8       0x44 ../output/default/pclin-2.6-x86/lib/libcsr_ui.a(csr_ui_free_down.o)
 *fill*         0x00000000080a6d0c       0x14 00
 .rodata        0x00000000080a6d20    0x16000 ../output/default/pclin-2.6-x86/lib/libcsr_ui.a(csr_ui_icon.o)
 .rodata        0x00000000080bcd20     0x1600 ../output/default/pclin-2.6-x86/lib/libcsr_ui.a(csr_ui_font_sax_mono_12x22.o)
                0x00000000080bcd20                CsrUiFontSaxMono12x22DataTable
 .rodata        0x00000000080be320     0x1500 ../output/default/pclin-2.6-x86/lib/libcsr_ui.a(csr_ui_font_sax_mono_10x21.o)
                0x00000000080be320                CsrUiFontSaxMono10x21DataTable
 .rodata        0x00000000080bf820       0x31 ../output/default/pclin-2.6-x86/lib/libcsr_app.a(csr_app_handler.o)
 .rodata        0x00000000080bf851       0x31 ../output/default/pclin-2.6-x86/lib/libcsr_app.a(csr_app_ui_sef.o)
 .rodata        0x00000000080bf882        0x7 ../output/default/pclin-2.6-x86/lib/libcsr_app.a(csr_app_util.o)
 .rodata        0x00000000080bf889        0x3 ../output/default/pclin-2.6-x86/lib/libcsr_arg_search.a(csr_arg_search.o)
 .rodata        0x00000000080bf88c      0x34c ../bsp/ports/pclin/output/default/pclin-2.6-x86/lib/libcsr_app_main_bluecore.a(csr_app_main.o)
 .rodata        0x00000000080bfbd8       0x16 ../bsp/ports/pclin/output/default/pclin-2.6-x86/lib/libcsr_app_main_bluecore.a(csr_key_input.o)
 *fill*         0x00000000080bfbee        0x2 00
 .rodata        0x00000000080bfbf0       0xc3 ../bsp/ports/pclin/output/default/pclin-2.6-x86/lib/libcsr_app_main_bluecore.a(csr_ui_lower.o)
 *fill*         0x00000000080bfcb3        0x1 00
 .rodata        0x00000000080bfcb4      0x442 ../bsp/ports/pclin/output/default/pclin-2.6-x86/lib/libcsr_app_main_bluecore.a(csr_app_main_transport_bluecore.o)
 *fill*         0x00000000080c00f6        0x2 00
 .rodata        0x00000000080c00f8       0x1c ../output/default/pclin-2.6-x86/lib/libcsr_bccmd.a(csr_bccmd_handler.o)
 *fill*         0x00000000080c0114        0xc 00
 .rodata        0x00000000080c0120       0x20 ../output/default/pclin-2.6-x86/lib/libcsr_fastpipe.a(csr_fp_handler.o)
 .rodata        0x00000000080c0140       0x28 ../output/default/pclin-2.6-x86/lib/libcsr_hq.a(csr_hq_sef.o)
 *fill*         0x00000000080c0168       0x18 00
 .rodata        0x00000000080c0180       0x48 ../output/default/pclin-2.6-x86/lib/libcsr_am.a(csr_am_handler.o)
 .rodata        0x00000000080c01c8       0x5c ../output/default/pclin-2.6-x86/lib/libcsr_am.a(csr_am_util.o)
 .rodata        0x00000000080c0224       0x5c ../output/default/pclin-2.6-x86/lib/libcsr_am.a(csr_am_sef.o)
 .rodata        0x00000000080c0280       0x58 ../output/default/pclin-2.6-x86/lib/libcsr_hci.a(csr_hci_handler.o)
 .rodata        0x00000000080c02d8       0x38 ../output/default/pclin-2.6-x86/lib/libcsr_hci.a(csr_hci_sef.o)
 .rodata        0x00000000080c0310       0x14 ../output/default/pclin-2.6-x86/lib/libcsr_hci.a(csr_hci_free_down.o)
 .rodata        0x00000000080c0324      0x116 ../output/default/pclin-2.6-x86/lib/libcsr_bluecore_manager.a(csr_bluecore_manager_sef.o)
 .rodata        0x00000000080c043a       0x40 ../output/default/pclin-2.6-x86/lib/libcsr_ethernet_manager.a(csr_ethernet_manager.o)
 *fill*         0x00000000080c047a        0x6 00
 .rodata        0x00000000080c0480       0x8c ../output/default/pclin-2.6-x86/lib/libcsr_tcp_transceiver.a(csr_tcp_transceiver_handler.o)
 .rodata        0x00000000080c050c      0x122 ../output/default/pclin-2.6-x86/lib/libcsr_tcp_transceiver.a(csr_tcp_transceiver_sef.o)
 *fill*         0x00000000080c062e       0x12 00
 .rodata        0x00000000080c0640      0x27e ../bsp/ports/pclin/output/default/pclin-2.6-x86/lib/libcsr_ip.a(csr_ip_handler.o)
 *fill*         0x00000000080c08be        0x2 00
 .rodata        0x00000000080c08c0      0x124 ../bsp/ports/pclin/output/default/pclin-2.6-x86/lib/libcsr_ip.a(csr_ip_ifconfig_sef.o)
 .rodata        0x00000000080c09e4      0x36e ../bsp/ports/pclin/output/default/pclin-2.6-x86/lib/libcsr_ip.a(csr_ip_thread.o)
 .rodata        0x00000000080c0d52        0xd ../bsp/ports/pclin/output/default/pclin-2.6-x86/lib/libcsr_ip.a(csr_ip_ether_sef.o)
 *fill*         0x00000000080c0d5f        0x1 00
 .rodata        0x00000000080c0d60      0x244 ../output/default/pclin-2.6-x86/lib/libcsr_dhcp_server_manager.a(csr_dhcp_server_manager.o)
 .rodata        0x00000000080c0fa4       0x68 ../output/default/pclin-2.6-x86/lib/libcsr_dhcp_server.a(csr_dhcp_server_handler.o)
 .rodata        0x00000000080c100c       0x5c ../output/default/pclin-2.6-x86/lib/libcsr_dhcp_server.a(csr_dhcp_server_util.o)
 .rodata        0x00000000080c1068       0x14 ../output/default/pclin-2.6-x86/lib/libcsr_tftp.a(csr_tftp_handler.o)
 .rodata        0x00000000080c107c        0xf ../output/default/pclin-2.6-x86/lib/libcsr_tftp.a(csr_tftp_sef.o)
 *fill*         0x00000000080c108b        0x1 00
 .rodata        0x00000000080c108c       0x34 ../output/default/pclin-2.6-x86/lib/libcsr_tftp_file.a(csr_tftp_file_handler.o)
 .rodata        0x00000000080c10c0       0x48 ../output/default/pclin-2.6-x86/lib/libcsr_fsal.a(csr_fsal_handler.o)
 .rodata        0x00000000080c1108       0x20 ../output/default/pclin-2.6-x86/lib/libcsr_fsal.a(csr_fsal_sef.o)
 .rodata        0x00000000080c1128        0xa ../output/default/pclin-2.6-x86/lib/libcsr_fsal.a(csr_fsal_sef_utils.o)
 *fill*         0x00000000080c1132        0x2 00
 .rodata        0x00000000080c1134       0x36 ../output/default/pclin-2.6-x86/lib/libcsr_fsal.a(csr_fsal_utils.o)
 *fill*         0x00000000080c116a        0x2 00
 .rodata        0x00000000080c116c       0x40 ../output/default/pclin-2.6-x86/lib/libcsr_fsal_lib.a(csr_fsal_free_up.o)
 .rodata        0x00000000080c11ac       0x48 ../output/default/pclin-2.6-x86/lib/libcsr_fsal_lib.a(csr_fsal_free_down.o)
 *fill*         0x00000000080c11f4        0xc 00
 .rodata        0x00000000080c1200      0x174 ../output/default/pclin-2.6-x86/lib/libcsr_unicode.a(csr_utf16.o)
 *fill*         0x00000000080c1374        0xc 00
 .rodata        0x00000000080c1380       0x20 ../output/default/pclin-2.6-x86/lib/libcsr_mblk.a(csr_mblk_duplicate.o)
 .rodata        0x00000000080c13a0       0x5b ../output/default/pclin-2.6-x86/lib/libcsr_mblk.a(csr_mblk_pmalloc.o)
 .rodata        0x00000000080c13fb       0x20 ../output/default/pclin-2.6-x86/lib/libcsr_bcsp.a(csr_abcsp_init_c.o)
 *fill*         0x00000000080c141b        0x5 00
 .rodata        0x00000000080c1420       0x48 ../output/default/pclin-2.6-x86/lib/libcsr_bcsp.a(csr_abcsp_le.o)
                0x00000000080c1420                CsrAbcspLeSyncMsg
                0x00000000080c1424                CsrAbcspLeSyncrespMsg
                0x00000000080c1428                CsrAbcspLeConfMsg
                0x00000000080c142c                CsrAbcspLeConfrespMsg
 .rodata        0x00000000080c1468       0x18 ../output/default/pclin-2.6-x86/lib/libcsr_bcsp.a(csr_abcsp_rx.o)
 .rodata        0x00000000080c1480       0x3c ../output/default/pclin-2.6-x86/lib/libcsr_bcsp.a(csr_abcsp_txmsg.o)
 *fill*         0x00000000080c14bc        0x4 00
 .rodata        0x00000000080c14c0      0x200 ../output/default/pclin-2.6-x86/lib/libcsr_bcsp.a(csr_abcsp_crc.o)
 .rodata        0x00000000080c16c0       0x1c ../output/default/pclin-2.6-x86/lib/libcsr_h4ds.a(csr_h4ds_initialize.o)
 .rodata        0x00000000080c16dc       0x20 ../output/default/pclin-2.6-x86/lib/libcsr_h4ds.a(csr_h4ds_ds.o)
 .rodata        0x00000000080c16fc       0x2c ../output/default/pclin-2.6-x86/lib/libcsr_h4ds.a(csr_h4ds_rx.o)
 .rodata        0x00000000080c1728        0xf ../output/default/pclin-2.6-x86/lib/libcsr_h4ds.a(csr_h4_events.o)
 .rodata        0x00000000080c1737        0xe ../output/default/pclin-2.6-x86/lib/libcsr_h4ds.a(csr_h4_tx.o)
 .rodata        0x00000000080c1745        0xb ../output/default/pclin-2.6-x86/lib/libcsr_h4ds.a(csr_h4ds_event.o)
 .rodata        0x00000000080c1750       0x11 ../output/default/pclin-2.6-x86/lib/libcsr_h4ds.a(csr_h4ds_low_level_transport.o)
 .rodata        0x00000000080c1761       0x2c ../output/default/pclin-2.6-x86/lib/libcsr_h4ds.a(csr_h4ds_msgs.o)
                0x00000000080c1761                CsrH4DSLockMsgfrag
                0x00000000080c1769                CsrH4DSYmsMsgfrag
                0x00000000080c176d                CsrH4DSWuMsgfrag
                0x00000000080c1771                CsrH4DSPreWuMsgfrag
                0x00000000080c1775                CsrH4DSPrezWuMsgfrag
                0x00000000080c1779                CsrH4DSIaMsgfrag
                0x00000000080c177d                CsrH4DSSyncMsgfrag
                0x00000000080c1781                CsrH4DSSackMsgfrag
                0x00000000080c1785                CsrH4DSConfMsgfrag
                0x00000000080c1789                CsrH4DSCackMsgfrag
 *fill*         0x00000000080c178d       0x13 00
 .rodata        0x00000000080c17a0       0x50 ../output/default/pclin-2.6-x86/lib/libcsr_h4ds.a(csr_h4ds_scanner.o)
 .rodata        0x00000000080c17f0        0x2 ../bsp/ports/pclin/output/default/pclin-2.6-x86/lib/libcsr_util.a(csr_util.o)
 .rodata        0x00000000080c17f2        0xe ../bsp/ports/pclin/output/default/pclin-2.6-x86/lib/libcsr_pmem.a(csr_pmem.o)
 .rodata        0x00000000080c1800       0xc1 ../bsp/ports/pclin/output/default/pclin-2.6-x86/lib/libcsr_ser_com.a(csr_serial_com.o)
 *fill*         0x00000000080c18c1        0x3 00
 .rodata        0x00000000080c18c4      0x171 ../bsp/ports/pclin/output/default/pclin-2.6-x86/lib/libcsr_usb_com.a(csr_usb_com.o)
 .rodata        0x00000000080c1a35        0x4 ../bsp/ports/pclin/output/default/pclin-2.6-x86/lib/libcsr_fs.a(csr_posix_filesystem.o)
 *fill*         0x00000000080c1a39        0x3 00
 .rodata        0x00000000080c1a3c       0x1c ../output/default/pclin-2.6-x86/lib/libcsr_ui.a(csr_ui_free_up.o)

.rodata1
 *(.rodata1)

.eh_frame_hdr   0x00000000080c1a58     0x2abc
 *(.eh_frame_hdr)
 .eh_frame_hdr  0x00000000080c1a58     0x2abc /usr/lib/gcc/i686-linux-gnu/4.6/../../../i386-linux-gnu/crt1.o

.eh_frame       0x00000000080c4514     0xb198
 *(.eh_frame)
 .eh_frame      0x00000000080c4514       0x3c /usr/lib/gcc/i686-linux-gnu/4.6/../../../i386-linux-gnu/crt1.o
                                         0x40 (size before relaxing)
 .eh_frame      0x00000000080c4550       0x60 output/default/pclin-2.6-x86/obj/csr_tasks.o
                                         0x78 (size before relaxing)
 .eh_frame      0x00000000080c45b0      0x264 output/default/pclin-2.6-x86/obj/bootstrap/csr_bootstrap_generic.o
                                        0x27c (size before relaxing)
 .eh_frame      0x00000000080c4814       0x20 output/default/pclin-2.6-x86/obj/bootstrap/csr_bootstrap_specific_string_based.o
                                         0x38 (size before relaxing)
 .eh_frame      0x00000000080c4834      0x364 ../output/default/pclin-2.6-x86/lib/libcsr_sched.a(csr_sched.o)
                                        0x37c (size before relaxing)
 .eh_frame      0x00000000080c4b98       0x60 ../output/default/pclin-2.6-x86/lib/libcsr_ui.a(csr_ui_ctrl.o)
                                         0x78 (size before relaxing)
 .eh_frame      0x00000000080c4bf8       0xa8 ../output/default/pclin-2.6-x86/lib/libcsr_ui.a(csr_ui_displaystack.o)
                                         0xc0 (size before relaxing)
 .eh_frame      0x00000000080c4ca0       0x90 ../output/default/pclin-2.6-x86/lib/libcsr_ui.a(csr_ui_emulator_touchdecoder.o)
                                         0xa8 (size before relaxing)
 .eh_frame      0x00000000080c4d30      0x194 ../output/default/pclin-2.6-x86/lib/libcsr_ui.a(csr_ui_keyhandler.o)
                                        0x1ac (size before relaxing)
 .eh_frame      0x00000000080c4ec4      0x3b0 ../output/default/pclin-2.6-x86/lib/libcsr_ui.a(csr_ui_renderer.o)
                                        0x3c8 (size before relaxing)
 .eh_frame      0x00000000080c5274      0x168 ../output/default/pclin-2.6-x86/lib/libcsr_ui.a(csr_ui_renderer_text.o)
                                        0x180 (size before relaxing)
 .eh_frame      0x00000000080c53dc      0x3ac ../output/default/pclin-2.6-x86/lib/libcsr_ui.a(csr_ui_sef.o)
                                        0x3c4 (size before relaxing)
 .eh_frame      0x00000000080c5788      0x1c4 ../output/default/pclin-2.6-x86/lib/libcsr_ui.a(csr_ui_uiemanager.o)
                                        0x1dc (size before relaxing)
 .eh_frame      0x00000000080c594c       0xe8 ../output/default/pclin-2.6-x86/lib/libcsr_ui.a(csr_ui_util.o)
                                        0x100 (size before relaxing)
 .eh_frame      0x00000000080c5a34       0x20 ../output/default/pclin-2.6-x86/lib/libcsr_ui.a(csr_ui_free_down.o)
                                         0x38 (size before relaxing)
 .eh_frame      0x00000000080c5a54       0xb8 ../output/default/pclin-2.6-x86/lib/libcsr_ui.a(csr_ui_graphics_driver.o)
                                         0xd0 (size before relaxing)
 .eh_frame      0x00000000080c5b0c       0x28 ../output/default/pclin-2.6-x86/lib/libcsr_ui.a(csr_ui_icon.o)
                                         0x40 (size before relaxing)
 .eh_frame      0x00000000080c5b34       0x70 ../output/default/pclin-2.6-x86/lib/libcsr_app.a(csr_app_handler.o)
                                         0x88 (size before relaxing)
 .eh_frame      0x00000000080c5ba4       0x78 ../output/default/pclin-2.6-x86/lib/libcsr_app.a(csr_app_ui_sef.o)
                                         0x90 (size before relaxing)
 .eh_frame      0x00000000080c5c1c      0x128 ../output/default/pclin-2.6-x86/lib/libcsr_app.a(csr_app_util.o)
                                        0x140 (size before relaxing)
 .eh_frame      0x00000000080c5d44       0x20 ../output/default/pclin-2.6-x86/lib/libcsr_app.a(csr_app_free_down.o)
                                         0x38 (size before relaxing)
 .eh_frame      0x00000000080c5d64       0x20 ../output/default/pclin-2.6-x86/lib/libcsr_app.a(csr_app_lower_private.o)
                                         0x38 (size before relaxing)
 .eh_frame      0x00000000080c5d84       0x20 ../bsp/ports/pclin/output/default/pclin-2.6-x86/lib/libcsr_main.a(csr_main.o)
                                         0x38 (size before relaxing)
 .eh_frame      0x00000000080c5da4       0x60 ../output/default/pclin-2.6-x86/lib/libcsr_arg_search.a(csr_arg_search.o)
                                         0x78 (size before relaxing)
 .eh_frame      0x00000000080c5e04       0x60 ../bsp/ports/pclin/output/default/pclin-2.6-x86/lib/libcsr_app_main_bluecore.a(csr_app_main.o)
                                         0x78 (size before relaxing)
 .eh_frame      0x00000000080c5e64       0x80 ../bsp/ports/pclin/output/default/pclin-2.6-x86/lib/libcsr_app_main_bluecore.a(csr_key_input.o)
                                         0x98 (size before relaxing)
 .eh_frame      0x00000000080c5ee4       0x80 ../bsp/ports/pclin/output/default/pclin-2.6-x86/lib/libcsr_app_main_bluecore.a(csr_ui_lower.o)
                                         0x98 (size before relaxing)
 .eh_frame      0x00000000080c5f64      0x17c ../bsp/ports/pclin/output/default/pclin-2.6-x86/lib/libcsr_app_main_bluecore.a(csr_app_main_transport_bluecore.o)
                                        0x194 (size before relaxing)
 .eh_frame      0x00000000080c60e0       0x40 ../output/default/pclin-2.6-x86/lib/libcsr_tm_bluecore.a(csr_tm_bluecore_handler.o)
                                         0x58 (size before relaxing)
 .eh_frame      0x00000000080c6120      0x260 ../output/default/pclin-2.6-x86/lib/libcsr_tm_bluecore.a(csr_tm_bluecore_sef.o)
                                        0x278 (size before relaxing)
 .eh_frame      0x00000000080c6380      0x180 ../output/default/pclin-2.6-x86/lib/libcsr_tm_bluecore.a(csr_tm_bluecore_transport.o)
                                        0x198 (size before relaxing)
 .eh_frame      0x00000000080c6500       0x60 ../output/default/pclin-2.6-x86/lib/libcsr_bccmd.a(csr_bccmd_handler.o)
                                         0x78 (size before relaxing)
 .eh_frame      0x00000000080c6560      0x11c ../output/default/pclin-2.6-x86/lib/libcsr_bccmd.a(csr_bccmd_lib.o)
                                        0x134 (size before relaxing)
 .eh_frame      0x00000000080c667c      0x300 ../output/default/pclin-2.6-x86/lib/libcsr_bccmd.a(csr_bccmd_sef.o)
                                        0x318 (size before relaxing)
 .eh_frame      0x00000000080c697c       0xa0 ../output/default/pclin-2.6-x86/lib/libcsr_bccmd.a(csr_bccmd_private_lib.o)
                                         0xb8 (size before relaxing)
 .eh_frame      0x00000000080c6a1c       0x54 ../output/default/pclin-2.6-x86/lib/libcsr_bccmd.a(csr_bccmd_util.o)
                                         0x6c (size before relaxing)
 .eh_frame      0x00000000080c6a70       0x20 ../output/default/pclin-2.6-x86/lib/libcsr_bccmd.a(csr_bccmd_free_up.o)
                                         0x38 (size before relaxing)
 .eh_frame      0x00000000080c6a90       0xa0 ../output/default/pclin-2.6-x86/lib/libcsr_fastpipe.a(csr_fp_handler.o)
                                         0xb8 (size before relaxing)
 .eh_frame      0x00000000080c6b30      0x380 ../output/default/pclin-2.6-x86/lib/libcsr_fastpipe.a(csr_fp_sef.o)
                                        0x398 (size before relaxing)
 .eh_frame      0x00000000080c6eb0       0x20 ../output/default/pclin-2.6-x86/lib/libcsr_fastpipe.a(csr_fp_free_down.o)
                                         0x38 (size before relaxing)
 .eh_frame      0x00000000080c6ed0       0x60 ../output/default/pclin-2.6-x86/lib/libcsr_hq.a(csr_hq_handler.o)
                                         0x78 (size before relaxing)
 .eh_frame      0x00000000080c6f30       0xa0 ../output/default/pclin-2.6-x86/lib/libcsr_hq.a(csr_hq_subscriber.o)
                                         0xb8 (size before relaxing)
 .eh_frame      0x00000000080c6fd0       0xa8 ../output/default/pclin-2.6-x86/lib/libcsr_hq.a(csr_hq_sef.o)
                                         0xc0 (size before relaxing)
 .eh_frame      0x00000000080c7078       0x20 ../output/default/pclin-2.6-x86/lib/libcsr_hq.a(csr_hq_free_down.o)
                                         0x38 (size before relaxing)
 .eh_frame      0x00000000080c7098       0xc0 ../output/default/pclin-2.6-x86/lib/libcsr_vm.a(csr_vm_handler.o)
                                         0xd8 (size before relaxing)
 .eh_frame      0x00000000080c7158       0x20 ../output/default/pclin-2.6-x86/lib/libcsr_vm.a(csr_vm_free_down.o)
                                         0x38 (size before relaxing)
 .eh_frame      0x00000000080c7178       0xa0 ../output/default/pclin-2.6-x86/lib/libcsr_am.a(csr_am_handler.o)
                                         0xb8 (size before relaxing)
 .eh_frame      0x00000000080c7218      0x75c ../output/default/pclin-2.6-x86/lib/libcsr_am.a(csr_am_util.o)
                                        0x774 (size before relaxing)
 .eh_frame      0x00000000080c7974      0x208 ../output/default/pclin-2.6-x86/lib/libcsr_am.a(csr_am_sef.o)
                                        0x220 (size before relaxing)
 .eh_frame      0x00000000080c7b7c       0x20 ../output/default/pclin-2.6-x86/lib/libcsr_am.a(csr_am_free_down.o)
                                         0x38 (size before relaxing)
 .eh_frame      0x00000000080c7b9c       0x60 ../output/default/pclin-2.6-x86/lib/libcsr_hci.a(csr_hci_handler.o)
                                         0x78 (size before relaxing)
 .eh_frame      0x00000000080c7bfc      0x160 ../output/default/pclin-2.6-x86/lib/libcsr_hci.a(csr_hci_lib.o)
                                        0x178 (size before relaxing)
 .eh_frame      0x00000000080c7d5c      0x228 ../output/default/pclin-2.6-x86/lib/libcsr_hci.a(csr_hci_sef.o)
                                        0x240 (size before relaxing)
 .eh_frame      0x00000000080c7f84      0x320 ../output/default/pclin-2.6-x86/lib/libcsr_hci.a(csr_hci_util.o)
                                        0x338 (size before relaxing)
 .eh_frame      0x00000000080c82a4       0x80 ../output/default/pclin-2.6-x86/lib/libcsr_hci.a(csr_hci_sco.o)
                                         0x98 (size before relaxing)
 .eh_frame      0x00000000080c8324       0x20 ../output/default/pclin-2.6-x86/lib/libcsr_hci.a(csr_hci_free_down.o)
                                         0x38 (size before relaxing)
 .eh_frame      0x00000000080c8344       0x20 ../output/default/pclin-2.6-x86/lib/libcsr_hci.a(csr_hci_free_up.o)
                                         0x38 (size before relaxing)
 .eh_frame      0x00000000080c8364       0x20 ../output/default/pclin-2.6-x86/lib/libcsr_hci.a(csr_hci_private_free_up.o)
                                         0x38 (size before relaxing)
 .eh_frame      0x00000000080c8384       0x60 ../output/default/pclin-2.6-x86/lib/libcsr_bluecore_manager.a(csr_bluecore_manager_handler.o)
                                         0x78 (size before relaxing)
 .eh_frame      0x00000000080c83e4      0x178 ../output/default/pclin-2.6-x86/lib/libcsr_bluecore_manager.a(csr_bluecore_manager_sef.o)
                                        0x190 (size before relaxing)
 .eh_frame      0x00000000080c855c       0xb4 ../output/default/pclin-2.6-x86/lib/libcsr_ethernet_manager.a(csr_ethernet_manager.o)
                                         0xcc (size before relaxing)
 .eh_frame      0x00000000080c8610       0x60 ../output/default/pclin-2.6-x86/lib/libcsr_tcp_transceiver.a(csr_tcp_transceiver_handler.o)
                                         0x78 (size before relaxing)
 .eh_frame      0x00000000080c8670      0x3a0 ../output/default/pclin-2.6-x86/lib/libcsr_tcp_transceiver.a(csr_tcp_transceiver_sef.o)
                                        0x3b8 (size before relaxing)
 .eh_frame      0x00000000080c8a10       0x68 ../bsp/ports/pclin/output/default/pclin-2.6-x86/lib/libcsr_ip.a(csr_ip_handler.o)
                                         0x80 (size before relaxing)
 .eh_frame      0x00000000080c8a78      0x334 ../bsp/ports/pclin/output/default/pclin-2.6-x86/lib/libcsr_ip.a(csr_ip_ifconfig_sef.o)
                                        0x34c (size before relaxing)
 .eh_frame      0x00000000080c8dac       0x60 ../bsp/ports/pclin/output/default/pclin-2.6-x86/lib/libcsr_ip.a(csr_ip_netlink_parser.o)
                                         0x78 (size before relaxing)
 .eh_frame      0x00000000080c8e0c      0x528 ../bsp/ports/pclin/output/default/pclin-2.6-x86/lib/libcsr_ip.a(csr_ip_socket_sef.o)
                                        0x540 (size before relaxing)
 .eh_frame      0x00000000080c9334       0x60 ../bsp/ports/pclin/output/default/pclin-2.6-x86/lib/libcsr_ip.a(csr_ip_thread.o)
                                         0x78 (size before relaxing)
 .eh_frame      0x00000000080c9394       0xdc ../bsp/ports/pclin/output/default/pclin-2.6-x86/lib/libcsr_ip.a(csr_ip_util.o)
                                         0xf4 (size before relaxing)
 .eh_frame      0x00000000080c9470      0x1b0 ../bsp/ports/pclin/output/default/pclin-2.6-x86/lib/libcsr_ip.a(csr_ip_ether_sef.o)
                                        0x1c8 (size before relaxing)
 .eh_frame      0x00000000080c9620       0x20 ../output/default/pclin-2.6-x86/lib/libcsr_ip_ether_lib.a(csr_ip_ether_free_down.o)
                                         0x38 (size before relaxing)
 .eh_frame      0x00000000080c9640       0xe0 ../output/default/pclin-2.6-x86/lib/libcsr_ip_ether_lib.a(csr_ip_ether_private_lib.o)
                                         0xf8 (size before relaxing)
 .eh_frame      0x00000000080c9720       0x20 ../output/default/pclin-2.6-x86/lib/libcsr_ip_socket_lib.a(csr_ip_socket_free_up.o)
                                         0x38 (size before relaxing)
 .eh_frame      0x00000000080c9740       0x20 ../output/default/pclin-2.6-x86/lib/libcsr_ip_socket_lib.a(csr_ip_socket_free_down.o)
                                         0x38 (size before relaxing)
 .eh_frame      0x00000000080c9760      0x2ac ../output/default/pclin-2.6-x86/lib/libcsr_ip_socket_lib.a(csr_ip_socket_lib.o)
                                        0x2c4 (size before relaxing)
 .eh_frame      0x00000000080c9a0c      0x2b4 ../output/default/pclin-2.6-x86/lib/libcsr_ip_socket_lib.a(csr_ip_socket_private_lib.o)
                                        0x2cc (size before relaxing)
 .eh_frame      0x00000000080c9cc0       0x20 ../output/default/pclin-2.6-x86/lib/libcsr_ip_ifconfig_lib.a(csr_ip_ifconfig_free_up.o)
                                         0x38 (size before relaxing)
 .eh_frame      0x00000000080c9ce0       0x20 ../output/default/pclin-2.6-x86/lib/libcsr_ip_ifconfig_lib.a(csr_ip_ifconfig_free_down.o)
                                         0x38 (size before relaxing)
 .eh_frame      0x00000000080c9d00       0xe0 ../output/default/pclin-2.6-x86/lib/libcsr_ip_ifconfig_lib.a(csr_ip_ifconfig_lib.o)
                                         0xf8 (size before relaxing)
 .eh_frame      0x00000000080c9de0      0x100 ../output/default/pclin-2.6-x86/lib/libcsr_ip_ifconfig_lib.a(csr_ip_ifconfig_private_lib.o)
                                        0x118 (size before relaxing)
 .eh_frame      0x00000000080c9ee0       0xec ../output/default/pclin-2.6-x86/lib/libcsr_dhcp_server_manager.a(csr_dhcp_server_manager.o)
                                        0x104 (size before relaxing)
 .eh_frame      0x00000000080c9fcc      0x1c0 ../output/default/pclin-2.6-x86/lib/libcsr_dhcp_server.a(csr_dhcp_server_handler.o)
                                        0x1d8 (size before relaxing)
 .eh_frame      0x00000000080ca18c      0x1e8 ../output/default/pclin-2.6-x86/lib/libcsr_dhcp_server.a(csr_dhcp_server_sef.o)
                                        0x200 (size before relaxing)
 .eh_frame      0x00000000080ca374      0x568 ../output/default/pclin-2.6-x86/lib/libcsr_dhcp_server.a(csr_dhcp_server_util.o)
                                        0x580 (size before relaxing)
 .eh_frame      0x00000000080ca8dc       0x20 ../output/default/pclin-2.6-x86/lib/libcsr_dhcp_server_lib.a(csr_dhcp_server_free_down.o)
                                         0x38 (size before relaxing)
 .eh_frame      0x00000000080ca8fc       0xc0 ../output/default/pclin-2.6-x86/lib/libcsr_dhcp_server_lib.a(csr_dhcp_server_lib.o)
                                         0xd8 (size before relaxing)
 .eh_frame      0x00000000080ca9bc       0xe0 ../output/default/pclin-2.6-x86/lib/libcsr_dhcp_server_lib.a(csr_dhcp_server_lib_priv.o)
                                         0xf8 (size before relaxing)
 .eh_frame      0x00000000080caa9c       0x60 ../output/default/pclin-2.6-x86/lib/libcsr_tftp.a(csr_tftp_handler.o)
                                         0x78 (size before relaxing)
 .eh_frame      0x00000000080caafc      0x428 ../output/default/pclin-2.6-x86/lib/libcsr_tftp.a(csr_tftp_sef.o)
                                        0x440 (size before relaxing)
 .eh_frame      0x00000000080caf24       0x20 ../output/default/pclin-2.6-x86/lib/libcsr_tftp_lib.a(csr_tftp_free_down.o)
                                         0x38 (size before relaxing)
 .eh_frame      0x00000000080caf44       0xc4 ../output/default/pclin-2.6-x86/lib/libcsr_tftp_lib.a(csr_tftp_lib_priv.o)
                                         0xdc (size before relaxing)
 .eh_frame      0x00000000080cb008       0x60 ../output/default/pclin-2.6-x86/lib/libcsr_tftp_file.a(csr_tftp_file_handler.o)
                                         0x78 (size before relaxing)
 .eh_frame      0x00000000080cb068      0x1e4 ../output/default/pclin-2.6-x86/lib/libcsr_tftp_file.a(csr_tftp_file_sef.o)
                                        0x1fc (size before relaxing)
 .eh_frame      0x00000000080cb24c       0x60 ../output/default/pclin-2.6-x86/lib/libcsr_fsal.a(csr_fsal_handler.o)
                                         0x78 (size before relaxing)
 .eh_frame      0x00000000080cb2ac      0x4c8 ../output/default/pclin-2.6-x86/lib/libcsr_fsal.a(csr_fsal_sef.o)
                                        0x4e0 (size before relaxing)
 .eh_frame      0x00000000080cb774       0x80 ../output/default/pclin-2.6-x86/lib/libcsr_fsal.a(csr_fsal_sef_utils.o)
                                         0x98 (size before relaxing)
 .eh_frame      0x00000000080cb7f4      0x260 ../output/default/pclin-2.6-x86/lib/libcsr_fsal.a(csr_fsal_utils.o)
                                        0x278 (size before relaxing)
 .eh_frame      0x00000000080cba54       0x20 ../output/default/pclin-2.6-x86/lib/libcsr_fsal_lib.a(csr_fsal_free_up.o)
                                         0x38 (size before relaxing)
 .eh_frame      0x00000000080cba74       0x20 ../output/default/pclin-2.6-x86/lib/libcsr_fsal_lib.a(csr_fsal_free_down.o)
                                         0x38 (size before relaxing)
 .eh_frame      0x00000000080cba94      0x240 ../output/default/pclin-2.6-x86/lib/libcsr_fsal_lib.a(csr_fsal_lib.o)
                                        0x258 (size before relaxing)
 .eh_frame      0x00000000080cbcd4      0x240 ../output/default/pclin-2.6-x86/lib/libcsr_fsal_lib.a(csr_fsal_lib_priv.o)
                                        0x258 (size before relaxing)
 .eh_frame      0x00000000080cbf14      0x200 ../output/default/pclin-2.6-x86/lib/libcsr_list.a(csr_list.o)
                                        0x218 (size before relaxing)
 .eh_frame      0x00000000080cc114       0x6c ../output/default/pclin-2.6-x86/lib/libcsr_message_queue.a(csr_message_queue.o)
                                         0x84 (size before relaxing)
 .eh_frame      0x00000000080cc180       0x20 ../output/default/pclin-2.6-x86/lib/libcsr_formatted_io.a(csr_formatted_io.o)
                                         0x38 (size before relaxing)
 .eh_frame      0x00000000080cc1a0      0x2e4 ../output/default/pclin-2.6-x86/lib/libcsr_unicode.a(csr_utf16.o)
                                        0x2fc (size before relaxing)
 .eh_frame      0x00000000080cc484      0x26c ../output/default/pclin-2.6-x86/lib/libcsr_mblk.a(csr_mblk.o)
                                        0x284 (size before relaxing)
 .eh_frame      0x00000000080cc6f0       0xa4 ../output/default/pclin-2.6-x86/lib/libcsr_mblk.a(csr_mblk_duplicate.o)
                                         0xbc (size before relaxing)
 .eh_frame      0x00000000080cc794      0x164 ../output/default/pclin-2.6-x86/lib/libcsr_mblk.a(csr_mblk_pmalloc.o)
                                        0x17c (size before relaxing)
 .eh_frame      0x00000000080cc8f8       0x20 ../output/default/pclin-2.6-x86/lib/libcsr_mblk.a(csr_mblk_read_head.o)
                                         0x38 (size before relaxing)
 .eh_frame      0x00000000080cc918      0x160 ../output/default/pclin-2.6-x86/lib/libcsr_bcsp.a(csr_abcsp_transport.o)
                                        0x178 (size before relaxing)
 .eh_frame      0x00000000080cca78       0x60 ../output/default/pclin-2.6-x86/lib/libcsr_bcsp.a(csr_abcsp_init_c.o)
                                         0x78 (size before relaxing)
 .eh_frame      0x00000000080ccad8       0x20 ../output/default/pclin-2.6-x86/lib/libcsr_bcsp.a(csr_abcsp_events.o)
                                         0x38 (size before relaxing)
 .eh_frame      0x00000000080ccaf8       0x80 ../output/default/pclin-2.6-x86/lib/libcsr_bcsp.a(csr_abcsp_rd_hl.o)
                                         0x98 (size before relaxing)
 .eh_frame      0x00000000080ccb78      0x100 ../output/default/pclin-2.6-x86/lib/libcsr_bcsp.a(csr_abcsp_le.o)
                                        0x118 (size before relaxing)
 .eh_frame      0x00000000080ccc78       0xc0 ../output/default/pclin-2.6-x86/lib/libcsr_bcsp.a(csr_abcsp_rx.o)
                                         0xd8 (size before relaxing)
 .eh_frame      0x00000000080ccd38      0x1a0 ../output/default/pclin-2.6-x86/lib/libcsr_bcsp.a(csr_abcsp_txmsg.o)
                                        0x1b8 (size before relaxing)
 .eh_frame      0x00000000080cced8       0xc0 ../output/default/pclin-2.6-x86/lib/libcsr_bcsp.a(csr_abcsp_tx_rx_msg_intf.o)
                                         0xd8 (size before relaxing)
 .eh_frame      0x00000000080ccf98       0xc8 ../output/default/pclin-2.6-x86/lib/libcsr_bcsp.a(csr_abcsp_txslip.o)
                                         0xe0 (size before relaxing)
 .eh_frame      0x00000000080cd060      0x124 ../output/default/pclin-2.6-x86/lib/libcsr_bcsp.a(csr_abcsp_timers.o)
                                        0x13c (size before relaxing)
 .eh_frame      0x00000000080cd184       0x40 ../output/default/pclin-2.6-x86/lib/libcsr_bcsp.a(csr_abcsp_tx_handle.o)
                                         0x58 (size before relaxing)
 .eh_frame      0x00000000080cd1c4       0x80 ../output/default/pclin-2.6-x86/lib/libcsr_bcsp.a(csr_abcsp_crc.o)
                                         0x98 (size before relaxing)
 .eh_frame      0x00000000080cd244      0x160 ../output/default/pclin-2.6-x86/lib/libcsr_h4ds.a(csr_h4ds_transport.o)
                                        0x178 (size before relaxing)
 .eh_frame      0x00000000080cd3a4       0xa0 ../output/default/pclin-2.6-x86/lib/libcsr_h4ds.a(csr_h4ds_initialize.o)
                                         0xb8 (size before relaxing)
 .eh_frame      0x00000000080cd444       0x60 ../output/default/pclin-2.6-x86/lib/libcsr_h4ds.a(csr_h4ds_pump_msg.o)
                                         0x78 (size before relaxing)
 .eh_frame      0x00000000080cd4a4       0x20 ../output/default/pclin-2.6-x86/lib/libcsr_h4ds.a(csr_h4ds_init.o)
                                         0x38 (size before relaxing)
 .eh_frame      0x00000000080cd4c4      0x100 ../output/default/pclin-2.6-x86/lib/libcsr_h4ds.a(csr_h4ds_le.o)
                                        0x118 (size before relaxing)
 .eh_frame      0x00000000080cd5c4      0x2a0 ../output/default/pclin-2.6-x86/lib/libcsr_h4ds.a(csr_h4ds_tx.o)
                                        0x2b8 (size before relaxing)
 .eh_frame      0x00000000080cd864      0x280 ../output/default/pclin-2.6-x86/lib/libcsr_h4ds.a(csr_h4ds_ds.o)
                                        0x298 (size before relaxing)
 .eh_frame      0x00000000080cdae4       0x84 ../output/default/pclin-2.6-x86/lib/libcsr_h4ds.a(csr_h4ds_rx.o)
                                         0x9c (size before relaxing)
 .eh_frame      0x00000000080cdb68       0x60 ../output/default/pclin-2.6-x86/lib/libcsr_h4ds.a(csr_h4ds_pump.o)
                                         0x78 (size before relaxing)
 .eh_frame      0x00000000080cdbc8       0x20 ../output/default/pclin-2.6-x86/lib/libcsr_h4ds.a(csr_h4_events.o)
                                         0x38 (size before relaxing)
 .eh_frame      0x00000000080cdbe8       0x20 ../output/default/pclin-2.6-x86/lib/libcsr_h4ds.a(csr_h4_int_handle.o)
                                         0x38 (size before relaxing)
 .eh_frame      0x00000000080cdc08       0xa0 ../output/default/pclin-2.6-x86/lib/libcsr_h4ds.a(csr_h4_tx.o)
                                         0xb8 (size before relaxing)
 .eh_frame      0x00000000080cdca8       0x40 ../output/default/pclin-2.6-x86/lib/libcsr_h4ds.a(csr_h4_rx.o)
                                         0x58 (size before relaxing)
 .eh_frame      0x00000000080cdce8       0x40 ../output/default/pclin-2.6-x86/lib/libcsr_h4ds.a(csr_h4ds_event.o)
                                         0x58 (size before relaxing)
 .eh_frame      0x00000000080cdd28      0x1e0 ../output/default/pclin-2.6-x86/lib/libcsr_h4ds.a(csr_h4ds_timers.o)
                                        0x1f8 (size before relaxing)
 .eh_frame      0x00000000080cdf08      0x108 ../output/default/pclin-2.6-x86/lib/libcsr_h4ds.a(csr_h4ds_low_level_transport.o)
                                        0x120 (size before relaxing)
 .eh_frame      0x00000000080ce010       0x20 ../output/default/pclin-2.6-x86/lib/libcsr_h4ds.a(csr_h4ds_tx_handle.o)
                                         0x38 (size before relaxing)
 .eh_frame      0x00000000080ce030       0x68 ../output/default/pclin-2.6-x86/lib/libcsr_h4ds.a(csr_h4ds_scanner.o)
                                         0x80 (size before relaxing)
 .eh_frame      0x00000000080ce098       0xe0 ../output/default/pclin-2.6-x86/lib/libcsr_queue_lib.a(csr_queue_lib.o)
                                         0xf8 (size before relaxing)
 .eh_frame      0x00000000080ce178      0x3c8 ../bsp/ports/pclin/output/default/pclin-2.6-x86/lib/libcsr_util.a(csr_util.o)
                                        0x3e0 (size before relaxing)
 .eh_frame      0x00000000080ce540       0x80 ../bsp/ports/pclin/output/default/pclin-2.6-x86/lib/libcsr_pmem.a(csr_pmem.o)
                                         0x98 (size before relaxing)
 .eh_frame      0x00000000080ce5c0       0x50 ../bsp/ports/pclin/output/default/pclin-2.6-x86/lib/libcsr_time.a(csr_time.o)
                                         0x68 (size before relaxing)
 .eh_frame      0x00000000080ce610       0x3c ../bsp/ports/pclin/output/default/pclin-2.6-x86/lib/libcsr_panic.a(csr_panic.o)
                                         0x54 (size before relaxing)
 .eh_frame      0x00000000080ce64c      0x204 ../bsp/ports/pclin/output/default/pclin-2.6-x86/lib/libcsr_ser_com.a(csr_serial_com.o)
                                        0x21c (size before relaxing)
 .eh_frame      0x00000000080ce850      0x100 ../bsp/ports/pclin/output/default/pclin-2.6-x86/lib/libcsr_usb_com.a(csr_usb_com.o)
                                        0x118 (size before relaxing)
 .eh_frame      0x00000000080ce950      0x264 ../bsp/ports/pclin/output/default/pclin-2.6-x86/lib/libcsr_framework_ext.a(csr_framework_ext.o)
                                        0x27c (size before relaxing)
 .eh_frame      0x00000000080cebb4      0x330 ../bsp/ports/pclin/output/default/pclin-2.6-x86/lib/libcsr_fs.a(csr_posix_filesystem.o)
                                        0x348 (size before relaxing)
 .eh_frame      0x00000000080ceee4      0x180 ../output/default/pclin-2.6-x86/lib/libcsr_usb.a(csr_usb_transport.o)
                                        0x198 (size before relaxing)
 .eh_frame      0x00000000080cf064      0x3bc ../output/default/pclin-2.6-x86/lib/libcsr_ui.a(csr_ui_lib.o)
                                        0x3d4 (size before relaxing)
 .eh_frame      0x00000000080cf420       0x20 ../output/default/pclin-2.6-x86/lib/libcsr_ui.a(csr_ui_free_up.o)
                                         0x38 (size before relaxing)
 .eh_frame      0x00000000080cf440       0x64 ../output/default/pclin-2.6-x86/lib/libcsr_app.a(csr_app_lib.o)
                                         0x7c (size before relaxing)
 .eh_frame      0x00000000080cf4a4       0x40 ../output/default/pclin-2.6-x86/lib/libcsr_random.a(csr_random.o)
                                         0x58 (size before relaxing)
 .eh_frame      0x00000000080cf4e4       0x40 ../output/default/pclin-2.6-x86/lib/libcsr_tm_bluecore.a(csr_tm_bluecore_lib.o)
                                         0x58 (size before relaxing)
 .eh_frame      0x00000000080cf524       0x40 ../output/default/pclin-2.6-x86/lib/libcsr_tm_bluecore.a(csr_tm_bluecore_private_lib.o)
                                         0x58 (size before relaxing)
 .eh_frame      0x00000000080cf564       0x20 ../output/default/pclin-2.6-x86/lib/libcsr_tftp_lib.a(csr_tftp_free_up.o)
                                         0x38 (size before relaxing)
 .eh_frame      0x00000000080cf584       0xa0 ../output/default/pclin-2.6-x86/lib/libcsr_tftp_lib.a(csr_tftp_lib.o)
                                         0xb8 (size before relaxing)
 .eh_frame      0x00000000080cf624       0x64 /usr/lib/i386-linux-gnu/libc_nonshared.a(elf-init.oS)
                                         0x7c (size before relaxing)
 .eh_frame      0x00000000080cf688       0x20 /usr/lib/i386-linux-gnu/libc_nonshared.a(stat.oS)
                                         0x4c (size before relaxing)
 .eh_frame      0x00000000080cf6a8        0x4 /usr/lib/gcc/i686-linux-gnu/4.6/crtend.o

.gcc_except_table
 *(.gcc_except_table .gcc_except_table.*)

.exception_ranges
 *(.exception_ranges .exception_ranges*)
                0x00000000080cf6ac                . = (ALIGN (0x1000) - ((0x1000 - .) & 0xfff))
                0x00000000080d0f04                . = DATA_SEGMENT_ALIGN (0x1000, 0x1000)

.eh_frame
 *(.eh_frame)

.gcc_except_table
 *(.gcc_except_table .gcc_except_table.*)

.exception_ranges
 *(.exception_ranges .exception_ranges*)

.tdata
 *(.tdata .tdata.* .gnu.linkonce.td.*)

.tbss
 *(.tbss .tbss.* .gnu.linkonce.tb.*)
 *(.tcommon)

.preinit_array  0x00000000080d0f04        0x0
                0x00000000080d0f04                PROVIDE (__preinit_array_start, .)
 *(.preinit_array)
                0x00000000080d0f04                PROVIDE (__preinit_array_end, .)

.init_array     0x00000000080d0f04        0x0
                0x00000000080d0f04                PROVIDE (__init_array_start, .)
 *(SORT(.init_array.*) SORT(.ctors.*))
 *(.init_array)
 *(EXCLUDE_FILE(*crtend?.o *crtend.o *crtbegin?.o *crtbegin.o) .ctors)
                0x00000000080d0f04                PROVIDE (__init_array_end, .)

.fini_array     0x00000000080d0f04        0x0
                0x00000000080d0f04                PROVIDE (__fini_array_start, .)
 *(SORT(.fini_array.*) SORT(.dtors.*))
 *(.fini_array)
 *(EXCLUDE_FILE(*crtend?.o *crtend.o *crtbegin?.o *crtbegin.o) .dtors)
                0x00000000080d0f04                PROVIDE (__fini_array_end, .)

.ctors          0x00000000080d0f04        0x8
 *crtbegin.o(.ctors)
 .ctors         0x00000000080d0f04        0x4 /usr/lib/gcc/i686-linux-gnu/4.6/crtbegin.o
 *crtbegin?.o(.ctors)
 *(EXCLUDE_FILE(*crtend?.o *crtend.o) .ctors)
 *(SORT(.ctors.*))
 *(.ctors)
 .ctors         0x00000000080d0f08        0x4 /usr/lib/gcc/i686-linux-gnu/4.6/crtend.o

.dtors          0x00000000080d0f0c        0x8
 *crtbegin.o(.dtors)
 .dtors         0x00000000080d0f0c        0x4 /usr/lib/gcc/i686-linux-gnu/4.6/crtbegin.o
 *crtbegin?.o(.dtors)
 *(EXCLUDE_FILE(*crtend?.o *crtend.o) .dtors)
 *(SORT(.dtors.*))
 *(.dtors)
 .dtors         0x00000000080d0f10        0x4 /usr/lib/gcc/i686-linux-gnu/4.6/crtend.o
                0x00000000080d0f10                __DTOR_END__

.jcr            0x00000000080d0f14        0x4
 *(.jcr)
 .jcr           0x00000000080d0f14        0x0 /usr/lib/gcc/i686-linux-gnu/4.6/crtbegin.o
 .jcr           0x00000000080d0f14        0x4 /usr/lib/gcc/i686-linux-gnu/4.6/crtend.o

.data.rel.ro
 *(.data.rel.ro.local* .gnu.linkonce.d.rel.ro.local.*)
 *(.data.rel.ro* .gnu.linkonce.d.rel.ro.*)

.dynamic        0x00000000080d0f18       0xd8
 *(.dynamic)
 .dynamic       0x00000000080d0f18       0xd8 /usr/lib/gcc/i686-linux-gnu/4.6/../../../i386-linux-gnu/crt1.o
                0x00000000080d0f18                _DYNAMIC

.got            0x00000000080d0ff0        0x4
 *(.got)
 .got           0x00000000080d0ff0        0x4 /usr/lib/gcc/i686-linux-gnu/4.6/../../../i386-linux-gnu/crt1.o
 *(.igot)
                0x00000000080d0ff4                . = DATA_SEGMENT_RELRO_END (., 0xc)

.got.plt        0x00000000080d0ff4      0x1c4
 *(.got.plt)
 .got.plt       0x00000000080d0ff4      0x1c4 /usr/lib/gcc/i686-linux-gnu/4.6/../../../i386-linux-gnu/crt1.o
                0x00000000080d0ff4                _GLOBAL_OFFSET_TABLE_
 *(.igot.plt)
 .igot.plt      0x0000000000000000        0x0 /usr/lib/gcc/i686-linux-gnu/4.6/../../../i386-linux-gnu/crt1.o

.data           0x00000000080d11c0      0x230
 *(.data .data.* .gnu.linkonce.d.*)
 .data          0x00000000080d11c0        0x4 /usr/lib/gcc/i686-linux-gnu/4.6/../../../i386-linux-gnu/crt1.o
                0x00000000080d11c0                data_start
                0x00000000080d11c0                __data_start
 .data          0x00000000080d11c4        0x0 /usr/lib/gcc/i686-linux-gnu/4.6/../../../i386-linux-gnu/crti.o
 .data          0x00000000080d11c4        0x4 /usr/lib/gcc/i686-linux-gnu/4.6/crtbegin.o
                0x00000000080d11c4                __dso_handle
 .data          0x00000000080d11c8        0x0 output/default/pclin-2.6-x86/obj/csr_tasks.o
 .data          0x00000000080d11c8        0x0 output/default/pclin-2.6-x86/obj/bootstrap/csr_bootstrap_generic.o
 .data          0x00000000080d11c8        0x0 output/default/pclin-2.6-x86/obj/bootstrap/csr_bootstrap_specific_string_based.o
 .data          0x00000000080d11c8        0x0 output/default/pclin-2.6-x86/obj/bootstrap/psr/pb-101r2_7558_uart.o
 .data          0x00000000080d11c8        0x0 output/default/pclin-2.6-x86/obj/bootstrap/psr/pb-14r2_3164.o
 .data          0x00000000080d11c8        0x0 output/default/pclin-2.6-x86/obj/bootstrap/psr/pb-22r14_4363.o
 .data          0x00000000080d11c8        0x0 output/default/pclin-2.6-x86/obj/bootstrap/psr/pb-26r17_4698.o
 .data          0x00000000080d11c8        0x0 output/default/pclin-2.6-x86/obj/bootstrap/psr/pb-27r20_4841.o
 .data          0x00000000080d11c8        0x0 output/default/pclin-2.6-x86/obj/bootstrap/psr/pb-28r2_4839.o
 .data          0x00000000080d11c8        0x0 output/default/pclin-2.6-x86/obj/bootstrap/psr/pb-2r17_1958.o
 .data          0x00000000080d11c8        0x0 output/default/pclin-2.6-x86/obj/bootstrap/psr/pb-49r3_5892.o
 .data          0x00000000080d11c8        0x0 output/default/pclin-2.6-x86/obj/bootstrap/psr/pb-51r22_5985_bga.o
 .data          0x00000000080d11c8        0x0 output/default/pclin-2.6-x86/obj/bootstrap/psr/pb-51r22_5985_csp0p4.o
 .data          0x00000000080d11c8        0x0 output/default/pclin-2.6-x86/obj/bootstrap/psr/pb-51r22_5985_csp0p5.o
 .data          0x00000000080d11c8        0x0 output/default/pclin-2.6-x86/obj/bootstrap/psr/pb-51r26_5985_bga.o
 .data          0x00000000080d11c8        0x0 output/default/pclin-2.6-x86/obj/bootstrap/psr/pb-51r26_5985_csp0p4.o
 .data          0x00000000080d11c8        0x0 output/default/pclin-2.6-x86/obj/bootstrap/psr/pb-51r26_5985_csp0p5.o
 .data          0x00000000080d11c8        0x0 output/default/pclin-2.6-x86/obj/bootstrap/psr/pb-53r7_6247_csp.o
 .data          0x00000000080d11c8        0x0 output/default/pclin-2.6-x86/obj/bootstrap/psr/pb-53r7_6247_qfn.o
 .data          0x00000000080d11c8        0x0 output/default/pclin-2.6-x86/obj/bootstrap/psr/pb-75_6455_csp.o
 .data          0x00000000080d11c8        0x0 output/default/pclin-2.6-x86/obj/bootstrap/psr/pb-84r2_6817_csp.o
 .data          0x00000000080d11c8        0x0 output/default/pclin-2.6-x86/obj/bootstrap/psr/pb-90r1_6817.o
 .data          0x00000000080d11c8        0x0 output/default/pclin-2.6-x86/obj/bootstrap/psr/ps-default.o
 .data          0x00000000080d11c8        0x0 output/default/pclin-2.6-x86/obj/bootstrap/psr/ps-gemini_a06.o
 .data          0x00000000080d11c8        0x0 ../output/default/pclin-2.6-x86/lib/libcsr_sched.a(csr_sched.o)
 .data          0x00000000080d11c8        0x0 ../output/default/pclin-2.6-x86/lib/libcsr_ui.a(csr_ui_ctrl.o)
 .data          0x00000000080d11c8        0x0 ../output/default/pclin-2.6-x86/lib/libcsr_ui.a(csr_ui_displaystack.o)
 .data          0x00000000080d11c8        0x0 ../output/default/pclin-2.6-x86/lib/libcsr_ui.a(csr_ui_emulator_touchdecoder.o)
 .data          0x00000000080d11c8        0x0 ../output/default/pclin-2.6-x86/lib/libcsr_ui.a(csr_ui_keyhandler.o)
 .data          0x00000000080d11c8        0x0 ../output/default/pclin-2.6-x86/lib/libcsr_ui.a(csr_ui_renderer.o)
 .data          0x00000000080d11c8        0x0 ../output/default/pclin-2.6-x86/lib/libcsr_ui.a(csr_ui_renderer_text.o)
 .data          0x00000000080d11c8        0x0 ../output/default/pclin-2.6-x86/lib/libcsr_ui.a(csr_ui_sef.o)
 .data          0x00000000080d11c8        0x0 ../output/default/pclin-2.6-x86/lib/libcsr_ui.a(csr_ui_uiemanager.o)
 .data          0x00000000080d11c8        0x0 ../output/default/pclin-2.6-x86/lib/libcsr_ui.a(csr_ui_util.o)
 .data          0x00000000080d11c8        0x0 ../output/default/pclin-2.6-x86/lib/libcsr_ui.a(csr_ui_free_down.o)
 .data          0x00000000080d11c8        0x0 ../output/default/pclin-2.6-x86/lib/libcsr_ui.a(csr_ui_graphics_driver.o)
 .data          0x00000000080d11c8        0x0 ../output/default/pclin-2.6-x86/lib/libcsr_ui.a(csr_ui_icon.o)
 .data          0x00000000080d11c8        0x0 ../output/default/pclin-2.6-x86/lib/libcsr_ui.a(csr_ui_font_sax_mono_12x22.o)
 .data          0x00000000080d11c8        0x0 ../output/default/pclin-2.6-x86/lib/libcsr_ui.a(csr_ui_font_sax_mono_10x21.o)
 .data          0x00000000080d11c8        0x0 ../output/default/pclin-2.6-x86/lib/libcsr_app.a(csr_app_handler.o)
 .data          0x00000000080d11c8        0x0 ../output/default/pclin-2.6-x86/lib/libcsr_app.a(csr_app_ui_sef.o)
 .data          0x00000000080d11c8        0x0 ../output/default/pclin-2.6-x86/lib/libcsr_app.a(csr_app_util.o)
 .data          0x00000000080d11c8        0x0 ../output/default/pclin-2.6-x86/lib/libcsr_app.a(csr_app_free_down.o)
 .data          0x00000000080d11c8        0x0 ../output/default/pclin-2.6-x86/lib/libcsr_app.a(csr_app_lower_private.o)
 .data          0x00000000080d11c8        0x0 ../bsp/ports/pclin/output/default/pclin-2.6-x86/lib/libcsr_main.a(csr_main.o)
 .data          0x00000000080d11c8        0x0 ../output/default/pclin-2.6-x86/lib/libcsr_arg_search.a(csr_arg_search.o)
 .data          0x00000000080d11c8        0x0 ../bsp/ports/pclin/output/default/pclin-2.6-x86/lib/libcsr_app_main_bluecore.a(csr_app_main.o)
 .data          0x00000000080d11c8        0x0 ../bsp/ports/pclin/output/default/pclin-2.6-x86/lib/libcsr_app_main_bluecore.a(csr_key_input.o)
 .data          0x00000000080d11c8        0x1 ../bsp/ports/pclin/output/default/pclin-2.6-x86/lib/libcsr_app_main_bluecore.a(csr_ui_lower.o)
 *fill*         0x00000000080d11c9        0x3 00
 .data          0x00000000080d11cc        0xe ../bsp/ports/pclin/output/default/pclin-2.6-x86/lib/libcsr_app_main_bluecore.a(csr_app_main_transport_bluecore.o)
 *fill*         0x00000000080d11da        0x2 00
 .data          0x00000000080d11dc        0x0 ../output/default/pclin-2.6-x86/lib/libcsr_tm_bluecore.a(csr_tm_bluecore_handler.o)
 .data          0x00000000080d11dc        0x0 ../output/default/pclin-2.6-x86/lib/libcsr_tm_bluecore.a(csr_tm_bluecore_sef.o)
 .data          0x00000000080d11dc        0x0 ../output/default/pclin-2.6-x86/lib/libcsr_tm_bluecore.a(csr_tm_bluecore_transport.o)
 .data          0x00000000080d11dc        0x0 ../output/default/pclin-2.6-x86/lib/libcsr_bccmd.a(csr_bccmd_handler.o)
 .data          0x00000000080d11dc        0x0 ../output/default/pclin-2.6-x86/lib/libcsr_bccmd.a(csr_bccmd_lib.o)
 .data          0x00000000080d11dc        0x0 ../output/default/pclin-2.6-x86/lib/libcsr_bccmd.a(csr_bccmd_sef.o)
 .data          0x00000000080d11dc        0x0 ../output/default/pclin-2.6-x86/lib/libcsr_bccmd.a(csr_bccmd_private_lib.o)
 .data          0x00000000080d11dc        0x0 ../output/default/pclin-2.6-x86/lib/libcsr_bccmd.a(csr_bccmd_util.o)
 .data          0x00000000080d11dc        0x0 ../output/default/pclin-2.6-x86/lib/libcsr_bccmd.a(csr_bccmd_free_up.o)
 .data          0x00000000080d11dc        0x0 ../output/default/pclin-2.6-x86/lib/libcsr_fastpipe.a(csr_fp_handler.o)
 .data          0x00000000080d11dc        0x0 ../output/default/pclin-2.6-x86/lib/libcsr_fastpipe.a(csr_fp_sef.o)
 .data          0x00000000080d11dc        0x0 ../output/default/pclin-2.6-x86/lib/libcsr_fastpipe.a(csr_fp_free_down.o)
 .data          0x00000000080d11dc        0x0 ../output/default/pclin-2.6-x86/lib/libcsr_hq.a(csr_hq_handler.o)
 .data          0x00000000080d11dc        0x0 ../output/default/pclin-2.6-x86/lib/libcsr_hq.a(csr_hq_subscriber.o)
 .data          0x00000000080d11dc        0x0 ../output/default/pclin-2.6-x86/lib/libcsr_hq.a(csr_hq_sef.o)
 .data          0x00000000080d11dc        0x0 ../output/default/pclin-2.6-x86/lib/libcsr_hq.a(csr_hq_free_down.o)
 .data          0x00000000080d11dc        0x0 ../output/default/pclin-2.6-x86/lib/libcsr_vm.a(csr_vm_handler.o)
 .data          0x00000000080d11dc        0x0 ../output/default/pclin-2.6-x86/lib/libcsr_vm.a(csr_vm_free_down.o)
 .data          0x00000000080d11dc        0x0 ../output/default/pclin-2.6-x86/lib/libcsr_am.a(csr_am_handler.o)
 .data          0x00000000080d11dc        0x0 ../output/default/pclin-2.6-x86/lib/libcsr_am.a(csr_am_util.o)
 .data          0x00000000080d11dc        0x0 ../output/default/pclin-2.6-x86/lib/libcsr_am.a(csr_am_sef.o)
 .data          0x00000000080d11dc        0x0 ../output/default/pclin-2.6-x86/lib/libcsr_am.a(csr_am_free_down.o)
 .data          0x00000000080d11dc        0x0 ../output/default/pclin-2.6-x86/lib/libcsr_hci.a(csr_hci_handler.o)
 .data          0x00000000080d11dc        0x0 ../output/default/pclin-2.6-x86/lib/libcsr_hci.a(csr_hci_lib.o)
 .data          0x00000000080d11dc        0x0 ../output/default/pclin-2.6-x86/lib/libcsr_hci.a(csr_hci_sef.o)
 .data          0x00000000080d11dc        0x0 ../output/default/pclin-2.6-x86/lib/libcsr_hci.a(csr_hci_util.o)
 .data          0x00000000080d11dc        0x0 ../output/default/pclin-2.6-x86/lib/libcsr_hci.a(csr_hci_sco.o)
 .data          0x00000000080d11dc        0x0 ../output/default/pclin-2.6-x86/lib/libcsr_hci.a(csr_hci_free_down.o)
 .data          0x00000000080d11dc        0x0 ../output/default/pclin-2.6-x86/lib/libcsr_hci.a(csr_hci_free_up.o)
 .data          0x00000000080d11dc        0x0 ../output/default/pclin-2.6-x86/lib/libcsr_hci.a(csr_hci_private_free_up.o)
 .data          0x00000000080d11dc        0x0 ../output/default/pclin-2.6-x86/lib/libcsr_bluecore_manager.a(csr_bluecore_manager_handler.o)
 .data          0x00000000080d11dc        0x0 ../output/default/pclin-2.6-x86/lib/libcsr_bluecore_manager.a(csr_bluecore_manager_sef.o)
 .data          0x00000000080d11dc        0x0 ../output/default/pclin-2.6-x86/lib/libcsr_ethernet_manager.a(csr_ethernet_manager.o)
 .data          0x00000000080d11dc        0x0 ../output/default/pclin-2.6-x86/lib/libcsr_tcp_transceiver.a(csr_tcp_transceiver_handler.o)
 .data          0x00000000080d11dc       0x13 ../output/default/pclin-2.6-x86/lib/libcsr_tcp_transceiver.a(csr_tcp_transceiver_sef.o)
 *fill*         0x00000000080d11ef        0x1 00
 .data          0x00000000080d11f0        0x0 ../bsp/ports/pclin/output/default/pclin-2.6-x86/lib/libcsr_ip.a(csr_ip_handler.o)
 .data          0x00000000080d11f0        0x0 ../bsp/ports/pclin/output/default/pclin-2.6-x86/lib/libcsr_ip.a(csr_ip_ifconfig_sef.o)
 .data          0x00000000080d11f0        0x0 ../bsp/ports/pclin/output/default/pclin-2.6-x86/lib/libcsr_ip.a(csr_ip_netlink_parser.o)
 .data          0x00000000080d11f0       0x28 ../bsp/ports/pclin/output/default/pclin-2.6-x86/lib/libcsr_ip.a(csr_ip_socket_sef.o)
 .data          0x00000000080d1218        0x0 ../bsp/ports/pclin/output/default/pclin-2.6-x86/lib/libcsr_ip.a(csr_ip_thread.o)
 .data          0x00000000080d1218        0x0 ../bsp/ports/pclin/output/default/pclin-2.6-x86/lib/libcsr_ip.a(csr_ip_util.o)
 .data          0x00000000080d1218        0x0 ../bsp/ports/pclin/output/default/pclin-2.6-x86/lib/libcsr_ip.a(csr_ip_ether_sef.o)
 .data          0x00000000080d1218        0x0 ../output/default/pclin-2.6-x86/lib/libcsr_ip_ether_lib.a(csr_ip_ether_free_down.o)
 .data          0x00000000080d1218        0x0 ../output/default/pclin-2.6-x86/lib/libcsr_ip_ether_lib.a(csr_ip_ether_private_lib.o)
 .data          0x00000000080d1218        0x0 ../output/default/pclin-2.6-x86/lib/libcsr_ip_socket_lib.a(csr_ip_socket_free_up.o)
 .data          0x00000000080d1218        0x0 ../output/default/pclin-2.6-x86/lib/libcsr_ip_socket_lib.a(csr_ip_socket_free_down.o)
 .data          0x00000000080d1218        0x0 ../output/default/pclin-2.6-x86/lib/libcsr_ip_socket_lib.a(csr_ip_socket_lib.o)
 .data          0x00000000080d1218        0x0 ../output/default/pclin-2.6-x86/lib/libcsr_ip_socket_lib.a(csr_ip_socket_private_lib.o)
 .data          0x00000000080d1218        0x0 ../output/default/pclin-2.6-x86/lib/libcsr_ip_ifconfig_lib.a(csr_ip_ifconfig_free_up.o)
 .data          0x00000000080d1218        0x0 ../output/default/pclin-2.6-x86/lib/libcsr_ip_ifconfig_lib.a(csr_ip_ifconfig_free_down.o)
 .data          0x00000000080d1218        0x0 ../output/default/pclin-2.6-x86/lib/libcsr_ip_ifconfig_lib.a(csr_ip_ifconfig_lib.o)
 .data          0x00000000080d1218        0x0 ../output/default/pclin-2.6-x86/lib/libcsr_ip_ifconfig_lib.a(csr_ip_ifconfig_private_lib.o)
 .data          0x00000000080d1218        0x0 ../output/default/pclin-2.6-x86/lib/libcsr_dhcp_server_manager.a(csr_dhcp_server_manager.o)
 .data          0x00000000080d1218        0x0 ../output/default/pclin-2.6-x86/lib/libcsr_dhcp_server.a(csr_dhcp_server_handler.o)
 .data          0x00000000080d1218        0x0 ../output/default/pclin-2.6-x86/lib/libcsr_dhcp_server.a(csr_dhcp_server_sef.o)
 .data          0x00000000080d1218        0x0 ../output/default/pclin-2.6-x86/lib/libcsr_dhcp_server.a(csr_dhcp_server_util.o)
 .data          0x00000000080d1218        0x0 ../output/default/pclin-2.6-x86/lib/libcsr_dhcp_server_lib.a(csr_dhcp_server_free_down.o)
 .data          0x00000000080d1218        0x0 ../output/default/pclin-2.6-x86/lib/libcsr_dhcp_server_lib.a(csr_dhcp_server_lib.o)
 .data          0x00000000080d1218        0x0 ../output/default/pclin-2.6-x86/lib/libcsr_dhcp_server_lib.a(csr_dhcp_server_lib_priv.o)
 .data          0x00000000080d1218        0x0 ../output/default/pclin-2.6-x86/lib/libcsr_tftp.a(csr_tftp_handler.o)
 .data          0x00000000080d1218        0x0 ../output/default/pclin-2.6-x86/lib/libcsr_tftp.a(csr_tftp_sef.o)
 .data          0x00000000080d1218        0x0 ../output/default/pclin-2.6-x86/lib/libcsr_tftp_lib.a(csr_tftp_free_down.o)
 .data          0x00000000080d1218        0x0 ../output/default/pclin-2.6-x86/lib/libcsr_tftp_lib.a(csr_tftp_lib_priv.o)
 .data          0x00000000080d1218        0x0 ../output/default/pclin-2.6-x86/lib/libcsr_tftp_file.a(csr_tftp_file_handler.o)
 .data          0x00000000080d1218        0x0 ../output/default/pclin-2.6-x86/lib/libcsr_tftp_file.a(csr_tftp_file_sef.o)
 .data          0x00000000080d1218        0x0 ../output/default/pclin-2.6-x86/lib/libcsr_fsal.a(csr_fsal_handler.o)
 .data          0x00000000080d1218        0x0 ../output/default/pclin-2.6-x86/lib/libcsr_fsal.a(csr_fsal_sef.o)
 .data          0x00000000080d1218        0x0 ../output/default/pclin-2.6-x86/lib/libcsr_fsal.a(csr_fsal_sef_utils.o)
 .data          0x00000000080d1218        0x0 ../output/default/pclin-2.6-x86/lib/libcsr_fsal.a(csr_fsal_utils.o)
 .data          0x00000000080d1218        0x0 ../output/default/pclin-2.6-x86/lib/libcsr_fsal_lib.a(csr_fsal_free_up.o)
 .data          0x00000000080d1218        0x0 ../output/default/pclin-2.6-x86/lib/libcsr_fsal_lib.a(csr_fsal_free_down.o)
 .data          0x00000000080d1218        0x0 ../output/default/pclin-2.6-x86/lib/libcsr_fsal_lib.a(csr_fsal_lib.o)
 .data          0x00000000080d1218        0x0 ../output/default/pclin-2.6-x86/lib/libcsr_fsal_lib.a(csr_fsal_lib_priv.o)
 .data          0x00000000080d1218        0x0 ../output/default/pclin-2.6-x86/lib/libcsr_list.a(csr_list.o)
 .data          0x00000000080d1218        0x0 ../output/default/pclin-2.6-x86/lib/libcsr_message_queue.a(csr_message_queue.o)
 .data          0x00000000080d1218        0x0 ../output/default/pclin-2.6-x86/lib/libcsr_formatted_io.a(csr_formatted_io.o)
 .data          0x00000000080d1218        0x0 ../output/default/pclin-2.6-x86/lib/libcsr_unicode.a(csr_utf16.o)
 .data          0x00000000080d1218        0x0 ../output/default/pclin-2.6-x86/lib/libcsr_mblk.a(csr_mblk.o)
 .data          0x00000000080d1218        0x0 ../output/default/pclin-2.6-x86/lib/libcsr_mblk.a(csr_mblk_duplicate.o)
 .data          0x00000000080d1218        0x0 ../output/default/pclin-2.6-x86/lib/libcsr_mblk.a(csr_mblk_pmalloc.o)
 .data          0x00000000080d1218        0x0 ../output/default/pclin-2.6-x86/lib/libcsr_mblk.a(csr_mblk_read_head.o)
 *fill*         0x00000000080d1218        0x8 00
 .data          0x00000000080d1220       0x30 ../output/default/pclin-2.6-x86/lib/libcsr_bcsp.a(csr_abcsp_transport.o)
                0x00000000080d124c                CsrBluecoreTransportBcsp
 .data          0x00000000080d1250        0x0 ../output/default/pclin-2.6-x86/lib/libcsr_bcsp.a(csr_abcsp_init_c.o)
 .data          0x00000000080d1250        0x0 ../output/default/pclin-2.6-x86/lib/libcsr_bcsp.a(csr_abcsp_events.o)
 .data          0x00000000080d1250        0x0 ../output/default/pclin-2.6-x86/lib/libcsr_bcsp.a(csr_abcsp_rd_hl.o)
 .data          0x00000000080d1250        0x0 ../output/default/pclin-2.6-x86/lib/libcsr_bcsp.a(csr_abcsp_le.o)
 .data          0x00000000080d1250        0x0 ../output/default/pclin-2.6-x86/lib/libcsr_bcsp.a(csr_abcsp_rx.o)
 .data          0x00000000080d1250        0x0 ../output/default/pclin-2.6-x86/lib/libcsr_bcsp.a(csr_abcsp_txmsg.o)
 .data          0x00000000080d1250        0x0 ../output/default/pclin-2.6-x86/lib/libcsr_bcsp.a(csr_abcsp_tx_rx_msg_intf.o)
 .data          0x00000000080d1250        0x0 ../output/default/pclin-2.6-x86/lib/libcsr_bcsp.a(csr_abcsp_txslip.o)
 .data          0x00000000080d1250        0x0 ../output/default/pclin-2.6-x86/lib/libcsr_bcsp.a(csr_abcsp_timers.o)
 .data          0x00000000080d1250        0x0 ../output/default/pclin-2.6-x86/lib/libcsr_bcsp.a(csr_abcsp_tx_handle.o)
 .data          0x00000000080d1250        0x0 ../output/default/pclin-2.6-x86/lib/libcsr_bcsp.a(csr_abcsp_crc.o)
 *fill*         0x00000000080d1250       0x10 00
 .data          0x00000000080d1260       0x30 ../output/default/pclin-2.6-x86/lib/libcsr_h4ds.a(csr_h4ds_transport.o)
                0x00000000080d128c                CsrBluecoreTransportH4DS
 .data          0x00000000080d1290        0x0 ../output/default/pclin-2.6-x86/lib/libcsr_h4ds.a(csr_h4ds_initialize.o)
 .data          0x00000000080d1290        0x0 ../output/default/pclin-2.6-x86/lib/libcsr_h4ds.a(csr_h4ds_pump_msg.o)
 .data          0x00000000080d1290        0x0 ../output/default/pclin-2.6-x86/lib/libcsr_h4ds.a(csr_h4ds_init.o)
 .data          0x00000000080d1290        0x0 ../output/default/pclin-2.6-x86/lib/libcsr_h4ds.a(csr_h4ds_le.o)
 .data          0x00000000080d1290        0x0 ../output/default/pclin-2.6-x86/lib/libcsr_h4ds.a(csr_h4ds_tx.o)
 .data          0x00000000080d1290        0x0 ../output/default/pclin-2.6-x86/lib/libcsr_h4ds.a(csr_h4ds_ds.o)
 .data          0x00000000080d1290        0x0 ../output/default/pclin-2.6-x86/lib/libcsr_h4ds.a(csr_h4ds_rx.o)
 .data          0x00000000080d1290        0x0 ../output/default/pclin-2.6-x86/lib/libcsr_h4ds.a(csr_h4ds_pump.o)
 .data          0x00000000080d1290        0x0 ../output/default/pclin-2.6-x86/lib/libcsr_h4ds.a(csr_h4_events.o)
 .data          0x00000000080d1290        0x0 ../output/default/pclin-2.6-x86/lib/libcsr_h4ds.a(csr_h4_int_handle.o)
 .data          0x00000000080d1290        0x0 ../output/default/pclin-2.6-x86/lib/libcsr_h4ds.a(csr_h4_tx.o)
 .data          0x00000000080d1290        0x0 ../output/default/pclin-2.6-x86/lib/libcsr_h4ds.a(csr_h4_rx.o)
 .data          0x00000000080d1290        0x0 ../output/default/pclin-2.6-x86/lib/libcsr_h4ds.a(csr_h4ds_event.o)
 .data          0x00000000080d1290        0x0 ../output/default/pclin-2.6-x86/lib/libcsr_h4ds.a(csr_h4ds_timers.o)
 .data          0x00000000080d1290        0x0 ../output/default/pclin-2.6-x86/lib/libcsr_h4ds.a(csr_h4ds_low_level_transport.o)
 .data          0x00000000080d1290        0x0 ../output/default/pclin-2.6-x86/lib/libcsr_h4ds.a(csr_h4ds_tx_handle.o)
 .data          0x00000000080d1290        0x0 ../output/default/pclin-2.6-x86/lib/libcsr_h4ds.a(csr_h4ds_msgs.o)
 .data          0x00000000080d1290        0x0 ../output/default/pclin-2.6-x86/lib/libcsr_h4ds.a(csr_h4ds_scanner.o)
 .data          0x00000000080d1290        0x0 ../output/default/pclin-2.6-x86/lib/libcsr_queue_lib.a(csr_queue_lib.o)
 .data          0x00000000080d1290        0x0 ../bsp/ports/pclin/output/default/pclin-2.6-x86/lib/libcsr_util.a(csr_util.o)
 .data          0x00000000080d1290        0x0 ../bsp/ports/pclin/output/default/pclin-2.6-x86/lib/libcsr_pmem.a(csr_pmem.o)
 .data          0x00000000080d1290        0x0 ../bsp/ports/pclin/output/default/pclin-2.6-x86/lib/libcsr_time.a(csr_time.o)
 .data          0x00000000080d1290        0x0 ../bsp/ports/pclin/output/default/pclin-2.6-x86/lib/libcsr_panic.a(csr_panic.o)
 .data          0x00000000080d1290        0x2 ../bsp/ports/pclin/output/default/pclin-2.6-x86/lib/libcsr_ser_com.a(csr_serial_com.o)
 *fill*         0x00000000080d1292        0xe 00
 .data          0x00000000080d12a0      0x11f ../bsp/ports/pclin/output/default/pclin-2.6-x86/lib/libcsr_usb_com.a(csr_usb_com.o)
 *fill*         0x00000000080d13bf        0x1 00
 .data          0x00000000080d13c0        0x0 ../bsp/ports/pclin/output/default/pclin-2.6-x86/lib/libcsr_framework_ext.a(csr_framework_ext.o)
 .data          0x00000000080d13c0        0x0 ../bsp/ports/pclin/output/default/pclin-2.6-x86/lib/libcsr_fs.a(csr_posix_filesystem.o)
 .data          0x00000000080d13c0       0x30 ../output/default/pclin-2.6-x86/lib/libcsr_usb.a(csr_usb_transport.o)
                0x00000000080d13ec                CsrBluecoreTransportUsb
 .data          0x00000000080d13f0        0x0 ../output/default/pclin-2.6-x86/lib/libcsr_ui.a(csr_ui_lib.o)
 .data          0x00000000080d13f0        0x0 ../output/default/pclin-2.6-x86/lib/libcsr_ui.a(csr_ui_free_up.o)
 .data          0x00000000080d13f0        0x0 ../output/default/pclin-2.6-x86/lib/libcsr_app.a(csr_app_lib.o)
 .data          0x00000000080d13f0        0x0 ../output/default/pclin-2.6-x86/lib/libcsr_random.a(csr_random.o)
 .data          0x00000000080d13f0        0x0 ../output/default/pclin-2.6-x86/lib/libcsr_tm_bluecore.a(csr_tm_bluecore_lib.o)
 .data          0x00000000080d13f0        0x0 ../output/default/pclin-2.6-x86/lib/libcsr_tm_bluecore.a(csr_tm_bluecore_private_lib.o)
 .data          0x00000000080d13f0        0x0 ../output/default/pclin-2.6-x86/lib/libcsr_tftp_lib.a(csr_tftp_free_up.o)
 .data          0x00000000080d13f0        0x0 ../output/default/pclin-2.6-x86/lib/libcsr_tftp_lib.a(csr_tftp_lib.o)
 .data          0x00000000080d13f0        0x0 /usr/lib/i386-linux-gnu/libc_nonshared.a(elf-init.oS)
 .data          0x00000000080d13f0        0x0 /usr/lib/i386-linux-gnu/libc_nonshared.a(stat.oS)
 .data          0x00000000080d13f0        0x0 /usr/lib/gcc/i686-linux-gnu/4.6/crtend.o
 .data          0x00000000080d13f0        0x0 /usr/lib/gcc/i686-linux-gnu/4.6/../../../i386-linux-gnu/crtn.o

.data1
 *(.data1)
                0x00000000080d13f0                _edata = .
                0x00000000080d13f0                PROVIDE (edata, .)
                0x00000000080d13f0                __bss_start = .

.bss            0x00000000080d1400     0x3810
 *(.dynbss)
 .dynbss        0x00000000080d1400       0x24 /usr/lib/gcc/i686-linux-gnu/4.6/../../../i386-linux-gnu/crt1.o
                0x00000000080d1400                stderr@@GLIBC_2.0
                0x00000000080d1404                stdin@@GLIBC_2.0
                0x00000000080d1420                stdout@@GLIBC_2.0
 *(.bss .bss.* .gnu.linkonce.b.*)
 .bss           0x00000000080d1424        0x0 /usr/lib/gcc/i686-linux-gnu/4.6/../../../i386-linux-gnu/crt1.o
 .bss           0x00000000080d1424        0x0 /usr/lib/gcc/i686-linux-gnu/4.6/../../../i386-linux-gnu/crti.o
 .bss           0x00000000080d1424        0x8 /usr/lib/gcc/i686-linux-gnu/4.6/crtbegin.o
 .bss           0x00000000080d142c        0x4 output/default/pclin-2.6-x86/obj/csr_tasks.o
 .bss           0x00000000080d1430        0x4 output/default/pclin-2.6-x86/obj/bootstrap/csr_bootstrap_generic.o
 .bss           0x00000000080d1434        0x0 output/default/pclin-2.6-x86/obj/bootstrap/csr_bootstrap_specific_string_based.o
 .bss           0x00000000080d1434        0x0 output/default/pclin-2.6-x86/obj/bootstrap/psr/pb-101r2_7558_uart.o
 .bss           0x00000000080d1434        0x0 output/default/pclin-2.6-x86/obj/bootstrap/psr/pb-14r2_3164.o
 .bss           0x00000000080d1434        0x0 output/default/pclin-2.6-x86/obj/bootstrap/psr/pb-22r14_4363.o
 .bss           0x00000000080d1434        0x0 output/default/pclin-2.6-x86/obj/bootstrap/psr/pb-26r17_4698.o
 .bss           0x00000000080d1434        0x0 output/default/pclin-2.6-x86/obj/bootstrap/psr/pb-27r20_4841.o
 .bss           0x00000000080d1434        0x0 output/default/pclin-2.6-x86/obj/bootstrap/psr/pb-28r2_4839.o
 .bss           0x00000000080d1434        0x0 output/default/pclin-2.6-x86/obj/bootstrap/psr/pb-2r17_1958.o
 .bss           0x00000000080d1434        0x0 output/default/pclin-2.6-x86/obj/bootstrap/psr/pb-49r3_5892.o
 .bss           0x00000000080d1434        0x0 output/default/pclin-2.6-x86/obj/bootstrap/psr/pb-51r22_5985_bga.o
 .bss           0x00000000080d1434        0x0 output/default/pclin-2.6-x86/obj/bootstrap/psr/pb-51r22_5985_csp0p4.o
 .bss           0x00000000080d1434        0x0 output/default/pclin-2.6-x86/obj/bootstrap/psr/pb-51r22_5985_csp0p5.o
 .bss           0x00000000080d1434        0x0 output/default/pclin-2.6-x86/obj/bootstrap/psr/pb-51r26_5985_bga.o
 .bss           0x00000000080d1434        0x0 output/default/pclin-2.6-x86/obj/bootstrap/psr/pb-51r26_5985_csp0p4.o
 .bss           0x00000000080d1434        0x0 output/default/pclin-2.6-x86/obj/bootstrap/psr/pb-51r26_5985_csp0p5.o
 .bss           0x00000000080d1434        0x0 output/default/pclin-2.6-x86/obj/bootstrap/psr/pb-53r7_6247_csp.o
 .bss           0x00000000080d1434        0x0 output/default/pclin-2.6-x86/obj/bootstrap/psr/pb-53r7_6247_qfn.o
 .bss           0x00000000080d1434        0x0 output/default/pclin-2.6-x86/obj/bootstrap/psr/pb-75_6455_csp.o
 .bss           0x00000000080d1434        0x0 output/default/pclin-2.6-x86/obj/bootstrap/psr/pb-84r2_6817_csp.o
 .bss           0x00000000080d1434        0x0 output/default/pclin-2.6-x86/obj/bootstrap/psr/pb-90r1_6817.o
 .bss           0x00000000080d1434        0x0 output/default/pclin-2.6-x86/obj/bootstrap/psr/ps-default.o
 .bss           0x00000000080d1434        0x0 output/default/pclin-2.6-x86/obj/bootstrap/psr/ps-gemini_a06.o
 .bss           0x00000000080d1434        0x8 ../output/default/pclin-2.6-x86/lib/libcsr_sched.a(csr_sched.o)
 .bss           0x00000000080d143c        0x0 ../output/default/pclin-2.6-x86/lib/libcsr_ui.a(csr_ui_ctrl.o)
 .bss           0x00000000080d143c        0x0 ../output/default/pclin-2.6-x86/lib/libcsr_ui.a(csr_ui_displaystack.o)
 .bss           0x00000000080d143c        0x4 ../output/default/pclin-2.6-x86/lib/libcsr_ui.a(csr_ui_emulator_touchdecoder.o)
 .bss           0x00000000080d1440        0x0 ../output/default/pclin-2.6-x86/lib/libcsr_ui.a(csr_ui_keyhandler.o)
 .bss           0x00000000080d1440        0x0 ../output/default/pclin-2.6-x86/lib/libcsr_ui.a(csr_ui_renderer.o)
 .bss           0x00000000080d1440        0x0 ../output/default/pclin-2.6-x86/lib/libcsr_ui.a(csr_ui_renderer_text.o)
 .bss           0x00000000080d1440        0x0 ../output/default/pclin-2.6-x86/lib/libcsr_ui.a(csr_ui_sef.o)
 .bss           0x00000000080d1440        0x0 ../output/default/pclin-2.6-x86/lib/libcsr_ui.a(csr_ui_uiemanager.o)
 .bss           0x00000000080d1440        0x0 ../output/default/pclin-2.6-x86/lib/libcsr_ui.a(csr_ui_util.o)
 .bss           0x00000000080d1440        0x0 ../output/default/pclin-2.6-x86/lib/libcsr_ui.a(csr_ui_free_down.o)
 .bss           0x00000000080d1440        0x0 ../output/default/pclin-2.6-x86/lib/libcsr_ui.a(csr_ui_graphics_driver.o)
 .bss           0x00000000080d1440        0x0 ../output/default/pclin-2.6-x86/lib/libcsr_ui.a(csr_ui_icon.o)
 .bss           0x00000000080d1440        0x0 ../output/default/pclin-2.6-x86/lib/libcsr_ui.a(csr_ui_font_sax_mono_12x22.o)
 .bss           0x00000000080d1440        0x0 ../output/default/pclin-2.6-x86/lib/libcsr_ui.a(csr_ui_font_sax_mono_10x21.o)
 .bss           0x00000000080d1440        0x0 ../output/default/pclin-2.6-x86/lib/libcsr_app.a(csr_app_handler.o)
 .bss           0x00000000080d1440        0x0 ../output/default/pclin-2.6-x86/lib/libcsr_app.a(csr_app_ui_sef.o)
 .bss           0x00000000080d1440        0x0 ../output/default/pclin-2.6-x86/lib/libcsr_app.a(csr_app_util.o)
 .bss           0x00000000080d1440        0x0 ../output/default/pclin-2.6-x86/lib/libcsr_app.a(csr_app_free_down.o)
 .bss           0x00000000080d1440        0x4 ../output/default/pclin-2.6-x86/lib/libcsr_app.a(csr_app_lower_private.o)
                0x00000000080d1440                CsrAppLowerPrivateExitFunction
 .bss           0x00000000080d1444        0x0 ../bsp/ports/pclin/output/default/pclin-2.6-x86/lib/libcsr_main.a(csr_main.o)
 .bss           0x00000000080d1444        0x8 ../output/default/pclin-2.6-x86/lib/libcsr_arg_search.a(csr_arg_search.o)
 .bss           0x00000000080d144c        0x0 ../bsp/ports/pclin/output/default/pclin-2.6-x86/lib/libcsr_app_main_bluecore.a(csr_app_main.o)
 *fill*         0x00000000080d144c       0x14 00
 .bss           0x00000000080d1460       0x6c ../bsp/ports/pclin/output/default/pclin-2.6-x86/lib/libcsr_app_main_bluecore.a(csr_key_input.o)
 .bss           0x00000000080d14cc        0x1 ../bsp/ports/pclin/output/default/pclin-2.6-x86/lib/libcsr_app_main_bluecore.a(csr_ui_lower.o)
 *fill*         0x00000000080d14cd        0x3 00
 .bss           0x00000000080d14d0       0x18 ../bsp/ports/pclin/output/default/pclin-2.6-x86/lib/libcsr_app_main_bluecore.a(csr_app_main_transport_bluecore.o)
 .bss           0x00000000080d14e8        0x0 ../output/default/pclin-2.6-x86/lib/libcsr_tm_bluecore.a(csr_tm_bluecore_handler.o)
 .bss           0x00000000080d14e8        0x0 ../output/default/pclin-2.6-x86/lib/libcsr_tm_bluecore.a(csr_tm_bluecore_sef.o)
 .bss           0x00000000080d14e8        0x0 ../output/default/pclin-2.6-x86/lib/libcsr_tm_bluecore.a(csr_tm_bluecore_transport.o)
 .bss           0x00000000080d14e8        0x0 ../output/default/pclin-2.6-x86/lib/libcsr_bccmd.a(csr_bccmd_handler.o)
 .bss           0x00000000080d14e8        0x0 ../output/default/pclin-2.6-x86/lib/libcsr_bccmd.a(csr_bccmd_lib.o)
 .bss           0x00000000080d14e8        0x0 ../output/default/pclin-2.6-x86/lib/libcsr_bccmd.a(csr_bccmd_sef.o)
 .bss           0x00000000080d14e8        0x0 ../output/default/pclin-2.6-x86/lib/libcsr_bccmd.a(csr_bccmd_private_lib.o)
 .bss           0x00000000080d14e8        0x0 ../output/default/pclin-2.6-x86/lib/libcsr_bccmd.a(csr_bccmd_util.o)
 .bss           0x00000000080d14e8        0x0 ../output/default/pclin-2.6-x86/lib/libcsr_bccmd.a(csr_bccmd_free_up.o)
 .bss           0x00000000080d14e8        0x0 ../output/default/pclin-2.6-x86/lib/libcsr_fastpipe.a(csr_fp_handler.o)
 .bss           0x00000000080d14e8        0x0 ../output/default/pclin-2.6-x86/lib/libcsr_fastpipe.a(csr_fp_sef.o)
 .bss           0x00000000080d14e8        0x0 ../output/default/pclin-2.6-x86/lib/libcsr_fastpipe.a(csr_fp_free_down.o)
 .bss           0x00000000080d14e8        0x0 ../output/default/pclin-2.6-x86/lib/libcsr_hq.a(csr_hq_handler.o)
 .bss           0x00000000080d14e8        0x0 ../output/default/pclin-2.6-x86/lib/libcsr_hq.a(csr_hq_subscriber.o)
 .bss           0x00000000080d14e8        0x0 ../output/default/pclin-2.6-x86/lib/libcsr_hq.a(csr_hq_sef.o)
 .bss           0x00000000080d14e8        0x0 ../output/default/pclin-2.6-x86/lib/libcsr_hq.a(csr_hq_free_down.o)
 .bss           0x00000000080d14e8        0x0 ../output/default/pclin-2.6-x86/lib/libcsr_vm.a(csr_vm_handler.o)
 .bss           0x00000000080d14e8        0x0 ../output/default/pclin-2.6-x86/lib/libcsr_vm.a(csr_vm_free_down.o)
 .bss           0x00000000080d14e8        0x0 ../output/default/pclin-2.6-x86/lib/libcsr_am.a(csr_am_handler.o)
 .bss           0x00000000080d14e8        0x0 ../output/default/pclin-2.6-x86/lib/libcsr_am.a(csr_am_util.o)
 .bss           0x00000000080d14e8        0x0 ../output/default/pclin-2.6-x86/lib/libcsr_am.a(csr_am_sef.o)
 .bss           0x00000000080d14e8        0x0 ../output/default/pclin-2.6-x86/lib/libcsr_am.a(csr_am_free_down.o)
 .bss           0x00000000080d14e8        0x0 ../output/default/pclin-2.6-x86/lib/libcsr_hci.a(csr_hci_handler.o)
 .bss           0x00000000080d14e8        0x0 ../output/default/pclin-2.6-x86/lib/libcsr_hci.a(csr_hci_lib.o)
 .bss           0x00000000080d14e8        0x8 ../output/default/pclin-2.6-x86/lib/libcsr_hci.a(csr_hci_sef.o)
 .bss           0x00000000080d14f0        0x0 ../output/default/pclin-2.6-x86/lib/libcsr_hci.a(csr_hci_util.o)
 .bss           0x00000000080d14f0        0x4 ../output/default/pclin-2.6-x86/lib/libcsr_hci.a(csr_hci_sco.o)
 .bss           0x00000000080d14f4        0x0 ../output/default/pclin-2.6-x86/lib/libcsr_hci.a(csr_hci_free_down.o)
 .bss           0x00000000080d14f4        0x0 ../output/default/pclin-2.6-x86/lib/libcsr_hci.a(csr_hci_free_up.o)
 .bss           0x00000000080d14f4        0x0 ../output/default/pclin-2.6-x86/lib/libcsr_hci.a(csr_hci_private_free_up.o)
 .bss           0x00000000080d14f4        0x0 ../output/default/pclin-2.6-x86/lib/libcsr_bluecore_manager.a(csr_bluecore_manager_handler.o)
 .bss           0x00000000080d14f4        0x0 ../output/default/pclin-2.6-x86/lib/libcsr_bluecore_manager.a(csr_bluecore_manager_sef.o)
 .bss           0x00000000080d14f4        0x0 ../output/default/pclin-2.6-x86/lib/libcsr_ethernet_manager.a(csr_ethernet_manager.o)
 .bss           0x00000000080d14f4        0x0 ../output/default/pclin-2.6-x86/lib/libcsr_tcp_transceiver.a(csr_tcp_transceiver_handler.o)
 .bss           0x00000000080d14f4        0x0 ../output/default/pclin-2.6-x86/lib/libcsr_tcp_transceiver.a(csr_tcp_transceiver_sef.o)
 .bss           0x00000000080d14f4        0x0 ../bsp/ports/pclin/output/default/pclin-2.6-x86/lib/libcsr_ip.a(csr_ip_handler.o)
 .bss           0x00000000080d14f4        0x4 ../bsp/ports/pclin/output/default/pclin-2.6-x86/lib/libcsr_ip.a(csr_ip_ifconfig_sef.o)
 .bss           0x00000000080d14f8        0x0 ../bsp/ports/pclin/output/default/pclin-2.6-x86/lib/libcsr_ip.a(csr_ip_netlink_parser.o)
 .bss           0x00000000080d14f8        0x0 ../bsp/ports/pclin/output/default/pclin-2.6-x86/lib/libcsr_ip.a(csr_ip_socket_sef.o)
 .bss           0x00000000080d14f8        0x0 ../bsp/ports/pclin/output/default/pclin-2.6-x86/lib/libcsr_ip.a(csr_ip_thread.o)
 .bss           0x00000000080d14f8        0x0 ../bsp/ports/pclin/output/default/pclin-2.6-x86/lib/libcsr_ip.a(csr_ip_util.o)
 .bss           0x00000000080d14f8        0x0 ../bsp/ports/pclin/output/default/pclin-2.6-x86/lib/libcsr_ip.a(csr_ip_ether_sef.o)
 .bss           0x00000000080d14f8        0x0 ../output/default/pclin-2.6-x86/lib/libcsr_ip_ether_lib.a(csr_ip_ether_free_down.o)
 .bss           0x00000000080d14f8        0x0 ../output/default/pclin-2.6-x86/lib/libcsr_ip_ether_lib.a(csr_ip_ether_private_lib.o)
 .bss           0x00000000080d14f8        0x0 ../output/default/pclin-2.6-x86/lib/libcsr_ip_socket_lib.a(csr_ip_socket_free_up.o)
 .bss           0x00000000080d14f8        0x0 ../output/default/pclin-2.6-x86/lib/libcsr_ip_socket_lib.a(csr_ip_socket_free_down.o)
 .bss           0x00000000080d14f8        0x0 ../output/default/pclin-2.6-x86/lib/libcsr_ip_socket_lib.a(csr_ip_socket_lib.o)
 .bss           0x00000000080d14f8        0x0 ../output/default/pclin-2.6-x86/lib/libcsr_ip_socket_lib.a(csr_ip_socket_private_lib.o)
 .bss           0x00000000080d14f8        0x0 ../output/default/pclin-2.6-x86/lib/libcsr_ip_ifconfig_lib.a(csr_ip_ifconfig_free_up.o)
 .bss           0x00000000080d14f8        0x0 ../output/default/pclin-2.6-x86/lib/libcsr_ip_ifconfig_lib.a(csr_ip_ifconfig_free_down.o)
 .bss           0x00000000080d14f8        0x0 ../output/default/pclin-2.6-x86/lib/libcsr_ip_ifconfig_lib.a(csr_ip_ifconfig_lib.o)
 .bss           0x00000000080d14f8        0x0 ../output/default/pclin-2.6-x86/lib/libcsr_ip_ifconfig_lib.a(csr_ip_ifconfig_private_lib.o)
 .bss           0x00000000080d14f8        0x0 ../output/default/pclin-2.6-x86/lib/libcsr_dhcp_server_manager.a(csr_dhcp_server_manager.o)
 .bss           0x00000000080d14f8        0x0 ../output/default/pclin-2.6-x86/lib/libcsr_dhcp_server.a(csr_dhcp_server_handler.o)
 .bss           0x00000000080d14f8        0x0 ../output/default/pclin-2.6-x86/lib/libcsr_dhcp_server.a(csr_dhcp_server_sef.o)
 .bss           0x00000000080d14f8        0x0 ../output/default/pclin-2.6-x86/lib/libcsr_dhcp_server.a(csr_dhcp_server_util.o)
 .bss           0x00000000080d14f8        0x0 ../output/default/pclin-2.6-x86/lib/libcsr_dhcp_server_lib.a(csr_dhcp_server_free_down.o)
 .bss           0x00000000080d14f8        0x0 ../output/default/pclin-2.6-x86/lib/libcsr_dhcp_server_lib.a(csr_dhcp_server_lib.o)
 .bss           0x00000000080d14f8        0x0 ../output/default/pclin-2.6-x86/lib/libcsr_dhcp_server_lib.a(csr_dhcp_server_lib_priv.o)
 .bss           0x00000000080d14f8        0x0 ../output/default/pclin-2.6-x86/lib/libcsr_tftp.a(csr_tftp_handler.o)
 .bss           0x00000000080d14f8        0x0 ../output/default/pclin-2.6-x86/lib/libcsr_tftp.a(csr_tftp_sef.o)
 .bss           0x00000000080d14f8        0x0 ../output/default/pclin-2.6-x86/lib/libcsr_tftp_lib.a(csr_tftp_free_down.o)
 .bss           0x00000000080d14f8        0x0 ../output/default/pclin-2.6-x86/lib/libcsr_tftp_lib.a(csr_tftp_lib_priv.o)
 .bss           0x00000000080d14f8        0x0 ../output/default/pclin-2.6-x86/lib/libcsr_tftp_file.a(csr_tftp_file_handler.o)
 .bss           0x00000000080d14f8        0x0 ../output/default/pclin-2.6-x86/lib/libcsr_tftp_file.a(csr_tftp_file_sef.o)
 .bss           0x00000000080d14f8        0x0 ../output/default/pclin-2.6-x86/lib/libcsr_fsal.a(csr_fsal_handler.o)
 .bss           0x00000000080d14f8        0x0 ../output/default/pclin-2.6-x86/lib/libcsr_fsal.a(csr_fsal_sef.o)
 .bss           0x00000000080d14f8        0x0 ../output/default/pclin-2.6-x86/lib/libcsr_fsal.a(csr_fsal_sef_utils.o)
 .bss           0x00000000080d14f8        0x0 ../output/default/pclin-2.6-x86/lib/libcsr_fsal.a(csr_fsal_utils.o)
 .bss           0x00000000080d14f8        0x0 ../output/default/pclin-2.6-x86/lib/libcsr_fsal_lib.a(csr_fsal_free_up.o)
 .bss           0x00000000080d14f8        0x0 ../output/default/pclin-2.6-x86/lib/libcsr_fsal_lib.a(csr_fsal_free_down.o)
 .bss           0x00000000080d14f8        0x0 ../output/default/pclin-2.6-x86/lib/libcsr_fsal_lib.a(csr_fsal_lib.o)
 .bss           0x00000000080d14f8        0x0 ../output/default/pclin-2.6-x86/lib/libcsr_fsal_lib.a(csr_fsal_lib_priv.o)
 .bss           0x00000000080d14f8        0x0 ../output/default/pclin-2.6-x86/lib/libcsr_list.a(csr_list.o)
 .bss           0x00000000080d14f8        0x0 ../output/default/pclin-2.6-x86/lib/libcsr_message_queue.a(csr_message_queue.o)
 .bss           0x00000000080d14f8        0x0 ../output/default/pclin-2.6-x86/lib/libcsr_formatted_io.a(csr_formatted_io.o)
 .bss           0x00000000080d14f8        0x0 ../output/default/pclin-2.6-x86/lib/libcsr_unicode.a(csr_utf16.o)
 .bss           0x00000000080d14f8        0x0 ../output/default/pclin-2.6-x86/lib/libcsr_mblk.a(csr_mblk.o)
 .bss           0x00000000080d14f8        0x0 ../output/default/pclin-2.6-x86/lib/libcsr_mblk.a(csr_mblk_duplicate.o)
 .bss           0x00000000080d14f8        0x0 ../output/default/pclin-2.6-x86/lib/libcsr_mblk.a(csr_mblk_pmalloc.o)
 .bss           0x00000000080d14f8        0x0 ../output/default/pclin-2.6-x86/lib/libcsr_mblk.a(csr_mblk_read_head.o)
 .bss           0x00000000080d14f8        0x0 ../output/default/pclin-2.6-x86/lib/libcsr_bcsp.a(csr_abcsp_transport.o)
 .bss           0x00000000080d14f8        0x0 ../output/default/pclin-2.6-x86/lib/libcsr_bcsp.a(csr_abcsp_init_c.o)
 .bss           0x00000000080d14f8        0x0 ../output/default/pclin-2.6-x86/lib/libcsr_bcsp.a(csr_abcsp_events.o)
 .bss           0x00000000080d14f8        0x4 ../output/default/pclin-2.6-x86/lib/libcsr_bcsp.a(csr_abcsp_rd_hl.o)
                0x00000000080d14f8                CsrAbcspQStart
 .bss           0x00000000080d14fc        0x0 ../output/default/pclin-2.6-x86/lib/libcsr_bcsp.a(csr_abcsp_le.o)
 .bss           0x00000000080d14fc        0x0 ../output/default/pclin-2.6-x86/lib/libcsr_bcsp.a(csr_abcsp_rx.o)
 .bss           0x00000000080d14fc        0x0 ../output/default/pclin-2.6-x86/lib/libcsr_bcsp.a(csr_abcsp_txmsg.o)
 .bss           0x00000000080d14fc        0x0 ../output/default/pclin-2.6-x86/lib/libcsr_bcsp.a(csr_abcsp_tx_rx_msg_intf.o)
 .bss           0x00000000080d14fc        0x0 ../output/default/pclin-2.6-x86/lib/libcsr_bcsp.a(csr_abcsp_txslip.o)
 .bss           0x00000000080d14fc        0xc ../output/default/pclin-2.6-x86/lib/libcsr_bcsp.a(csr_abcsp_timers.o)
 .bss           0x00000000080d1508        0x0 ../output/default/pclin-2.6-x86/lib/libcsr_bcsp.a(csr_abcsp_tx_handle.o)
 .bss           0x00000000080d1508        0x0 ../output/default/pclin-2.6-x86/lib/libcsr_bcsp.a(csr_abcsp_crc.o)
 .bss           0x00000000080d1508        0x0 ../output/default/pclin-2.6-x86/lib/libcsr_h4ds.a(csr_h4ds_transport.o)
 .bss           0x00000000080d1508        0x0 ../output/default/pclin-2.6-x86/lib/libcsr_h4ds.a(csr_h4ds_initialize.o)
 .bss           0x00000000080d1508        0x0 ../output/default/pclin-2.6-x86/lib/libcsr_h4ds.a(csr_h4ds_pump_msg.o)
 .bss           0x00000000080d1508        0x0 ../output/default/pclin-2.6-x86/lib/libcsr_h4ds.a(csr_h4ds_init.o)
 .bss           0x00000000080d1508        0x2 ../output/default/pclin-2.6-x86/lib/libcsr_h4ds.a(csr_h4ds_le.o)
 *fill*         0x00000000080d150a        0x2 00
 .bss           0x00000000080d150c       0x14 ../output/default/pclin-2.6-x86/lib/libcsr_h4ds.a(csr_h4ds_tx.o)
 .bss           0x00000000080d1520        0x8 ../output/default/pclin-2.6-x86/lib/libcsr_h4ds.a(csr_h4ds_ds.o)
 .bss           0x00000000080d1528        0x1 ../output/default/pclin-2.6-x86/lib/libcsr_h4ds.a(csr_h4ds_rx.o)
 *fill*         0x00000000080d1529        0x3 00
 .bss           0x00000000080d152c        0x1 ../output/default/pclin-2.6-x86/lib/libcsr_h4ds.a(csr_h4ds_pump.o)
 *fill*         0x00000000080d152d        0x3 00
 .bss           0x00000000080d1530        0x0 ../output/default/pclin-2.6-x86/lib/libcsr_h4ds.a(csr_h4_events.o)
 .bss           0x00000000080d1530        0x0 ../output/default/pclin-2.6-x86/lib/libcsr_h4ds.a(csr_h4_int_handle.o)
 .bss           0x00000000080d1530        0x0 ../output/default/pclin-2.6-x86/lib/libcsr_h4ds.a(csr_h4_tx.o)
 .bss           0x00000000080d1530        0x0 ../output/default/pclin-2.6-x86/lib/libcsr_h4ds.a(csr_h4_rx.o)
 .bss           0x00000000080d1530        0x0 ../output/default/pclin-2.6-x86/lib/libcsr_h4ds.a(csr_h4ds_event.o)
 .bss           0x00000000080d1530        0x0 ../output/default/pclin-2.6-x86/lib/libcsr_h4ds.a(csr_h4ds_timers.o)
 .bss           0x00000000080d1530        0x0 ../output/default/pclin-2.6-x86/lib/libcsr_h4ds.a(csr_h4ds_low_level_transport.o)
 .bss           0x00000000080d1530        0x0 ../output/default/pclin-2.6-x86/lib/libcsr_h4ds.a(csr_h4ds_tx_handle.o)
 .bss           0x00000000080d1530        0x0 ../output/default/pclin-2.6-x86/lib/libcsr_h4ds.a(csr_h4ds_msgs.o)
 .bss           0x00000000080d1530        0x8 ../output/default/pclin-2.6-x86/lib/libcsr_h4ds.a(csr_h4ds_scanner.o)
 .bss           0x00000000080d1538        0x0 ../output/default/pclin-2.6-x86/lib/libcsr_queue_lib.a(csr_queue_lib.o)
 .bss           0x00000000080d1538        0x0 ../bsp/ports/pclin/output/default/pclin-2.6-x86/lib/libcsr_util.a(csr_util.o)
 .bss           0x00000000080d1538        0x0 ../bsp/ports/pclin/output/default/pclin-2.6-x86/lib/libcsr_pmem.a(csr_pmem.o)
 .bss           0x00000000080d1538        0x0 ../bsp/ports/pclin/output/default/pclin-2.6-x86/lib/libcsr_time.a(csr_time.o)
 .bss           0x00000000080d1538        0x4 ../bsp/ports/pclin/output/default/pclin-2.6-x86/lib/libcsr_panic.a(csr_panic.o)
 *fill*         0x00000000080d153c        0x4 00
 .bss           0x00000000080d1540     0x2420 ../bsp/ports/pclin/output/default/pclin-2.6-x86/lib/libcsr_ser_com.a(csr_serial_com.o)
 .bss           0x00000000080d3960       0x11 ../bsp/ports/pclin/output/default/pclin-2.6-x86/lib/libcsr_usb_com.a(csr_usb_com.o)
 *fill*         0x00000000080d3971        0x3 00
 .bss           0x00000000080d3974       0x18 ../bsp/ports/pclin/output/default/pclin-2.6-x86/lib/libcsr_framework_ext.a(csr_framework_ext.o)
 .bss           0x00000000080d398c        0x0 ../bsp/ports/pclin/output/default/pclin-2.6-x86/lib/libcsr_fs.a(csr_posix_filesystem.o)
 .bss           0x00000000080d398c        0x0 ../output/default/pclin-2.6-x86/lib/libcsr_usb.a(csr_usb_transport.o)
 .bss           0x00000000080d398c        0x0 ../output/default/pclin-2.6-x86/lib/libcsr_ui.a(csr_ui_lib.o)
 .bss           0x00000000080d398c        0x0 ../output/default/pclin-2.6-x86/lib/libcsr_ui.a(csr_ui_free_up.o)
 .bss           0x00000000080d398c        0x0 ../output/default/pclin-2.6-x86/lib/libcsr_app.a(csr_app_lib.o)
 .bss           0x00000000080d398c        0x0 ../output/default/pclin-2.6-x86/lib/libcsr_random.a(csr_random.o)
 .bss           0x00000000080d398c        0x0 ../output/default/pclin-2.6-x86/lib/libcsr_tm_bluecore.a(csr_tm_bluecore_lib.o)
 .bss           0x00000000080d398c        0x0 ../output/default/pclin-2.6-x86/lib/libcsr_tm_bluecore.a(csr_tm_bluecore_private_lib.o)
 .bss           0x00000000080d398c        0x0 ../output/default/pclin-2.6-x86/lib/libcsr_tftp_lib.a(csr_tftp_free_up.o)
 .bss           0x00000000080d398c        0x0 ../output/default/pclin-2.6-x86/lib/libcsr_tftp_lib.a(csr_tftp_lib.o)
 .bss           0x00000000080d398c        0x0 /usr/lib/i386-linux-gnu/libc_nonshared.a(elf-init.oS)
 .bss           0x00000000080d398c        0x0 /usr/lib/i386-linux-gnu/libc_nonshared.a(stat.oS)
 .bss           0x00000000080d398c        0x0 /usr/lib/gcc/i686-linux-gnu/4.6/crtend.o
 .bss           0x00000000080d398c        0x0 /usr/lib/gcc/i686-linux-gnu/4.6/../../../i386-linux-gnu/crtn.o
 *(COMMON)
 COMMON         0x00000000080d398c       0x24 output/default/pclin-2.6-x86/obj/csr_tasks.o
                0x00000000080d398c                CSR_TM_BLUECORE_IFACEQUEUE
                0x00000000080d398e                CSR_DHCP_SERVER_MANAGER_IFACEQUEUE
                0x00000000080d3990                CSR_HCI_IFACEQUEUE
                0x00000000080d3992                CSR_HQ_IFACEQUEUE
                0x00000000080d3994                CSR_ETHERNET_MANAGER_IFACEQUEUE
                0x00000000080d3996                CSR_BCCMD_IFACEQUEUE
                0x00000000080d3998                CSR_VM_IFACEQUEUE
                0x00000000080d399a                CSR_AM_IFACEQUEUE
                0x00000000080d399c                CSR_TCP_TRANSCEIVER_IFACEQUEUE
                0x00000000080d399e                CSR_IP_IFACEQUEUE
                0x00000000080d39a0                CSR_DHCP_SERVER_IFACEQUEUE
                0x00000000080d39a2                CSR_FSAL_IFACEQUEUE
                0x00000000080d39a4                CSR_TFTP_FILE_IFACEQUEUE
                0x00000000080d39a6                CSR_APP_IFACEQUEUE
                0x00000000080d39a8                CSR_UI_IFACEQUEUE
                0x00000000080d39aa                CSR_BLUECORE_MANAGER_IFACEQUEUE
                0x00000000080d39ac                CSR_FP_IFACEQUEUE
                0x00000000080d39ae                CSR_TFTP_IFACEQUEUE
 COMMON         0x00000000080d39b0       0x10 ../output/default/pclin-2.6-x86/lib/libcsr_bcsp.a(csr_abcsp_rx.o)
                0x00000000080d39b0                CsrAbcspRxMsgStruct
 COMMON         0x00000000080d39c0     0x116c ../output/default/pclin-2.6-x86/lib/libcsr_bcsp.a(csr_abcsp_txmsg.o)
                0x00000000080d39c0                CsrAbcspInstanceData
 *fill*         0x00000000080d4b2c       0x14 00
 COMMON         0x00000000080d4b40       0xcc ../output/default/pclin-2.6-x86/lib/libcsr_h4ds.a(csr_h4ds_initialize.o)
                0x00000000080d4b40                CsrH4Inst
                0x00000000080d4bc0                CsrH4DSInst
 COMMON         0x00000000080d4c0c        0x1 ../output/default/pclin-2.6-x86/lib/libcsr_h4ds.a(csr_h4ds_tx.o)
                0x00000000080d4c0c                CsrSendingH4Msg
                0x00000000080d4c10                . = ALIGN ((. != 0x0)?0x4:0x1)
 *fill*         0x00000000080d4c0d        0x3 00
                0x00000000080d4c10                . = ALIGN (0x4)
                0x00000000080d4c10                . = ALIGN (0x4)
                0x00000000080d4c10                _end = .
                0x00000000080d4c10                PROVIDE (end, .)
                0x00000000080d4c10                . = DATA_SEGMENT_END (.)

.stab
 *(.stab)

.stabstr
 *(.stabstr)

.stab.excl
 *(.stab.excl)

.stab.exclstr
 *(.stab.exclstr)

.stab.index
 *(.stab.index)

.stab.indexstr
 *(.stab.indexstr)

.comment        0x0000000000000000       0x2a
 *(.comment)
 .comment       0x0000000000000000       0x2a /usr/lib/gcc/i686-linux-gnu/4.6/crtbegin.o
                                         0x2b (size before relaxing)
 .comment       0x0000000000000000       0x2b output/default/pclin-2.6-x86/obj/csr_tasks.o
 .comment       0x0000000000000000       0x2b output/default/pclin-2.6-x86/obj/bootstrap/csr_bootstrap_generic.o
 .comment       0x0000000000000000       0x2b output/default/pclin-2.6-x86/obj/bootstrap/csr_bootstrap_specific_string_based.o
 .comment       0x0000000000000000       0x2b output/default/pclin-2.6-x86/obj/bootstrap/psr/pb-101r2_7558_uart.o
 .comment       0x0000000000000000       0x2b output/default/pclin-2.6-x86/obj/bootstrap/psr/pb-14r2_3164.o
 .comment       0x0000000000000000       0x2b output/default/pclin-2.6-x86/obj/bootstrap/psr/pb-22r14_4363.o
 .comment       0x0000000000000000       0x2b output/default/pclin-2.6-x86/obj/bootstrap/psr/pb-26r17_4698.o
 .comment       0x0000000000000000       0x2b output/default/pclin-2.6-x86/obj/bootstrap/psr/pb-27r20_4841.o
 .comment       0x0000000000000000       0x2b output/default/pclin-2.6-x86/obj/bootstrap/psr/pb-28r2_4839.o
 .comment       0x0000000000000000       0x2b output/default/pclin-2.6-x86/obj/bootstrap/psr/pb-2r17_1958.o
 .comment       0x0000000000000000       0x2b output/default/pclin-2.6-x86/obj/bootstrap/psr/pb-49r3_5892.o
 .comment       0x0000000000000000       0x2b output/default/pclin-2.6-x86/obj/bootstrap/psr/pb-51r22_5985_bga.o
 .comment       0x0000000000000000       0x2b output/default/pclin-2.6-x86/obj/bootstrap/psr/pb-51r22_5985_csp0p4.o
 .comment       0x0000000000000000       0x2b output/default/pclin-2.6-x86/obj/bootstrap/psr/pb-51r22_5985_csp0p5.o
 .comment       0x0000000000000000       0x2b output/default/pclin-2.6-x86/obj/bootstrap/psr/pb-51r26_5985_bga.o
 .comment       0x0000000000000000       0x2b output/default/pclin-2.6-x86/obj/bootstrap/psr/pb-51r26_5985_csp0p4.o
 .comment       0x0000000000000000       0x2b output/default/pclin-2.6-x86/obj/bootstrap/psr/pb-51r26_5985_csp0p5.o
 .comment       0x0000000000000000       0x2b output/default/pclin-2.6-x86/obj/bootstrap/psr/pb-53r7_6247_csp.o
 .comment       0x0000000000000000       0x2b output/default/pclin-2.6-x86/obj/bootstrap/psr/pb-53r7_6247_qfn.o
 .comment       0x0000000000000000       0x2b output/default/pclin-2.6-x86/obj/bootstrap/psr/pb-75_6455_csp.o
 .comment       0x0000000000000000       0x2b output/default/pclin-2.6-x86/obj/bootstrap/psr/pb-84r2_6817_csp.o
 .comment       0x0000000000000000       0x2b output/default/pclin-2.6-x86/obj/bootstrap/psr/pb-90r1_6817.o
 .comment       0x0000000000000000       0x2b output/default/pclin-2.6-x86/obj/bootstrap/psr/ps-default.o
 .comment       0x0000000000000000       0x2b output/default/pclin-2.6-x86/obj/bootstrap/psr/ps-gemini_a06.o
 .comment       0x0000000000000000       0x2b ../output/default/pclin-2.6-x86/lib/libcsr_sched.a(csr_sched.o)
 .comment       0x0000000000000000       0x2b ../output/default/pclin-2.6-x86/lib/libcsr_ui.a(csr_ui_ctrl.o)
 .comment       0x0000000000000000       0x2b ../output/default/pclin-2.6-x86/lib/libcsr_ui.a(csr_ui_displaystack.o)
 .comment       0x0000000000000000       0x2b ../output/default/pclin-2.6-x86/lib/libcsr_ui.a(csr_ui_emulator_touchdecoder.o)
 .comment       0x0000000000000000       0x2b ../output/default/pclin-2.6-x86/lib/libcsr_ui.a(csr_ui_keyhandler.o)
 .comment       0x0000000000000000       0x2b ../output/default/pclin-2.6-x86/lib/libcsr_ui.a(csr_ui_renderer.o)
 .comment       0x0000000000000000       0x2b ../output/default/pclin-2.6-x86/lib/libcsr_ui.a(csr_ui_renderer_text.o)
 .comment       0x0000000000000000       0x2b ../output/default/pclin-2.6-x86/lib/libcsr_ui.a(csr_ui_sef.o)
 .comment       0x0000000000000000       0x2b ../output/default/pclin-2.6-x86/lib/libcsr_ui.a(csr_ui_uiemanager.o)
 .comment       0x0000000000000000       0x2b ../output/default/pclin-2.6-x86/lib/libcsr_ui.a(csr_ui_util.o)
 .comment       0x0000000000000000       0x2b ../output/default/pclin-2.6-x86/lib/libcsr_ui.a(csr_ui_free_down.o)
 .comment       0x0000000000000000       0x2b ../output/default/pclin-2.6-x86/lib/libcsr_ui.a(csr_ui_graphics_driver.o)
 .comment       0x0000000000000000       0x2b ../output/default/pclin-2.6-x86/lib/libcsr_ui.a(csr_ui_icon.o)
 .comment       0x0000000000000000       0x2b ../output/default/pclin-2.6-x86/lib/libcsr_ui.a(csr_ui_font_sax_mono_12x22.o)
 .comment       0x0000000000000000       0x2b ../output/default/pclin-2.6-x86/lib/libcsr_ui.a(csr_ui_font_sax_mono_10x21.o)
 .comment       0x0000000000000000       0x2b ../output/default/pclin-2.6-x86/lib/libcsr_app.a(csr_app_handler.o)
 .comment       0x0000000000000000       0x2b ../output/default/pclin-2.6-x86/lib/libcsr_app.a(csr_app_ui_sef.o)
 .comment       0x0000000000000000       0x2b ../output/default/pclin-2.6-x86/lib/libcsr_app.a(csr_app_util.o)
 .comment       0x0000000000000000       0x2b ../output/default/pclin-2.6-x86/lib/libcsr_app.a(csr_app_free_down.o)
 .comment       0x0000000000000000       0x2b ../output/default/pclin-2.6-x86/lib/libcsr_app.a(csr_app_lower_private.o)
 .comment       0x0000000000000000       0x2b ../bsp/ports/pclin/output/default/pclin-2.6-x86/lib/libcsr_main.a(csr_main.o)
 .comment       0x0000000000000000       0x2b ../output/default/pclin-2.6-x86/lib/libcsr_arg_search.a(csr_arg_search.o)
 .comment       0x0000000000000000       0x2b ../bsp/ports/pclin/output/default/pclin-2.6-x86/lib/libcsr_app_main_bluecore.a(csr_app_main.o)
 .comment       0x0000000000000000       0x2b ../bsp/ports/pclin/output/default/pclin-2.6-x86/lib/libcsr_app_main_bluecore.a(csr_key_input.o)
 .comment       0x0000000000000000       0x2b ../bsp/ports/pclin/output/default/pclin-2.6-x86/lib/libcsr_app_main_bluecore.a(csr_ui_lower.o)
 .comment       0x0000000000000000       0x2b ../bsp/ports/pclin/output/default/pclin-2.6-x86/lib/libcsr_app_main_bluecore.a(csr_app_main_transport_bluecore.o)
 .comment       0x0000000000000000       0x2b ../output/default/pclin-2.6-x86/lib/libcsr_tm_bluecore.a(csr_tm_bluecore_handler.o)
 .comment       0x0000000000000000       0x2b ../output/default/pclin-2.6-x86/lib/libcsr_tm_bluecore.a(csr_tm_bluecore_sef.o)
 .comment       0x0000000000000000       0x2b ../output/default/pclin-2.6-x86/lib/libcsr_tm_bluecore.a(csr_tm_bluecore_transport.o)
 .comment       0x0000000000000000       0x2b ../output/default/pclin-2.6-x86/lib/libcsr_bccmd.a(csr_bccmd_handler.o)
 .comment       0x0000000000000000       0x2b ../output/default/pclin-2.6-x86/lib/libcsr_bccmd.a(csr_bccmd_lib.o)
 .comment       0x0000000000000000       0x2b ../output/default/pclin-2.6-x86/lib/libcsr_bccmd.a(csr_bccmd_sef.o)
 .comment       0x0000000000000000       0x2b ../output/default/pclin-2.6-x86/lib/libcsr_bccmd.a(csr_bccmd_private_lib.o)
 .comment       0x0000000000000000       0x2b ../output/default/pclin-2.6-x86/lib/libcsr_bccmd.a(csr_bccmd_util.o)
 .comment       0x0000000000000000       0x2b ../output/default/pclin-2.6-x86/lib/libcsr_bccmd.a(csr_bccmd_free_up.o)
 .comment       0x0000000000000000       0x2b ../output/default/pclin-2.6-x86/lib/libcsr_fastpipe.a(csr_fp_handler.o)
 .comment       0x0000000000000000       0x2b ../output/default/pclin-2.6-x86/lib/libcsr_fastpipe.a(csr_fp_sef.o)
 .comment       0x0000000000000000       0x2b ../output/default/pclin-2.6-x86/lib/libcsr_fastpipe.a(csr_fp_free_down.o)
 .comment       0x0000000000000000       0x2b ../output/default/pclin-2.6-x86/lib/libcsr_hq.a(csr_hq_handler.o)
 .comment       0x0000000000000000       0x2b ../output/default/pclin-2.6-x86/lib/libcsr_hq.a(csr_hq_subscriber.o)
 .comment       0x0000000000000000       0x2b ../output/default/pclin-2.6-x86/lib/libcsr_hq.a(csr_hq_sef.o)
 .comment       0x0000000000000000       0x2b ../output/default/pclin-2.6-x86/lib/libcsr_hq.a(csr_hq_free_down.o)
 .comment       0x0000000000000000       0x2b ../output/default/pclin-2.6-x86/lib/libcsr_vm.a(csr_vm_handler.o)
 .comment       0x0000000000000000       0x2b ../output/default/pclin-2.6-x86/lib/libcsr_vm.a(csr_vm_free_down.o)
 .comment       0x0000000000000000       0x2b ../output/default/pclin-2.6-x86/lib/libcsr_am.a(csr_am_handler.o)
 .comment       0x0000000000000000       0x2b ../output/default/pclin-2.6-x86/lib/libcsr_am.a(csr_am_util.o)
 .comment       0x0000000000000000       0x2b ../output/default/pclin-2.6-x86/lib/libcsr_am.a(csr_am_sef.o)
 .comment       0x0000000000000000       0x2b ../output/default/pclin-2.6-x86/lib/libcsr_am.a(csr_am_free_down.o)
 .comment       0x0000000000000000       0x2b ../output/default/pclin-2.6-x86/lib/libcsr_hci.a(csr_hci_handler.o)
 .comment       0x0000000000000000       0x2b ../output/default/pclin-2.6-x86/lib/libcsr_hci.a(csr_hci_lib.o)
 .comment       0x0000000000000000       0x2b ../output/default/pclin-2.6-x86/lib/libcsr_hci.a(csr_hci_sef.o)
 .comment       0x0000000000000000       0x2b ../output/default/pclin-2.6-x86/lib/libcsr_hci.a(csr_hci_util.o)
 .comment       0x0000000000000000       0x2b ../output/default/pclin-2.6-x86/lib/libcsr_hci.a(csr_hci_sco.o)
 .comment       0x0000000000000000       0x2b ../output/default/pclin-2.6-x86/lib/libcsr_hci.a(csr_hci_free_down.o)
 .comment       0x0000000000000000       0x2b ../output/default/pclin-2.6-x86/lib/libcsr_hci.a(csr_hci_free_up.o)
 .comment       0x0000000000000000       0x2b ../output/default/pclin-2.6-x86/lib/libcsr_hci.a(csr_hci_private_free_up.o)
 .comment       0x0000000000000000       0x2b ../output/default/pclin-2.6-x86/lib/libcsr_bluecore_manager.a(csr_bluecore_manager_handler.o)
 .comment       0x0000000000000000       0x2b ../output/default/pclin-2.6-x86/lib/libcsr_bluecore_manager.a(csr_bluecore_manager_sef.o)
 .comment       0x0000000000000000       0x2b ../output/default/pclin-2.6-x86/lib/libcsr_ethernet_manager.a(csr_ethernet_manager.o)
 .comment       0x0000000000000000       0x2b ../output/default/pclin-2.6-x86/lib/libcsr_tcp_transceiver.a(csr_tcp_transceiver_handler.o)
 .comment       0x0000000000000000       0x2b ../output/default/pclin-2.6-x86/lib/libcsr_tcp_transceiver.a(csr_tcp_transceiver_sef.o)
 .comment       0x0000000000000000       0x2b ../bsp/ports/pclin/output/default/pclin-2.6-x86/lib/libcsr_ip.a(csr_ip_handler.o)
 .comment       0x0000000000000000       0x2b ../bsp/ports/pclin/output/default/pclin-2.6-x86/lib/libcsr_ip.a(csr_ip_ifconfig_sef.o)
 .comment       0x0000000000000000       0x2b ../bsp/ports/pclin/output/default/pclin-2.6-x86/lib/libcsr_ip.a(csr_ip_netlink_parser.o)
 .comment       0x0000000000000000       0x2b ../bsp/ports/pclin/output/default/pclin-2.6-x86/lib/libcsr_ip.a(csr_ip_socket_sef.o)
 .comment       0x0000000000000000       0x2b ../bsp/ports/pclin/output/default/pclin-2.6-x86/lib/libcsr_ip.a(csr_ip_thread.o)
 .comment       0x0000000000000000       0x2b ../bsp/ports/pclin/output/default/pclin-2.6-x86/lib/libcsr_ip.a(csr_ip_util.o)
 .comment       0x0000000000000000       0x2b ../bsp/ports/pclin/output/default/pclin-2.6-x86/lib/libcsr_ip.a(csr_ip_ether_sef.o)
 .comment       0x0000000000000000       0x2b ../output/default/pclin-2.6-x86/lib/libcsr_ip_ether_lib.a(csr_ip_ether_free_down.o)
 .comment       0x0000000000000000       0x2b ../output/default/pclin-2.6-x86/lib/libcsr_ip_ether_lib.a(csr_ip_ether_private_lib.o)
 .comment       0x0000000000000000       0x2b ../output/default/pclin-2.6-x86/lib/libcsr_ip_socket_lib.a(csr_ip_socket_free_up.o)
 .comment       0x0000000000000000       0x2b ../output/default/pclin-2.6-x86/lib/libcsr_ip_socket_lib.a(csr_ip_socket_free_down.o)
 .comment       0x0000000000000000       0x2b ../output/default/pclin-2.6-x86/lib/libcsr_ip_socket_lib.a(csr_ip_socket_lib.o)
 .comment       0x0000000000000000       0x2b ../output/default/pclin-2.6-x86/lib/libcsr_ip_socket_lib.a(csr_ip_socket_private_lib.o)
 .comment       0x0000000000000000       0x2b ../output/default/pclin-2.6-x86/lib/libcsr_ip_ifconfig_lib.a(csr_ip_ifconfig_free_up.o)
 .comment       0x0000000000000000       0x2b ../output/default/pclin-2.6-x86/lib/libcsr_ip_ifconfig_lib.a(csr_ip_ifconfig_free_down.o)
 .comment       0x0000000000000000       0x2b ../output/default/pclin-2.6-x86/lib/libcsr_ip_ifconfig_lib.a(csr_ip_ifconfig_lib.o)
 .comment       0x0000000000000000       0x2b ../output/default/pclin-2.6-x86/lib/libcsr_ip_ifconfig_lib.a(csr_ip_ifconfig_private_lib.o)
 .comment       0x0000000000000000       0x2b ../output/default/pclin-2.6-x86/lib/libcsr_dhcp_server_manager.a(csr_dhcp_server_manager.o)
 .comment       0x0000000000000000       0x2b ../output/default/pclin-2.6-x86/lib/libcsr_dhcp_server.a(csr_dhcp_server_handler.o)
 .comment       0x0000000000000000       0x2b ../output/default/pclin-2.6-x86/lib/libcsr_dhcp_server.a(csr_dhcp_server_sef.o)
 .comment       0x0000000000000000       0x2b ../output/default/pclin-2.6-x86/lib/libcsr_dhcp_server.a(csr_dhcp_server_util.o)
 .comment       0x0000000000000000       0x2b ../output/default/pclin-2.6-x86/lib/libcsr_dhcp_server_lib.a(csr_dhcp_server_free_down.o)
 .comment       0x0000000000000000       0x2b ../output/default/pclin-2.6-x86/lib/libcsr_dhcp_server_lib.a(csr_dhcp_server_lib.o)
 .comment       0x0000000000000000       0x2b ../output/default/pclin-2.6-x86/lib/libcsr_dhcp_server_lib.a(csr_dhcp_server_lib_priv.o)
 .comment       0x0000000000000000       0x2b ../output/default/pclin-2.6-x86/lib/libcsr_tftp.a(csr_tftp_handler.o)
 .comment       0x0000000000000000       0x2b ../output/default/pclin-2.6-x86/lib/libcsr_tftp.a(csr_tftp_sef.o)
 .comment       0x0000000000000000       0x2b ../output/default/pclin-2.6-x86/lib/libcsr_tftp_lib.a(csr_tftp_free_down.o)
 .comment       0x0000000000000000       0x2b ../output/default/pclin-2.6-x86/lib/libcsr_tftp_lib.a(csr_tftp_lib_priv.o)
 .comment       0x0000000000000000       0x2b ../output/default/pclin-2.6-x86/lib/libcsr_tftp_file.a(csr_tftp_file_handler.o)
 .comment       0x0000000000000000       0x2b ../output/default/pclin-2.6-x86/lib/libcsr_tftp_file.a(csr_tftp_file_sef.o)
 .comment       0x0000000000000000       0x2b ../output/default/pclin-2.6-x86/lib/libcsr_fsal.a(csr_fsal_handler.o)
 .comment       0x0000000000000000       0x2b ../output/default/pclin-2.6-x86/lib/libcsr_fsal.a(csr_fsal_sef.o)
 .comment       0x0000000000000000       0x2b ../output/default/pclin-2.6-x86/lib/libcsr_fsal.a(csr_fsal_sef_utils.o)
 .comment       0x0000000000000000       0x2b ../output/default/pclin-2.6-x86/lib/libcsr_fsal.a(csr_fsal_utils.o)
 .comment       0x0000000000000000       0x2b ../output/default/pclin-2.6-x86/lib/libcsr_fsal_lib.a(csr_fsal_free_up.o)
 .comment       0x0000000000000000       0x2b ../output/default/pclin-2.6-x86/lib/libcsr_fsal_lib.a(csr_fsal_free_down.o)
 .comment       0x0000000000000000       0x2b ../output/default/pclin-2.6-x86/lib/libcsr_fsal_lib.a(csr_fsal_lib.o)
 .comment       0x0000000000000000       0x2b ../output/default/pclin-2.6-x86/lib/libcsr_fsal_lib.a(csr_fsal_lib_priv.o)
 .comment       0x0000000000000000       0x2b ../output/default/pclin-2.6-x86/lib/libcsr_list.a(csr_list.o)
 .comment       0x0000000000000000       0x2b ../output/default/pclin-2.6-x86/lib/libcsr_message_queue.a(csr_message_queue.o)
 .comment       0x0000000000000000       0x2b ../output/default/pclin-2.6-x86/lib/libcsr_formatted_io.a(csr_formatted_io.o)
 .comment       0x0000000000000000       0x2b ../output/default/pclin-2.6-x86/lib/libcsr_unicode.a(csr_utf16.o)
 .comment       0x0000000000000000       0x2b ../output/default/pclin-2.6-x86/lib/libcsr_mblk.a(csr_mblk.o)
 .comment       0x0000000000000000       0x2b ../output/default/pclin-2.6-x86/lib/libcsr_mblk.a(csr_mblk_duplicate.o)
 .comment       0x0000000000000000       0x2b ../output/default/pclin-2.6-x86/lib/libcsr_mblk.a(csr_mblk_pmalloc.o)
 .comment       0x0000000000000000       0x2b ../output/default/pclin-2.6-x86/lib/libcsr_mblk.a(csr_mblk_read_head.o)
 .comment       0x0000000000000000       0x2b ../output/default/pclin-2.6-x86/lib/libcsr_bcsp.a(csr_abcsp_transport.o)
 .comment       0x0000000000000000       0x2b ../output/default/pclin-2.6-x86/lib/libcsr_bcsp.a(csr_abcsp_init_c.o)
 .comment       0x0000000000000000       0x2b ../output/default/pclin-2.6-x86/lib/libcsr_bcsp.a(csr_abcsp_events.o)
 .comment       0x0000000000000000       0x2b ../output/default/pclin-2.6-x86/lib/libcsr_bcsp.a(csr_abcsp_rd_hl.o)
 .comment       0x0000000000000000       0x2b ../output/default/pclin-2.6-x86/lib/libcsr_bcsp.a(csr_abcsp_le.o)
 .comment       0x0000000000000000       0x2b ../output/default/pclin-2.6-x86/lib/libcsr_bcsp.a(csr_abcsp_rx.o)
 .comment       0x0000000000000000       0x2b ../output/default/pclin-2.6-x86/lib/libcsr_bcsp.a(csr_abcsp_txmsg.o)
 .comment       0x0000000000000000       0x2b ../output/default/pclin-2.6-x86/lib/libcsr_bcsp.a(csr_abcsp_tx_rx_msg_intf.o)
 .comment       0x0000000000000000       0x2b ../output/default/pclin-2.6-x86/lib/libcsr_bcsp.a(csr_abcsp_txslip.o)
 .comment       0x0000000000000000       0x2b ../output/default/pclin-2.6-x86/lib/libcsr_bcsp.a(csr_abcsp_timers.o)
 .comment       0x0000000000000000       0x2b ../output/default/pclin-2.6-x86/lib/libcsr_bcsp.a(csr_abcsp_tx_handle.o)
 .comment       0x0000000000000000       0x2b ../output/default/pclin-2.6-x86/lib/libcsr_bcsp.a(csr_abcsp_crc.o)
 .comment       0x0000000000000000       0x2b ../output/default/pclin-2.6-x86/lib/libcsr_h4ds.a(csr_h4ds_transport.o)
 .comment       0x0000000000000000       0x2b ../output/default/pclin-2.6-x86/lib/libcsr_h4ds.a(csr_h4ds_initialize.o)
 .comment       0x0000000000000000       0x2b ../output/default/pclin-2.6-x86/lib/libcsr_h4ds.a(csr_h4ds_pump_msg.o)
 .comment       0x0000000000000000       0x2b ../output/default/pclin-2.6-x86/lib/libcsr_h4ds.a(csr_h4ds_init.o)
 .comment       0x0000000000000000       0x2b ../output/default/pclin-2.6-x86/lib/libcsr_h4ds.a(csr_h4ds_le.o)
 .comment       0x0000000000000000       0x2b ../output/default/pclin-2.6-x86/lib/libcsr_h4ds.a(csr_h4ds_tx.o)
 .comment       0x0000000000000000       0x2b ../output/default/pclin-2.6-x86/lib/libcsr_h4ds.a(csr_h4ds_ds.o)
 .comment       0x0000000000000000       0x2b ../output/default/pclin-2.6-x86/lib/libcsr_h4ds.a(csr_h4ds_rx.o)
 .comment       0x0000000000000000       0x2b ../output/default/pclin-2.6-x86/lib/libcsr_h4ds.a(csr_h4ds_pump.o)
 .comment       0x0000000000000000       0x2b ../output/default/pclin-2.6-x86/lib/libcsr_h4ds.a(csr_h4_events.o)
 .comment       0x0000000000000000       0x2b ../output/default/pclin-2.6-x86/lib/libcsr_h4ds.a(csr_h4_int_handle.o)
 .comment       0x0000000000000000       0x2b ../output/default/pclin-2.6-x86/lib/libcsr_h4ds.a(csr_h4_tx.o)
 .comment       0x0000000000000000       0x2b ../output/default/pclin-2.6-x86/lib/libcsr_h4ds.a(csr_h4_rx.o)
 .comment       0x0000000000000000       0x2b ../output/default/pclin-2.6-x86/lib/libcsr_h4ds.a(csr_h4ds_event.o)
 .comment       0x0000000000000000       0x2b ../output/default/pclin-2.6-x86/lib/libcsr_h4ds.a(csr_h4ds_timers.o)
 .comment       0x0000000000000000       0x2b ../output/default/pclin-2.6-x86/lib/libcsr_h4ds.a(csr_h4ds_low_level_transport.o)
 .comment       0x0000000000000000       0x2b ../output/default/pclin-2.6-x86/lib/libcsr_h4ds.a(csr_h4ds_tx_handle.o)
 .comment       0x0000000000000000       0x2b ../output/default/pclin-2.6-x86/lib/libcsr_h4ds.a(csr_h4ds_msgs.o)
 .comment       0x0000000000000000       0x2b ../output/default/pclin-2.6-x86/lib/libcsr_h4ds.a(csr_h4ds_scanner.o)
 .comment       0x0000000000000000       0x2b ../output/default/pclin-2.6-x86/lib/libcsr_queue_lib.a(csr_queue_lib.o)
 .comment       0x0000000000000000       0x2b ../bsp/ports/pclin/output/default/pclin-2.6-x86/lib/libcsr_util.a(csr_util.o)
 .comment       0x0000000000000000       0x2b ../bsp/ports/pclin/output/default/pclin-2.6-x86/lib/libcsr_pmem.a(csr_pmem.o)
 .comment       0x0000000000000000       0x2b ../bsp/ports/pclin/output/default/pclin-2.6-x86/lib/libcsr_time.a(csr_time.o)
 .comment       0x0000000000000000       0x2b ../bsp/ports/pclin/output/default/pclin-2.6-x86/lib/libcsr_panic.a(csr_panic.o)
 .comment       0x0000000000000000       0x2b ../bsp/ports/pclin/output/default/pclin-2.6-x86/lib/libcsr_ser_com.a(csr_serial_com.o)
 .comment       0x0000000000000000       0x2b ../bsp/ports/pclin/output/default/pclin-2.6-x86/lib/libcsr_usb_com.a(csr_usb_com.o)
 .comment       0x0000000000000000       0x2b ../bsp/ports/pclin/output/default/pclin-2.6-x86/lib/libcsr_framework_ext.a(csr_framework_ext.o)
 .comment       0x0000000000000000       0x2b ../bsp/ports/pclin/output/default/pclin-2.6-x86/lib/libcsr_fs.a(csr_posix_filesystem.o)
 .comment       0x0000000000000000       0x2b ../output/default/pclin-2.6-x86/lib/libcsr_usb.a(csr_usb_transport.o)
 .comment       0x0000000000000000       0x2b ../output/default/pclin-2.6-x86/lib/libcsr_ui.a(csr_ui_lib.o)
 .comment       0x0000000000000000       0x2b ../output/default/pclin-2.6-x86/lib/libcsr_ui.a(csr_ui_free_up.o)
 .comment       0x0000000000000000       0x2b ../output/default/pclin-2.6-x86/lib/libcsr_app.a(csr_app_lib.o)
 .comment       0x0000000000000000       0x2b ../output/default/pclin-2.6-x86/lib/libcsr_random.a(csr_random.o)
 .comment       0x0000000000000000       0x2b ../output/default/pclin-2.6-x86/lib/libcsr_tm_bluecore.a(csr_tm_bluecore_lib.o)
 .comment       0x0000000000000000       0x2b ../output/default/pclin-2.6-x86/lib/libcsr_tm_bluecore.a(csr_tm_bluecore_private_lib.o)
 .comment       0x0000000000000000       0x2b ../output/default/pclin-2.6-x86/lib/libcsr_tftp_lib.a(csr_tftp_free_up.o)
 .comment       0x0000000000000000       0x2b ../output/default/pclin-2.6-x86/lib/libcsr_tftp_lib.a(csr_tftp_lib.o)
 .comment       0x0000000000000000       0x2b /usr/lib/i386-linux-gnu/libc_nonshared.a(elf-init.oS)
 .comment       0x0000000000000000       0x2b /usr/lib/i386-linux-gnu/libc_nonshared.a(stat.oS)
 .comment       0x0000000000000000       0x2b /usr/lib/gcc/i686-linux-gnu/4.6/crtend.o

.debug
 *(.debug)

.line
 *(.line)

.debug_srcinfo
 *(.debug_srcinfo)

.debug_sfnames
 *(.debug_sfnames)

.debug_aranges  0x0000000000000000     0x1380
 *(.debug_aranges)
 .debug_aranges
                0x0000000000000000       0x20 output/default/pclin-2.6-x86/obj/csr_tasks.o
 .debug_aranges
                0x0000000000000020       0x20 output/default/pclin-2.6-x86/obj/bootstrap/csr_bootstrap_generic.o
 .debug_aranges
                0x0000000000000040       0x20 output/default/pclin-2.6-x86/obj/bootstrap/csr_bootstrap_specific_string_based.o
 .debug_aranges
                0x0000000000000060       0x20 ../output/default/pclin-2.6-x86/lib/libcsr_sched.a(csr_sched.o)
 .debug_aranges
                0x0000000000000080       0x20 ../output/default/pclin-2.6-x86/lib/libcsr_ui.a(csr_ui_ctrl.o)
 .debug_aranges
                0x00000000000000a0       0x20 ../output/default/pclin-2.6-x86/lib/libcsr_ui.a(csr_ui_displaystack.o)
 .debug_aranges
                0x00000000000000c0       0x20 ../output/default/pclin-2.6-x86/lib/libcsr_ui.a(csr_ui_emulator_touchdecoder.o)
 .debug_aranges
                0x00000000000000e0       0x20 ../output/default/pclin-2.6-x86/lib/libcsr_ui.a(csr_ui_keyhandler.o)
 .debug_aranges
                0x0000000000000100       0x20 ../output/default/pclin-2.6-x86/lib/libcsr_ui.a(csr_ui_renderer.o)
 .debug_aranges
                0x0000000000000120       0x20 ../output/default/pclin-2.6-x86/lib/libcsr_ui.a(csr_ui_renderer_text.o)
 .debug_aranges
                0x0000000000000140       0x20 ../output/default/pclin-2.6-x86/lib/libcsr_ui.a(csr_ui_sef.o)
 .debug_aranges
                0x0000000000000160       0x20 ../output/default/pclin-2.6-x86/lib/libcsr_ui.a(csr_ui_uiemanager.o)
 .debug_aranges
                0x0000000000000180       0x20 ../output/default/pclin-2.6-x86/lib/libcsr_ui.a(csr_ui_util.o)
 .debug_aranges
                0x00000000000001a0       0x20 ../output/default/pclin-2.6-x86/lib/libcsr_ui.a(csr_ui_free_down.o)
 .debug_aranges
                0x00000000000001c0       0x20 ../output/default/pclin-2.6-x86/lib/libcsr_ui.a(csr_ui_graphics_driver.o)
 .debug_aranges
                0x00000000000001e0       0x20 ../output/default/pclin-2.6-x86/lib/libcsr_ui.a(csr_ui_icon.o)
 .debug_aranges
                0x0000000000000200       0x20 ../output/default/pclin-2.6-x86/lib/libcsr_app.a(csr_app_handler.o)
 .debug_aranges
                0x0000000000000220       0x20 ../output/default/pclin-2.6-x86/lib/libcsr_app.a(csr_app_ui_sef.o)
 .debug_aranges
                0x0000000000000240       0x20 ../output/default/pclin-2.6-x86/lib/libcsr_app.a(csr_app_util.o)
 .debug_aranges
                0x0000000000000260       0x20 ../output/default/pclin-2.6-x86/lib/libcsr_app.a(csr_app_free_down.o)
 .debug_aranges
                0x0000000000000280       0x20 ../output/default/pclin-2.6-x86/lib/libcsr_app.a(csr_app_lower_private.o)
 .debug_aranges
                0x00000000000002a0       0x20 ../bsp/ports/pclin/output/default/pclin-2.6-x86/lib/libcsr_main.a(csr_main.o)
 .debug_aranges
                0x00000000000002c0       0x20 ../output/default/pclin-2.6-x86/lib/libcsr_arg_search.a(csr_arg_search.o)
 .debug_aranges
                0x00000000000002e0       0x20 ../bsp/ports/pclin/output/default/pclin-2.6-x86/lib/libcsr_app_main_bluecore.a(csr_app_main.o)
 .debug_aranges
                0x0000000000000300       0x20 ../bsp/ports/pclin/output/default/pclin-2.6-x86/lib/libcsr_app_main_bluecore.a(csr_key_input.o)
 .debug_aranges
                0x0000000000000320       0x20 ../bsp/ports/pclin/output/default/pclin-2.6-x86/lib/libcsr_app_main_bluecore.a(csr_ui_lower.o)
 .debug_aranges
                0x0000000000000340       0x20 ../bsp/ports/pclin/output/default/pclin-2.6-x86/lib/libcsr_app_main_bluecore.a(csr_app_main_transport_bluecore.o)
 .debug_aranges
                0x0000000000000360       0x20 ../output/default/pclin-2.6-x86/lib/libcsr_tm_bluecore.a(csr_tm_bluecore_handler.o)
 .debug_aranges
                0x0000000000000380       0x20 ../output/default/pclin-2.6-x86/lib/libcsr_tm_bluecore.a(csr_tm_bluecore_sef.o)
 .debug_aranges
                0x00000000000003a0       0x20 ../output/default/pclin-2.6-x86/lib/libcsr_tm_bluecore.a(csr_tm_bluecore_transport.o)
 .debug_aranges
                0x00000000000003c0       0x20 ../output/default/pclin-2.6-x86/lib/libcsr_bccmd.a(csr_bccmd_handler.o)
 .debug_aranges
                0x00000000000003e0       0x20 ../output/default/pclin-2.6-x86/lib/libcsr_bccmd.a(csr_bccmd_lib.o)
 .debug_aranges
                0x0000000000000400       0x20 ../output/default/pclin-2.6-x86/lib/libcsr_bccmd.a(csr_bccmd_sef.o)
 .debug_aranges
                0x0000000000000420       0x20 ../output/default/pclin-2.6-x86/lib/libcsr_bccmd.a(csr_bccmd_private_lib.o)
 .debug_aranges
                0x0000000000000440       0x20 ../output/default/pclin-2.6-x86/lib/libcsr_bccmd.a(csr_bccmd_util.o)
 .debug_aranges
                0x0000000000000460       0x20 ../output/default/pclin-2.6-x86/lib/libcsr_bccmd.a(csr_bccmd_free_up.o)
 .debug_aranges
                0x0000000000000480       0x20 ../output/default/pclin-2.6-x86/lib/libcsr_fastpipe.a(csr_fp_handler.o)
 .debug_aranges
                0x00000000000004a0       0x20 ../output/default/pclin-2.6-x86/lib/libcsr_fastpipe.a(csr_fp_sef.o)
 .debug_aranges
                0x00000000000004c0       0x20 ../output/default/pclin-2.6-x86/lib/libcsr_fastpipe.a(csr_fp_free_down.o)
 .debug_aranges
                0x00000000000004e0       0x20 ../output/default/pclin-2.6-x86/lib/libcsr_hq.a(csr_hq_handler.o)
 .debug_aranges
                0x0000000000000500       0x20 ../output/default/pclin-2.6-x86/lib/libcsr_hq.a(csr_hq_subscriber.o)
 .debug_aranges
                0x0000000000000520       0x20 ../output/default/pclin-2.6-x86/lib/libcsr_hq.a(csr_hq_sef.o)
 .debug_aranges
                0x0000000000000540       0x20 ../output/default/pclin-2.6-x86/lib/libcsr_hq.a(csr_hq_free_down.o)
 .debug_aranges
                0x0000000000000560       0x20 ../output/default/pclin-2.6-x86/lib/libcsr_vm.a(csr_vm_handler.o)
 .debug_aranges
                0x0000000000000580       0x20 ../output/default/pclin-2.6-x86/lib/libcsr_vm.a(csr_vm_free_down.o)
 .debug_aranges
                0x00000000000005a0       0x20 ../output/default/pclin-2.6-x86/lib/libcsr_am.a(csr_am_handler.o)
 .debug_aranges
                0x00000000000005c0       0x20 ../output/default/pclin-2.6-x86/lib/libcsr_am.a(csr_am_util.o)
 .debug_aranges
                0x00000000000005e0       0x20 ../output/default/pclin-2.6-x86/lib/libcsr_am.a(csr_am_sef.o)
 .debug_aranges
                0x0000000000000600       0x20 ../output/default/pclin-2.6-x86/lib/libcsr_am.a(csr_am_free_down.o)
 .debug_aranges
                0x0000000000000620       0x20 ../output/default/pclin-2.6-x86/lib/libcsr_hci.a(csr_hci_handler.o)
 .debug_aranges
                0x0000000000000640       0x20 ../output/default/pclin-2.6-x86/lib/libcsr_hci.a(csr_hci_lib.o)
 .debug_aranges
                0x0000000000000660       0x20 ../output/default/pclin-2.6-x86/lib/libcsr_hci.a(csr_hci_sef.o)
 .debug_aranges
                0x0000000000000680       0x20 ../output/default/pclin-2.6-x86/lib/libcsr_hci.a(csr_hci_util.o)
 .debug_aranges
                0x00000000000006a0       0x20 ../output/default/pclin-2.6-x86/lib/libcsr_hci.a(csr_hci_sco.o)
 .debug_aranges
                0x00000000000006c0       0x20 ../output/default/pclin-2.6-x86/lib/libcsr_hci.a(csr_hci_free_down.o)
 .debug_aranges
                0x00000000000006e0       0x20 ../output/default/pclin-2.6-x86/lib/libcsr_hci.a(csr_hci_free_up.o)
 .debug_aranges
                0x0000000000000700       0x20 ../output/default/pclin-2.6-x86/lib/libcsr_hci.a(csr_hci_private_free_up.o)
 .debug_aranges
                0x0000000000000720       0x20 ../output/default/pclin-2.6-x86/lib/libcsr_bluecore_manager.a(csr_bluecore_manager_handler.o)
 .debug_aranges
                0x0000000000000740       0x20 ../output/default/pclin-2.6-x86/lib/libcsr_bluecore_manager.a(csr_bluecore_manager_sef.o)
 .debug_aranges
                0x0000000000000760       0x20 ../output/default/pclin-2.6-x86/lib/libcsr_ethernet_manager.a(csr_ethernet_manager.o)
 .debug_aranges
                0x0000000000000780       0x20 ../output/default/pclin-2.6-x86/lib/libcsr_tcp_transceiver.a(csr_tcp_transceiver_handler.o)
 .debug_aranges
                0x00000000000007a0       0x20 ../output/default/pclin-2.6-x86/lib/libcsr_tcp_transceiver.a(csr_tcp_transceiver_sef.o)
 .debug_aranges
                0x00000000000007c0       0x20 ../bsp/ports/pclin/output/default/pclin-2.6-x86/lib/libcsr_ip.a(csr_ip_handler.o)
 .debug_aranges
                0x00000000000007e0       0x20 ../bsp/ports/pclin/output/default/pclin-2.6-x86/lib/libcsr_ip.a(csr_ip_ifconfig_sef.o)
 .debug_aranges
                0x0000000000000800       0x20 ../bsp/ports/pclin/output/default/pclin-2.6-x86/lib/libcsr_ip.a(csr_ip_netlink_parser.o)
 .debug_aranges
                0x0000000000000820       0x20 ../bsp/ports/pclin/output/default/pclin-2.6-x86/lib/libcsr_ip.a(csr_ip_socket_sef.o)
 .debug_aranges
                0x0000000000000840       0x20 ../bsp/ports/pclin/output/default/pclin-2.6-x86/lib/libcsr_ip.a(csr_ip_thread.o)
 .debug_aranges
                0x0000000000000860       0x20 ../bsp/ports/pclin/output/default/pclin-2.6-x86/lib/libcsr_ip.a(csr_ip_util.o)
 .debug_aranges
                0x0000000000000880       0x20 ../bsp/ports/pclin/output/default/pclin-2.6-x86/lib/libcsr_ip.a(csr_ip_ether_sef.o)
 .debug_aranges
                0x00000000000008a0       0x20 ../output/default/pclin-2.6-x86/lib/libcsr_ip_ether_lib.a(csr_ip_ether_free_down.o)
 .debug_aranges
                0x00000000000008c0       0x20 ../output/default/pclin-2.6-x86/lib/libcsr_ip_ether_lib.a(csr_ip_ether_private_lib.o)
 .debug_aranges
                0x00000000000008e0       0x20 ../output/default/pclin-2.6-x86/lib/libcsr_ip_socket_lib.a(csr_ip_socket_free_up.o)
 .debug_aranges
                0x0000000000000900       0x20 ../output/default/pclin-2.6-x86/lib/libcsr_ip_socket_lib.a(csr_ip_socket_free_down.o)
 .debug_aranges
                0x0000000000000920       0x20 ../output/default/pclin-2.6-x86/lib/libcsr_ip_socket_lib.a(csr_ip_socket_lib.o)
 .debug_aranges
                0x0000000000000940       0x20 ../output/default/pclin-2.6-x86/lib/libcsr_ip_socket_lib.a(csr_ip_socket_private_lib.o)
 .debug_aranges
                0x0000000000000960       0x20 ../output/default/pclin-2.6-x86/lib/libcsr_ip_ifconfig_lib.a(csr_ip_ifconfig_free_up.o)
 .debug_aranges
                0x0000000000000980       0x20 ../output/default/pclin-2.6-x86/lib/libcsr_ip_ifconfig_lib.a(csr_ip_ifconfig_free_down.o)
 .debug_aranges
                0x00000000000009a0       0x20 ../output/default/pclin-2.6-x86/lib/libcsr_ip_ifconfig_lib.a(csr_ip_ifconfig_lib.o)
 .debug_aranges
                0x00000000000009c0       0x20 ../output/default/pclin-2.6-x86/lib/libcsr_ip_ifconfig_lib.a(csr_ip_ifconfig_private_lib.o)
 .debug_aranges
                0x00000000000009e0       0x20 ../output/default/pclin-2.6-x86/lib/libcsr_dhcp_server_manager.a(csr_dhcp_server_manager.o)
 .debug_aranges
                0x0000000000000a00       0x20 ../output/default/pclin-2.6-x86/lib/libcsr_dhcp_server.a(csr_dhcp_server_handler.o)
 .debug_aranges
                0x0000000000000a20       0x20 ../output/default/pclin-2.6-x86/lib/libcsr_dhcp_server.a(csr_dhcp_server_sef.o)
 .debug_aranges
                0x0000000000000a40       0x20 ../output/default/pclin-2.6-x86/lib/libcsr_dhcp_server.a(csr_dhcp_server_util.o)
 .debug_aranges
                0x0000000000000a60       0x20 ../output/default/pclin-2.6-x86/lib/libcsr_dhcp_server_lib.a(csr_dhcp_server_free_down.o)
 .debug_aranges
                0x0000000000000a80       0x20 ../output/default/pclin-2.6-x86/lib/libcsr_dhcp_server_lib.a(csr_dhcp_server_lib.o)
 .debug_aranges
                0x0000000000000aa0       0x20 ../output/default/pclin-2.6-x86/lib/libcsr_dhcp_server_lib.a(csr_dhcp_server_lib_priv.o)
 .debug_aranges
                0x0000000000000ac0       0x20 ../output/default/pclin-2.6-x86/lib/libcsr_tftp.a(csr_tftp_handler.o)
 .debug_aranges
                0x0000000000000ae0       0x20 ../output/default/pclin-2.6-x86/lib/libcsr_tftp.a(csr_tftp_sef.o)
 .debug_aranges
                0x0000000000000b00       0x20 ../output/default/pclin-2.6-x86/lib/libcsr_tftp_lib.a(csr_tftp_free_down.o)
 .debug_aranges
                0x0000000000000b20       0x20 ../output/default/pclin-2.6-x86/lib/libcsr_tftp_lib.a(csr_tftp_lib_priv.o)
 .debug_aranges
                0x0000000000000b40       0x20 ../output/default/pclin-2.6-x86/lib/libcsr_tftp_file.a(csr_tftp_file_handler.o)
 .debug_aranges
                0x0000000000000b60       0x20 ../output/default/pclin-2.6-x86/lib/libcsr_tftp_file.a(csr_tftp_file_sef.o)
 .debug_aranges
                0x0000000000000b80       0x20 ../output/default/pclin-2.6-x86/lib/libcsr_fsal.a(csr_fsal_handler.o)
 .debug_aranges
                0x0000000000000ba0       0x20 ../output/default/pclin-2.6-x86/lib/libcsr_fsal.a(csr_fsal_sef.o)
 .debug_aranges
                0x0000000000000bc0       0x20 ../output/default/pclin-2.6-x86/lib/libcsr_fsal.a(csr_fsal_sef_utils.o)
 .debug_aranges
                0x0000000000000be0       0x20 ../output/default/pclin-2.6-x86/lib/libcsr_fsal.a(csr_fsal_utils.o)
 .debug_aranges
                0x0000000000000c00       0x20 ../output/default/pclin-2.6-x86/lib/libcsr_fsal_lib.a(csr_fsal_free_up.o)
 .debug_aranges
                0x0000000000000c20       0x20 ../output/default/pclin-2.6-x86/lib/libcsr_fsal_lib.a(csr_fsal_free_down.o)
 .debug_aranges
                0x0000000000000c40       0x20 ../output/default/pclin-2.6-x86/lib/libcsr_fsal_lib.a(csr_fsal_lib.o)
 .debug_aranges
                0x0000000000000c60       0x20 ../output/default/pclin-2.6-x86/lib/libcsr_fsal_lib.a(csr_fsal_lib_priv.o)
 .debug_aranges
                0x0000000000000c80       0x20 ../output/default/pclin-2.6-x86/lib/libcsr_list.a(csr_list.o)
 .debug_aranges
                0x0000000000000ca0       0x20 ../output/default/pclin-2.6-x86/lib/libcsr_message_queue.a(csr_message_queue.o)
 .debug_aranges
                0x0000000000000cc0       0x20 ../output/default/pclin-2.6-x86/lib/libcsr_formatted_io.a(csr_formatted_io.o)
 .debug_aranges
                0x0000000000000ce0       0x20 ../output/default/pclin-2.6-x86/lib/libcsr_unicode.a(csr_utf16.o)
 .debug_aranges
                0x0000000000000d00       0x20 ../output/default/pclin-2.6-x86/lib/libcsr_mblk.a(csr_mblk.o)
 .debug_aranges
                0x0000000000000d20       0x20 ../output/default/pclin-2.6-x86/lib/libcsr_mblk.a(csr_mblk_duplicate.o)
 .debug_aranges
                0x0000000000000d40       0x20 ../output/default/pclin-2.6-x86/lib/libcsr_mblk.a(csr_mblk_pmalloc.o)
 .debug_aranges
                0x0000000000000d60       0x20 ../output/default/pclin-2.6-x86/lib/libcsr_mblk.a(csr_mblk_read_head.o)
 .debug_aranges
                0x0000000000000d80       0x20 ../output/default/pclin-2.6-x86/lib/libcsr_bcsp.a(csr_abcsp_transport.o)
 .debug_aranges
                0x0000000000000da0       0x20 ../output/default/pclin-2.6-x86/lib/libcsr_bcsp.a(csr_abcsp_init_c.o)
 .debug_aranges
                0x0000000000000dc0       0x20 ../output/default/pclin-2.6-x86/lib/libcsr_bcsp.a(csr_abcsp_events.o)
 .debug_aranges
                0x0000000000000de0       0x20 ../output/default/pclin-2.6-x86/lib/libcsr_bcsp.a(csr_abcsp_rd_hl.o)
 .debug_aranges
                0x0000000000000e00       0x20 ../output/default/pclin-2.6-x86/lib/libcsr_bcsp.a(csr_abcsp_le.o)
 .debug_aranges
                0x0000000000000e20       0x20 ../output/default/pclin-2.6-x86/lib/libcsr_bcsp.a(csr_abcsp_rx.o)
 .debug_aranges
                0x0000000000000e40       0x20 ../output/default/pclin-2.6-x86/lib/libcsr_bcsp.a(csr_abcsp_txmsg.o)
 .debug_aranges
                0x0000000000000e60       0x20 ../output/default/pclin-2.6-x86/lib/libcsr_bcsp.a(csr_abcsp_tx_rx_msg_intf.o)
 .debug_aranges
                0x0000000000000e80       0x20 ../output/default/pclin-2.6-x86/lib/libcsr_bcsp.a(csr_abcsp_txslip.o)
 .debug_aranges
                0x0000000000000ea0       0x20 ../output/default/pclin-2.6-x86/lib/libcsr_bcsp.a(csr_abcsp_timers.o)
 .debug_aranges
                0x0000000000000ec0       0x20 ../output/default/pclin-2.6-x86/lib/libcsr_bcsp.a(csr_abcsp_tx_handle.o)
 .debug_aranges
                0x0000000000000ee0       0x20 ../output/default/pclin-2.6-x86/lib/libcsr_bcsp.a(csr_abcsp_crc.o)
 .debug_aranges
                0x0000000000000f00       0x20 ../output/default/pclin-2.6-x86/lib/libcsr_h4ds.a(csr_h4ds_transport.o)
 .debug_aranges
                0x0000000000000f20       0x20 ../output/default/pclin-2.6-x86/lib/libcsr_h4ds.a(csr_h4ds_initialize.o)
 .debug_aranges
                0x0000000000000f40       0x20 ../output/default/pclin-2.6-x86/lib/libcsr_h4ds.a(csr_h4ds_pump_msg.o)
 .debug_aranges
                0x0000000000000f60       0x20 ../output/default/pclin-2.6-x86/lib/libcsr_h4ds.a(csr_h4ds_init.o)
 .debug_aranges
                0x0000000000000f80       0x20 ../output/default/pclin-2.6-x86/lib/libcsr_h4ds.a(csr_h4ds_le.o)
 .debug_aranges
                0x0000000000000fa0       0x20 ../output/default/pclin-2.6-x86/lib/libcsr_h4ds.a(csr_h4ds_tx.o)
 .debug_aranges
                0x0000000000000fc0       0x20 ../output/default/pclin-2.6-x86/lib/libcsr_h4ds.a(csr_h4ds_ds.o)
 .debug_aranges
                0x0000000000000fe0       0x20 ../output/default/pclin-2.6-x86/lib/libcsr_h4ds.a(csr_h4ds_rx.o)
 .debug_aranges
                0x0000000000001000       0x20 ../output/default/pclin-2.6-x86/lib/libcsr_h4ds.a(csr_h4ds_pump.o)
 .debug_aranges
                0x0000000000001020       0x20 ../output/default/pclin-2.6-x86/lib/libcsr_h4ds.a(csr_h4_events.o)
 .debug_aranges
                0x0000000000001040       0x20 ../output/default/pclin-2.6-x86/lib/libcsr_h4ds.a(csr_h4_int_handle.o)
 .debug_aranges
                0x0000000000001060       0x20 ../output/default/pclin-2.6-x86/lib/libcsr_h4ds.a(csr_h4_tx.o)
 .debug_aranges
                0x0000000000001080       0x20 ../output/default/pclin-2.6-x86/lib/libcsr_h4ds.a(csr_h4_rx.o)
 .debug_aranges
                0x00000000000010a0       0x20 ../output/default/pclin-2.6-x86/lib/libcsr_h4ds.a(csr_h4ds_event.o)
 .debug_aranges
                0x00000000000010c0       0x20 ../output/default/pclin-2.6-x86/lib/libcsr_h4ds.a(csr_h4ds_timers.o)
 .debug_aranges
                0x00000000000010e0       0x20 ../output/default/pclin-2.6-x86/lib/libcsr_h4ds.a(csr_h4ds_low_level_transport.o)
 .debug_aranges
                0x0000000000001100       0x20 ../output/default/pclin-2.6-x86/lib/libcsr_h4ds.a(csr_h4ds_tx_handle.o)
 .debug_aranges
                0x0000000000001120       0x20 ../output/default/pclin-2.6-x86/lib/libcsr_h4ds.a(csr_h4ds_scanner.o)
 .debug_aranges
                0x0000000000001140       0x20 ../output/default/pclin-2.6-x86/lib/libcsr_queue_lib.a(csr_queue_lib.o)
 .debug_aranges
                0x0000000000001160       0x20 ../bsp/ports/pclin/output/default/pclin-2.6-x86/lib/libcsr_util.a(csr_util.o)
 .debug_aranges
                0x0000000000001180       0x20 ../bsp/ports/pclin/output/default/pclin-2.6-x86/lib/libcsr_pmem.a(csr_pmem.o)
 .debug_aranges
                0x00000000000011a0       0x20 ../bsp/ports/pclin/output/default/pclin-2.6-x86/lib/libcsr_time.a(csr_time.o)
 .debug_aranges
                0x00000000000011c0       0x20 ../bsp/ports/pclin/output/default/pclin-2.6-x86/lib/libcsr_panic.a(csr_panic.o)
 .debug_aranges
                0x00000000000011e0       0x20 ../bsp/ports/pclin/output/default/pclin-2.6-x86/lib/libcsr_ser_com.a(csr_serial_com.o)
 .debug_aranges
                0x0000000000001200       0x20 ../bsp/ports/pclin/output/default/pclin-2.6-x86/lib/libcsr_usb_com.a(csr_usb_com.o)
 .debug_aranges
                0x0000000000001220       0x20 ../bsp/ports/pclin/output/default/pclin-2.6-x86/lib/libcsr_framework_ext.a(csr_framework_ext.o)
 .debug_aranges
                0x0000000000001240       0x20 ../bsp/ports/pclin/output/default/pclin-2.6-x86/lib/libcsr_fs.a(csr_posix_filesystem.o)
 .debug_aranges
                0x0000000000001260       0x20 ../output/default/pclin-2.6-x86/lib/libcsr_usb.a(csr_usb_transport.o)
 .debug_aranges
                0x0000000000001280       0x20 ../output/default/pclin-2.6-x86/lib/libcsr_ui.a(csr_ui_lib.o)
 .debug_aranges
                0x00000000000012a0       0x20 ../output/default/pclin-2.6-x86/lib/libcsr_ui.a(csr_ui_free_up.o)
 .debug_aranges
                0x00000000000012c0       0x20 ../output/default/pclin-2.6-x86/lib/libcsr_app.a(csr_app_lib.o)
 .debug_aranges
                0x00000000000012e0       0x20 ../output/default/pclin-2.6-x86/lib/libcsr_random.a(csr_random.o)
 .debug_aranges
                0x0000000000001300       0x20 ../output/default/pclin-2.6-x86/lib/libcsr_tm_bluecore.a(csr_tm_bluecore_lib.o)
 .debug_aranges
                0x0000000000001320       0x20 ../output/default/pclin-2.6-x86/lib/libcsr_tm_bluecore.a(csr_tm_bluecore_private_lib.o)
 .debug_aranges
                0x0000000000001340       0x20 ../output/default/pclin-2.6-x86/lib/libcsr_tftp_lib.a(csr_tftp_free_up.o)
 .debug_aranges
                0x0000000000001360       0x20 ../output/default/pclin-2.6-x86/lib/libcsr_tftp_lib.a(csr_tftp_lib.o)

.debug_pubnames
 *(.debug_pubnames)

.debug_info     0x0000000000000000    0x4e495
 *(.debug_info .gnu.linkonce.wi.*)
 .debug_info    0x0000000000000000      0x2c1 output/default/pclin-2.6-x86/obj/csr_tasks.o
 .debug_info    0x00000000000002c1      0x8d9 output/default/pclin-2.6-x86/obj/bootstrap/csr_bootstrap_generic.o
 .debug_info    0x0000000000000b9a      0x28c output/default/pclin-2.6-x86/obj/bootstrap/csr_bootstrap_specific_string_based.o
 .debug_info    0x0000000000000e26       0xb4 output/default/pclin-2.6-x86/obj/bootstrap/psr/pb-101r2_7558_uart.o
 .debug_info    0x0000000000000eda       0xb4 output/default/pclin-2.6-x86/obj/bootstrap/psr/pb-14r2_3164.o
 .debug_info    0x0000000000000f8e       0xb4 output/default/pclin-2.6-x86/obj/bootstrap/psr/pb-22r14_4363.o
 .debug_info    0x0000000000001042       0xb4 output/default/pclin-2.6-x86/obj/bootstrap/psr/pb-26r17_4698.o
 .debug_info    0x00000000000010f6       0xb4 output/default/pclin-2.6-x86/obj/bootstrap/psr/pb-27r20_4841.o
 .debug_info    0x00000000000011aa       0xb3 output/default/pclin-2.6-x86/obj/bootstrap/psr/pb-28r2_4839.o
 .debug_info    0x000000000000125d       0xb4 output/default/pclin-2.6-x86/obj/bootstrap/psr/pb-2r17_1958.o
 .debug_info    0x0000000000001311       0xb3 output/default/pclin-2.6-x86/obj/bootstrap/psr/pb-49r3_5892.o
 .debug_info    0x00000000000013c4       0xb4 output/default/pclin-2.6-x86/obj/bootstrap/psr/pb-51r22_5985_bga.o
 .debug_info    0x0000000000001478       0xb4 output/default/pclin-2.6-x86/obj/bootstrap/psr/pb-51r22_5985_csp0p4.o
 .debug_info    0x000000000000152c       0xb4 output/default/pclin-2.6-x86/obj/bootstrap/psr/pb-51r22_5985_csp0p5.o
 .debug_info    0x00000000000015e0       0xb4 output/default/pclin-2.6-x86/obj/bootstrap/psr/pb-51r26_5985_bga.o
 .debug_info    0x0000000000001694       0xb4 output/default/pclin-2.6-x86/obj/bootstrap/psr/pb-51r26_5985_csp0p4.o
 .debug_info    0x0000000000001748       0xb4 output/default/pclin-2.6-x86/obj/bootstrap/psr/pb-51r26_5985_csp0p5.o
 .debug_info    0x00000000000017fc       0xb4 output/default/pclin-2.6-x86/obj/bootstrap/psr/pb-53r7_6247_csp.o
 .debug_info    0x00000000000018b0       0xb4 output/default/pclin-2.6-x86/obj/bootstrap/psr/pb-53r7_6247_qfn.o
 .debug_info    0x0000000000001964       0xb4 output/default/pclin-2.6-x86/obj/bootstrap/psr/pb-75_6455_csp.o
 .debug_info    0x0000000000001a18       0xb3 output/default/pclin-2.6-x86/obj/bootstrap/psr/pb-84r2_6817_csp.o
 .debug_info    0x0000000000001acb       0xb4 output/default/pclin-2.6-x86/obj/bootstrap/psr/pb-90r1_6817.o
 .debug_info    0x0000000000001b7f       0xb3 output/default/pclin-2.6-x86/obj/bootstrap/psr/ps-default.o
 .debug_info    0x0000000000001c32       0xb4 output/default/pclin-2.6-x86/obj/bootstrap/psr/ps-gemini_a06.o
 .debug_info    0x0000000000001ce6     0x1256 ../output/default/pclin-2.6-x86/lib/libcsr_sched.a(csr_sched.o)
 .debug_info    0x0000000000002f3c      0x69e ../output/default/pclin-2.6-x86/lib/libcsr_ui.a(csr_ui_ctrl.o)
 .debug_info    0x00000000000035da      0x920 ../output/default/pclin-2.6-x86/lib/libcsr_ui.a(csr_ui_displaystack.o)
 .debug_info    0x0000000000003efa      0x2b4 ../output/default/pclin-2.6-x86/lib/libcsr_ui.a(csr_ui_emulator_touchdecoder.o)
 .debug_info    0x00000000000041ae      0xfa6 ../output/default/pclin-2.6-x86/lib/libcsr_ui.a(csr_ui_keyhandler.o)
 .debug_info    0x0000000000005154     0x1531 ../output/default/pclin-2.6-x86/lib/libcsr_ui.a(csr_ui_renderer.o)
 .debug_info    0x0000000000006685      0xf4b ../output/default/pclin-2.6-x86/lib/libcsr_ui.a(csr_ui_renderer_text.o)
 .debug_info    0x00000000000075d0     0x1cf9 ../output/default/pclin-2.6-x86/lib/libcsr_ui.a(csr_ui_sef.o)
 .debug_info    0x00000000000092c9     0x108f ../output/default/pclin-2.6-x86/lib/libcsr_ui.a(csr_ui_uiemanager.o)
 .debug_info    0x000000000000a358      0x2e0 ../output/default/pclin-2.6-x86/lib/libcsr_ui.a(csr_ui_util.o)
 .debug_info    0x000000000000a638      0x5e8 ../output/default/pclin-2.6-x86/lib/libcsr_ui.a(csr_ui_free_down.o)
 .debug_info    0x000000000000ac20      0x83f ../output/default/pclin-2.6-x86/lib/libcsr_ui.a(csr_ui_graphics_driver.o)
 .debug_info    0x000000000000b45f      0x60b ../output/default/pclin-2.6-x86/lib/libcsr_ui.a(csr_ui_icon.o)
 .debug_info    0x000000000000ba6a       0xbf ../output/default/pclin-2.6-x86/lib/libcsr_ui.a(csr_ui_font_sax_mono_12x22.o)
 .debug_info    0x000000000000bb29       0xbf ../output/default/pclin-2.6-x86/lib/libcsr_ui.a(csr_ui_font_sax_mono_10x21.o)
 .debug_info    0x000000000000bbe8      0x983 ../output/default/pclin-2.6-x86/lib/libcsr_app.a(csr_app_handler.o)
 .debug_info    0x000000000000c56b      0xcf3 ../output/default/pclin-2.6-x86/lib/libcsr_app.a(csr_app_ui_sef.o)
 .debug_info    0x000000000000d25e      0x87b ../output/default/pclin-2.6-x86/lib/libcsr_app.a(csr_app_util.o)
 .debug_info    0x000000000000dad9      0x25a ../output/default/pclin-2.6-x86/lib/libcsr_app.a(csr_app_free_down.o)
 .debug_info    0x000000000000dd33       0xce ../output/default/pclin-2.6-x86/lib/libcsr_app.a(csr_app_lower_private.o)
 .debug_info    0x000000000000de01       0xe8 ../bsp/ports/pclin/output/default/pclin-2.6-x86/lib/libcsr_main.a(csr_main.o)
 .debug_info    0x000000000000dee9      0x208 ../output/default/pclin-2.6-x86/lib/libcsr_arg_search.a(csr_arg_search.o)
 .debug_info    0x000000000000e0f1      0x434 ../bsp/ports/pclin/output/default/pclin-2.6-x86/lib/libcsr_app_main_bluecore.a(csr_app_main.o)
 .debug_info    0x000000000000e525      0x55f ../bsp/ports/pclin/output/default/pclin-2.6-x86/lib/libcsr_app_main_bluecore.a(csr_key_input.o)
 .debug_info    0x000000000000ea84      0x38f ../bsp/ports/pclin/output/default/pclin-2.6-x86/lib/libcsr_app_main_bluecore.a(csr_ui_lower.o)
 .debug_info    0x000000000000ee13      0x31a ../bsp/ports/pclin/output/default/pclin-2.6-x86/lib/libcsr_app_main_bluecore.a(csr_app_main_transport_bluecore.o)
 .debug_info    0x000000000000f12d      0x2f0 ../output/default/pclin-2.6-x86/lib/libcsr_tm_bluecore.a(csr_tm_bluecore_handler.o)
 .debug_info    0x000000000000f41d      0xa94 ../output/default/pclin-2.6-x86/lib/libcsr_tm_bluecore.a(csr_tm_bluecore_sef.o)
 .debug_info    0x000000000000feb1      0x4ab ../output/default/pclin-2.6-x86/lib/libcsr_tm_bluecore.a(csr_tm_bluecore_transport.o)
 .debug_info    0x000000000001035c      0x541 ../output/default/pclin-2.6-x86/lib/libcsr_bccmd.a(csr_bccmd_handler.o)
 .debug_info    0x000000000001089d      0x5a7 ../output/default/pclin-2.6-x86/lib/libcsr_bccmd.a(csr_bccmd_lib.o)
 .debug_info    0x0000000000010e44      0xf5e ../output/default/pclin-2.6-x86/lib/libcsr_bccmd.a(csr_bccmd_sef.o)
 .debug_info    0x0000000000011da2      0x32b ../output/default/pclin-2.6-x86/lib/libcsr_bccmd.a(csr_bccmd_private_lib.o)
 .debug_info    0x00000000000120cd      0x211 ../output/default/pclin-2.6-x86/lib/libcsr_bccmd.a(csr_bccmd_util.o)
 .debug_info    0x00000000000122de      0x1bc ../output/default/pclin-2.6-x86/lib/libcsr_bccmd.a(csr_bccmd_free_up.o)
 .debug_info    0x000000000001249a      0x53d ../output/default/pclin-2.6-x86/lib/libcsr_fastpipe.a(csr_fp_handler.o)
 .debug_info    0x00000000000129d7     0x1307 ../output/default/pclin-2.6-x86/lib/libcsr_fastpipe.a(csr_fp_sef.o)
 .debug_info    0x0000000000013cde      0x3dc ../output/default/pclin-2.6-x86/lib/libcsr_fastpipe.a(csr_fp_free_down.o)
 .debug_info    0x00000000000140ba      0x3b0 ../output/default/pclin-2.6-x86/lib/libcsr_hq.a(csr_hq_handler.o)
 .debug_info    0x000000000001446a      0x449 ../output/default/pclin-2.6-x86/lib/libcsr_hq.a(csr_hq_subscriber.o)
 .debug_info    0x00000000000148b3      0x99c ../output/default/pclin-2.6-x86/lib/libcsr_hq.a(csr_hq_sef.o)
 .debug_info    0x000000000001524f      0x1bc ../output/default/pclin-2.6-x86/lib/libcsr_hq.a(csr_hq_free_down.o)
 .debug_info    0x000000000001540b      0x7bc ../output/default/pclin-2.6-x86/lib/libcsr_vm.a(csr_vm_handler.o)
 .debug_info    0x0000000000015bc7      0x179 ../output/default/pclin-2.6-x86/lib/libcsr_vm.a(csr_vm_free_down.o)
 .debug_info    0x0000000000015d40      0x870 ../output/default/pclin-2.6-x86/lib/libcsr_am.a(csr_am_handler.o)
 .debug_info    0x00000000000165b0     0x201b ../output/default/pclin-2.6-x86/lib/libcsr_am.a(csr_am_util.o)
 .debug_info    0x00000000000185cb      0xfe1 ../output/default/pclin-2.6-x86/lib/libcsr_am.a(csr_am_sef.o)
 .debug_info    0x00000000000195ac      0x40d ../output/default/pclin-2.6-x86/lib/libcsr_am.a(csr_am_free_down.o)
 .debug_info    0x00000000000199b9      0x6e9 ../output/default/pclin-2.6-x86/lib/libcsr_hci.a(csr_hci_handler.o)
 .debug_info    0x000000000001a0a2      0x916 ../output/default/pclin-2.6-x86/lib/libcsr_hci.a(csr_hci_lib.o)
 .debug_info    0x000000000001a9b8      0xe4f ../output/default/pclin-2.6-x86/lib/libcsr_hci.a(csr_hci_sef.o)
 .debug_info    0x000000000001b807      0xf21 ../output/default/pclin-2.6-x86/lib/libcsr_hci.a(csr_hci_util.o)
 .debug_info    0x000000000001c728      0x27f ../output/default/pclin-2.6-x86/lib/libcsr_hci.a(csr_hci_sco.o)
 .debug_info    0x000000000001c9a7      0x557 ../output/default/pclin-2.6-x86/lib/libcsr_hci.a(csr_hci_free_down.o)
 .debug_info    0x000000000001cefe      0x4eb ../output/default/pclin-2.6-x86/lib/libcsr_hci.a(csr_hci_free_up.o)
 .debug_info    0x000000000001d3e9      0x192 ../output/default/pclin-2.6-x86/lib/libcsr_hci.a(csr_hci_private_free_up.o)
 .debug_info    0x000000000001d57b      0x358 ../output/default/pclin-2.6-x86/lib/libcsr_bluecore_manager.a(csr_bluecore_manager_handler.o)
 .debug_info    0x000000000001d8d3      0xd09 ../output/default/pclin-2.6-x86/lib/libcsr_bluecore_manager.a(csr_bluecore_manager_sef.o)
 .debug_info    0x000000000001e5dc      0xc43 ../output/default/pclin-2.6-x86/lib/libcsr_ethernet_manager.a(csr_ethernet_manager.o)
 .debug_info    0x000000000001f21f      0x49a ../output/default/pclin-2.6-x86/lib/libcsr_tcp_transceiver.a(csr_tcp_transceiver_handler.o)
 .debug_info    0x000000000001f6b9     0x1a4d ../output/default/pclin-2.6-x86/lib/libcsr_tcp_transceiver.a(csr_tcp_transceiver_sef.o)
 .debug_info    0x0000000000021106      0xcb9 ../bsp/ports/pclin/output/default/pclin-2.6-x86/lib/libcsr_ip.a(csr_ip_handler.o)
 .debug_info    0x0000000000021dbf     0x240c ../bsp/ports/pclin/output/default/pclin-2.6-x86/lib/libcsr_ip.a(csr_ip_ifconfig_sef.o)
 .debug_info    0x00000000000241cb      0xaaf ../bsp/ports/pclin/output/default/pclin-2.6-x86/lib/libcsr_ip.a(csr_ip_netlink_parser.o)
 .debug_info    0x0000000000024c7a     0x33ee ../bsp/ports/pclin/output/default/pclin-2.6-x86/lib/libcsr_ip.a(csr_ip_socket_sef.o)
 .debug_info    0x0000000000028068      0xf6c ../bsp/ports/pclin/output/default/pclin-2.6-x86/lib/libcsr_ip.a(csr_ip_thread.o)
 .debug_info    0x0000000000028fd4      0xb27 ../bsp/ports/pclin/output/default/pclin-2.6-x86/lib/libcsr_ip.a(csr_ip_util.o)
 .debug_info    0x0000000000029afb     0x1613 ../bsp/ports/pclin/output/default/pclin-2.6-x86/lib/libcsr_ip.a(csr_ip_ether_sef.o)
 .debug_info    0x000000000002b10e      0x103 ../output/default/pclin-2.6-x86/lib/libcsr_ip_ether_lib.a(csr_ip_ether_free_down.o)
 .debug_info    0x000000000002b211      0x56a ../output/default/pclin-2.6-x86/lib/libcsr_ip_ether_lib.a(csr_ip_ether_private_lib.o)
 .debug_info    0x000000000002b77b      0x364 ../output/default/pclin-2.6-x86/lib/libcsr_ip_socket_lib.a(csr_ip_socket_free_up.o)
 .debug_info    0x000000000002badf      0x339 ../output/default/pclin-2.6-x86/lib/libcsr_ip_socket_lib.a(csr_ip_socket_free_down.o)
 .debug_info    0x000000000002be18      0xead ../output/default/pclin-2.6-x86/lib/libcsr_ip_socket_lib.a(csr_ip_socket_lib.o)
 .debug_info    0x000000000002ccc5      0xfd7 ../output/default/pclin-2.6-x86/lib/libcsr_ip_socket_lib.a(csr_ip_socket_private_lib.o)
 .debug_info    0x000000000002dc9c      0x257 ../output/default/pclin-2.6-x86/lib/libcsr_ip_ifconfig_lib.a(csr_ip_ifconfig_free_up.o)
 .debug_info    0x000000000002def3      0x103 ../output/default/pclin-2.6-x86/lib/libcsr_ip_ifconfig_lib.a(csr_ip_ifconfig_free_down.o)
 .debug_info    0x000000000002dff6      0x59c ../output/default/pclin-2.6-x86/lib/libcsr_ip_ifconfig_lib.a(csr_ip_ifconfig_lib.o)
 .debug_info    0x000000000002e592      0x586 ../output/default/pclin-2.6-x86/lib/libcsr_ip_ifconfig_lib.a(csr_ip_ifconfig_private_lib.o)
 .debug_info    0x000000000002eb18     0x1489 ../output/default/pclin-2.6-x86/lib/libcsr_dhcp_server_manager.a(csr_dhcp_server_manager.o)
 .debug_info    0x000000000002ffa1      0xba5 ../output/default/pclin-2.6-x86/lib/libcsr_dhcp_server.a(csr_dhcp_server_handler.o)
 .debug_info    0x0000000000030b46     0x1334 ../output/default/pclin-2.6-x86/lib/libcsr_dhcp_server.a(csr_dhcp_server_sef.o)
 .debug_info    0x0000000000031e7a     0x1d09 ../output/default/pclin-2.6-x86/lib/libcsr_dhcp_server.a(csr_dhcp_server_util.o)
 .debug_info    0x0000000000033b83      0x235 ../output/default/pclin-2.6-x86/lib/libcsr_dhcp_server_lib.a(csr_dhcp_server_free_down.o)
 .debug_info    0x0000000000033db8      0x526 ../output/default/pclin-2.6-x86/lib/libcsr_dhcp_server_lib.a(csr_dhcp_server_lib.o)
 .debug_info    0x00000000000342de      0x5ca ../output/default/pclin-2.6-x86/lib/libcsr_dhcp_server_lib.a(csr_dhcp_server_lib_priv.o)
 .debug_info    0x00000000000348a8      0x436 ../output/default/pclin-2.6-x86/lib/libcsr_tftp.a(csr_tftp_handler.o)
 .debug_info    0x0000000000034cde     0x14f3 ../output/default/pclin-2.6-x86/lib/libcsr_tftp.a(csr_tftp_sef.o)
 .debug_info    0x00000000000361d1      0x192 ../output/default/pclin-2.6-x86/lib/libcsr_tftp_lib.a(csr_tftp_free_down.o)
 .debug_info    0x0000000000036363      0x42a ../output/default/pclin-2.6-x86/lib/libcsr_tftp_lib.a(csr_tftp_lib_priv.o)
 .debug_info    0x000000000003678d      0x30f ../output/default/pclin-2.6-x86/lib/libcsr_tftp_file.a(csr_tftp_file_handler.o)
 .debug_info    0x0000000000036a9c      0xbe4 ../output/default/pclin-2.6-x86/lib/libcsr_tftp_file.a(csr_tftp_file_sef.o)
 .debug_info    0x0000000000037680      0x379 ../output/default/pclin-2.6-x86/lib/libcsr_fsal.a(csr_fsal_handler.o)
 .debug_info    0x00000000000379f9     0x1e6e ../output/default/pclin-2.6-x86/lib/libcsr_fsal.a(csr_fsal_sef.o)
 .debug_info    0x0000000000039867      0x3dc ../output/default/pclin-2.6-x86/lib/libcsr_fsal.a(csr_fsal_sef_utils.o)
 .debug_info    0x0000000000039c43      0x8b0 ../output/default/pclin-2.6-x86/lib/libcsr_fsal.a(csr_fsal_utils.o)
 .debug_info    0x000000000003a4f3      0x54e ../output/default/pclin-2.6-x86/lib/libcsr_fsal_lib.a(csr_fsal_free_up.o)
 .debug_info    0x000000000003aa41      0x59c ../output/default/pclin-2.6-x86/lib/libcsr_fsal_lib.a(csr_fsal_free_down.o)
 .debug_info    0x000000000003afdd      0xb90 ../output/default/pclin-2.6-x86/lib/libcsr_fsal_lib.a(csr_fsal_lib.o)
 .debug_info    0x000000000003bb6d      0xde2 ../output/default/pclin-2.6-x86/lib/libcsr_fsal_lib.a(csr_fsal_lib_priv.o)
 .debug_info    0x000000000003c94f      0x71f ../output/default/pclin-2.6-x86/lib/libcsr_list.a(csr_list.o)
 .debug_info    0x000000000003d06e      0x2af ../output/default/pclin-2.6-x86/lib/libcsr_message_queue.a(csr_message_queue.o)
 .debug_info    0x000000000003d31d      0x14a ../output/default/pclin-2.6-x86/lib/libcsr_formatted_io.a(csr_formatted_io.o)
 .debug_info    0x000000000003d467      0xa52 ../output/default/pclin-2.6-x86/lib/libcsr_unicode.a(csr_utf16.o)
 .debug_info    0x000000000003deb9      0xb08 ../output/default/pclin-2.6-x86/lib/libcsr_mblk.a(csr_mblk.o)
 .debug_info    0x000000000003e9c1      0x4bd ../output/default/pclin-2.6-x86/lib/libcsr_mblk.a(csr_mblk_duplicate.o)
 .debug_info    0x000000000003ee7e      0x69f ../output/default/pclin-2.6-x86/lib/libcsr_mblk.a(csr_mblk_pmalloc.o)
 .debug_info    0x000000000003f51d      0x3ac ../output/default/pclin-2.6-x86/lib/libcsr_mblk.a(csr_mblk_read_head.o)
 .debug_info    0x000000000003f8c9      0x8ae ../output/default/pclin-2.6-x86/lib/libcsr_bcsp.a(csr_abcsp_transport.o)
 .debug_info    0x0000000000040177      0x66d ../output/default/pclin-2.6-x86/lib/libcsr_bcsp.a(csr_abcsp_init_c.o)
 .debug_info    0x00000000000407e4      0x141 ../output/default/pclin-2.6-x86/lib/libcsr_bcsp.a(csr_abcsp_events.o)
 .debug_info    0x0000000000040925      0x69b ../output/default/pclin-2.6-x86/lib/libcsr_bcsp.a(csr_abcsp_rd_hl.o)
 .debug_info    0x0000000000040fc0      0x843 ../output/default/pclin-2.6-x86/lib/libcsr_bcsp.a(csr_abcsp_le.o)
 .debug_info    0x0000000000041803      0x837 ../output/default/pclin-2.6-x86/lib/libcsr_bcsp.a(csr_abcsp_rx.o)
 .debug_info    0x000000000004203a      0x95f ../output/default/pclin-2.6-x86/lib/libcsr_bcsp.a(csr_abcsp_txmsg.o)
 .debug_info    0x0000000000042999      0x25c ../output/default/pclin-2.6-x86/lib/libcsr_bcsp.a(csr_abcsp_tx_rx_msg_intf.o)
 .debug_info    0x0000000000042bf5      0x776 ../output/default/pclin-2.6-x86/lib/libcsr_bcsp.a(csr_abcsp_txslip.o)
 .debug_info    0x000000000004336b      0x799 ../output/default/pclin-2.6-x86/lib/libcsr_bcsp.a(csr_abcsp_timers.o)
 .debug_info    0x0000000000043b04      0x657 ../output/default/pclin-2.6-x86/lib/libcsr_bcsp.a(csr_abcsp_tx_handle.o)
 .debug_info    0x000000000004415b      0x1e8 ../output/default/pclin-2.6-x86/lib/libcsr_bcsp.a(csr_abcsp_crc.o)
 .debug_info    0x0000000000044343      0x6fc ../output/default/pclin-2.6-x86/lib/libcsr_h4ds.a(csr_h4ds_transport.o)
 .debug_info    0x0000000000044a3f      0x52e ../output/default/pclin-2.6-x86/lib/libcsr_h4ds.a(csr_h4ds_initialize.o)
 .debug_info    0x0000000000044f6d      0x494 ../output/default/pclin-2.6-x86/lib/libcsr_h4ds.a(csr_h4ds_pump_msg.o)
 .debug_info    0x0000000000045401       0xac ../output/default/pclin-2.6-x86/lib/libcsr_h4ds.a(csr_h4ds_init.o)
 .debug_info    0x00000000000454ad      0x1e1 ../output/default/pclin-2.6-x86/lib/libcsr_h4ds.a(csr_h4ds_le.o)
 .debug_info    0x000000000004568e      0x6be ../output/default/pclin-2.6-x86/lib/libcsr_h4ds.a(csr_h4ds_tx.o)
 .debug_info    0x0000000000045d4c      0x37f ../output/default/pclin-2.6-x86/lib/libcsr_h4ds.a(csr_h4ds_ds.o)
 .debug_info    0x00000000000460cb      0x2ce ../output/default/pclin-2.6-x86/lib/libcsr_h4ds.a(csr_h4ds_rx.o)
 .debug_info    0x0000000000046399       0xf2 ../output/default/pclin-2.6-x86/lib/libcsr_h4ds.a(csr_h4ds_pump.o)
 .debug_info    0x000000000004648b       0xb9 ../output/default/pclin-2.6-x86/lib/libcsr_h4ds.a(csr_h4_events.o)
 .debug_info    0x0000000000046544      0x263 ../output/default/pclin-2.6-x86/lib/libcsr_h4ds.a(csr_h4_int_handle.o)
 .debug_info    0x00000000000467a7      0x3e0 ../output/default/pclin-2.6-x86/lib/libcsr_h4ds.a(csr_h4_tx.o)
 .debug_info    0x0000000000046b87      0x1d5 ../output/default/pclin-2.6-x86/lib/libcsr_h4ds.a(csr_h4_rx.o)
 .debug_info    0x0000000000046d5c      0x17d ../output/default/pclin-2.6-x86/lib/libcsr_h4ds.a(csr_h4ds_event.o)
 .debug_info    0x0000000000046ed9      0x434 ../output/default/pclin-2.6-x86/lib/libcsr_h4ds.a(csr_h4ds_timers.o)
 .debug_info    0x000000000004730d      0x36a ../output/default/pclin-2.6-x86/lib/libcsr_h4ds.a(csr_h4ds_low_level_transport.o)
 .debug_info    0x0000000000047677      0x29f ../output/default/pclin-2.6-x86/lib/libcsr_h4ds.a(csr_h4ds_tx_handle.o)
 .debug_info    0x0000000000047916      0x19d ../output/default/pclin-2.6-x86/lib/libcsr_h4ds.a(csr_h4ds_msgs.o)
 .debug_info    0x0000000000047ab3      0x353 ../output/default/pclin-2.6-x86/lib/libcsr_h4ds.a(csr_h4ds_scanner.o)
 .debug_info    0x0000000000047e06      0x344 ../output/default/pclin-2.6-x86/lib/libcsr_queue_lib.a(csr_queue_lib.o)
 .debug_info    0x000000000004814a      0xa16 ../bsp/ports/pclin/output/default/pclin-2.6-x86/lib/libcsr_util.a(csr_util.o)
 .debug_info    0x0000000000048b60      0x137 ../bsp/ports/pclin/output/default/pclin-2.6-x86/lib/libcsr_pmem.a(csr_pmem.o)
 .debug_info    0x0000000000048c97      0x23d ../bsp/ports/pclin/output/default/pclin-2.6-x86/lib/libcsr_time.a(csr_time.o)
 .debug_info    0x0000000000048ed4      0x159 ../bsp/ports/pclin/output/default/pclin-2.6-x86/lib/libcsr_panic.a(csr_panic.o)
 .debug_info    0x000000000004902d      0xab1 ../bsp/ports/pclin/output/default/pclin-2.6-x86/lib/libcsr_ser_com.a(csr_serial_com.o)
 .debug_info    0x0000000000049ade      0x613 ../bsp/ports/pclin/output/default/pclin-2.6-x86/lib/libcsr_usb_com.a(csr_usb_com.o)
 .debug_info    0x000000000004a0f1      0x869 ../bsp/ports/pclin/output/default/pclin-2.6-x86/lib/libcsr_framework_ext.a(csr_framework_ext.o)
 .debug_info    0x000000000004a95a      0xe5b ../bsp/ports/pclin/output/default/pclin-2.6-x86/lib/libcsr_fs.a(csr_posix_filesystem.o)
 .debug_info    0x000000000004b7b5      0x513 ../output/default/pclin-2.6-x86/lib/libcsr_usb.a(csr_usb_transport.o)
 .debug_info    0x000000000004bcc8     0x157f ../output/default/pclin-2.6-x86/lib/libcsr_ui.a(csr_ui_lib.o)
 .debug_info    0x000000000004d247      0x3e7 ../output/default/pclin-2.6-x86/lib/libcsr_ui.a(csr_ui_free_up.o)
 .debug_info    0x000000000004d62e      0x3be ../output/default/pclin-2.6-x86/lib/libcsr_app.a(csr_app_lib.o)
 .debug_info    0x000000000004d9ec      0x1ea ../output/default/pclin-2.6-x86/lib/libcsr_random.a(csr_random.o)
 .debug_info    0x000000000004dbd6      0x198 ../output/default/pclin-2.6-x86/lib/libcsr_tm_bluecore.a(csr_tm_bluecore_lib.o)
 .debug_info    0x000000000004dd6e      0x155 ../output/default/pclin-2.6-x86/lib/libcsr_tm_bluecore.a(csr_tm_bluecore_private_lib.o)
 .debug_info    0x000000000004dec3      0x238 ../output/default/pclin-2.6-x86/lib/libcsr_tftp_lib.a(csr_tftp_free_up.o)
 .debug_info    0x000000000004e0fb      0x39a ../output/default/pclin-2.6-x86/lib/libcsr_tftp_lib.a(csr_tftp_lib.o)

.debug_abbrev   0x0000000000000000     0xb8a7
 *(.debug_abbrev)
 .debug_abbrev  0x0000000000000000       0xdd output/default/pclin-2.6-x86/obj/csr_tasks.o
 .debug_abbrev  0x00000000000000dd      0x1a4 output/default/pclin-2.6-x86/obj/bootstrap/csr_bootstrap_generic.o
 .debug_abbrev  0x0000000000000281       0xe5 output/default/pclin-2.6-x86/obj/bootstrap/csr_bootstrap_specific_string_based.o
 .debug_abbrev  0x0000000000000366       0x61 output/default/pclin-2.6-x86/obj/bootstrap/psr/pb-101r2_7558_uart.o
 .debug_abbrev  0x00000000000003c7       0x61 output/default/pclin-2.6-x86/obj/bootstrap/psr/pb-14r2_3164.o
 .debug_abbrev  0x0000000000000428       0x61 output/default/pclin-2.6-x86/obj/bootstrap/psr/pb-22r14_4363.o
 .debug_abbrev  0x0000000000000489       0x61 output/default/pclin-2.6-x86/obj/bootstrap/psr/pb-26r17_4698.o
 .debug_abbrev  0x00000000000004ea       0x61 output/default/pclin-2.6-x86/obj/bootstrap/psr/pb-27r20_4841.o
 .debug_abbrev  0x000000000000054b       0x61 output/default/pclin-2.6-x86/obj/bootstrap/psr/pb-28r2_4839.o
 .debug_abbrev  0x00000000000005ac       0x61 output/default/pclin-2.6-x86/obj/bootstrap/psr/pb-2r17_1958.o
 .debug_abbrev  0x000000000000060d       0x61 output/default/pclin-2.6-x86/obj/bootstrap/psr/pb-49r3_5892.o
 .debug_abbrev  0x000000000000066e       0x61 output/default/pclin-2.6-x86/obj/bootstrap/psr/pb-51r22_5985_bga.o
 .debug_abbrev  0x00000000000006cf       0x61 output/default/pclin-2.6-x86/obj/bootstrap/psr/pb-51r22_5985_csp0p4.o
 .debug_abbrev  0x0000000000000730       0x61 output/default/pclin-2.6-x86/obj/bootstrap/psr/pb-51r22_5985_csp0p5.o
 .debug_abbrev  0x0000000000000791       0x61 output/default/pclin-2.6-x86/obj/bootstrap/psr/pb-51r26_5985_bga.o
 .debug_abbrev  0x00000000000007f2       0x61 output/default/pclin-2.6-x86/obj/bootstrap/psr/pb-51r26_5985_csp0p4.o
 .debug_abbrev  0x0000000000000853       0x61 output/default/pclin-2.6-x86/obj/bootstrap/psr/pb-51r26_5985_csp0p5.o
 .debug_abbrev  0x00000000000008b4       0x61 output/default/pclin-2.6-x86/obj/bootstrap/psr/pb-53r7_6247_csp.o
 .debug_abbrev  0x0000000000000915       0x61 output/default/pclin-2.6-x86/obj/bootstrap/psr/pb-53r7_6247_qfn.o
 .debug_abbrev  0x0000000000000976       0x61 output/default/pclin-2.6-x86/obj/bootstrap/psr/pb-75_6455_csp.o
 .debug_abbrev  0x00000000000009d7       0x61 output/default/pclin-2.6-x86/obj/bootstrap/psr/pb-84r2_6817_csp.o
 .debug_abbrev  0x0000000000000a38       0x61 output/default/pclin-2.6-x86/obj/bootstrap/psr/pb-90r1_6817.o
 .debug_abbrev  0x0000000000000a99       0x61 output/default/pclin-2.6-x86/obj/bootstrap/psr/ps-default.o
 .debug_abbrev  0x0000000000000afa       0x61 output/default/pclin-2.6-x86/obj/bootstrap/psr/ps-gemini_a06.o
 .debug_abbrev  0x0000000000000b5b      0x1f2 ../output/default/pclin-2.6-x86/lib/libcsr_sched.a(csr_sched.o)
 .debug_abbrev  0x0000000000000d4d       0xe9 ../output/default/pclin-2.6-x86/lib/libcsr_ui.a(csr_ui_ctrl.o)
 .debug_abbrev  0x0000000000000e36      0x113 ../output/default/pclin-2.6-x86/lib/libcsr_ui.a(csr_ui_displaystack.o)
 .debug_abbrev  0x0000000000000f49       0xd7 ../output/default/pclin-2.6-x86/lib/libcsr_ui.a(csr_ui_emulator_touchdecoder.o)
 .debug_abbrev  0x0000000000001020      0x204 ../output/default/pclin-2.6-x86/lib/libcsr_ui.a(csr_ui_keyhandler.o)
 .debug_abbrev  0x0000000000001224      0x1ce ../output/default/pclin-2.6-x86/lib/libcsr_ui.a(csr_ui_renderer.o)
 .debug_abbrev  0x00000000000013f2      0x19a ../output/default/pclin-2.6-x86/lib/libcsr_ui.a(csr_ui_renderer_text.o)
 .debug_abbrev  0x000000000000158c      0x147 ../output/default/pclin-2.6-x86/lib/libcsr_ui.a(csr_ui_sef.o)
 .debug_abbrev  0x00000000000016d3      0x182 ../output/default/pclin-2.6-x86/lib/libcsr_ui.a(csr_ui_uiemanager.o)
 .debug_abbrev  0x0000000000001855       0xbc ../output/default/pclin-2.6-x86/lib/libcsr_ui.a(csr_ui_util.o)
 .debug_abbrev  0x0000000000001911       0xf3 ../output/default/pclin-2.6-x86/lib/libcsr_ui.a(csr_ui_free_down.o)
 .debug_abbrev  0x0000000000001a04      0x12f ../output/default/pclin-2.6-x86/lib/libcsr_ui.a(csr_ui_graphics_driver.o)
 .debug_abbrev  0x0000000000001b33       0xf5 ../output/default/pclin-2.6-x86/lib/libcsr_ui.a(csr_ui_icon.o)
 .debug_abbrev  0x0000000000001c28       0x61 ../output/default/pclin-2.6-x86/lib/libcsr_ui.a(csr_ui_font_sax_mono_12x22.o)
 .debug_abbrev  0x0000000000001c89       0x61 ../output/default/pclin-2.6-x86/lib/libcsr_ui.a(csr_ui_font_sax_mono_10x21.o)
 .debug_abbrev  0x0000000000001cea      0x14c ../output/default/pclin-2.6-x86/lib/libcsr_app.a(csr_app_handler.o)
 .debug_abbrev  0x0000000000001e36      0x135 ../output/default/pclin-2.6-x86/lib/libcsr_app.a(csr_app_ui_sef.o)
 .debug_abbrev  0x0000000000001f6b      0x12c ../output/default/pclin-2.6-x86/lib/libcsr_app.a(csr_app_util.o)
 .debug_abbrev  0x0000000000002097       0xca ../output/default/pclin-2.6-x86/lib/libcsr_app.a(csr_app_free_down.o)
 .debug_abbrev  0x0000000000002161       0x7e ../output/default/pclin-2.6-x86/lib/libcsr_app.a(csr_app_lower_private.o)
 .debug_abbrev  0x00000000000021df       0x68 ../bsp/ports/pclin/output/default/pclin-2.6-x86/lib/libcsr_main.a(csr_main.o)
 .debug_abbrev  0x0000000000002247       0x95 ../output/default/pclin-2.6-x86/lib/libcsr_arg_search.a(csr_arg_search.o)
 .debug_abbrev  0x00000000000022dc      0x126 ../bsp/ports/pclin/output/default/pclin-2.6-x86/lib/libcsr_app_main_bluecore.a(csr_app_main.o)
 .debug_abbrev  0x0000000000002402      0x161 ../bsp/ports/pclin/output/default/pclin-2.6-x86/lib/libcsr_app_main_bluecore.a(csr_key_input.o)
 .debug_abbrev  0x0000000000002563      0x10c ../bsp/ports/pclin/output/default/pclin-2.6-x86/lib/libcsr_app_main_bluecore.a(csr_ui_lower.o)
 .debug_abbrev  0x000000000000266f       0xee ../bsp/ports/pclin/output/default/pclin-2.6-x86/lib/libcsr_app_main_bluecore.a(csr_app_main_transport_bluecore.o)
 .debug_abbrev  0x000000000000275d       0xcc ../output/default/pclin-2.6-x86/lib/libcsr_tm_bluecore.a(csr_tm_bluecore_handler.o)
 .debug_abbrev  0x0000000000002829      0x126 ../output/default/pclin-2.6-x86/lib/libcsr_tm_bluecore.a(csr_tm_bluecore_sef.o)
 .debug_abbrev  0x000000000000294f      0x102 ../output/default/pclin-2.6-x86/lib/libcsr_tm_bluecore.a(csr_tm_bluecore_transport.o)
 .debug_abbrev  0x0000000000002a51       0xf5 ../output/default/pclin-2.6-x86/lib/libcsr_bccmd.a(csr_bccmd_handler.o)
 .debug_abbrev  0x0000000000002b46       0xe9 ../output/default/pclin-2.6-x86/lib/libcsr_bccmd.a(csr_bccmd_lib.o)
 .debug_abbrev  0x0000000000002c2f      0x1c7 ../output/default/pclin-2.6-x86/lib/libcsr_bccmd.a(csr_bccmd_sef.o)
 .debug_abbrev  0x0000000000002df6       0x93 ../output/default/pclin-2.6-x86/lib/libcsr_bccmd.a(csr_bccmd_private_lib.o)
 .debug_abbrev  0x0000000000002e89       0x9d ../output/default/pclin-2.6-x86/lib/libcsr_bccmd.a(csr_bccmd_util.o)
 .debug_abbrev  0x0000000000002f26       0xb0 ../output/default/pclin-2.6-x86/lib/libcsr_bccmd.a(csr_bccmd_free_up.o)
 .debug_abbrev  0x0000000000002fd6      0x10c ../output/default/pclin-2.6-x86/lib/libcsr_fastpipe.a(csr_fp_handler.o)
 .debug_abbrev  0x00000000000030e2      0x1f0 ../output/default/pclin-2.6-x86/lib/libcsr_fastpipe.a(csr_fp_sef.o)
 .debug_abbrev  0x00000000000032d2      0x10a ../output/default/pclin-2.6-x86/lib/libcsr_fastpipe.a(csr_fp_free_down.o)
 .debug_abbrev  0x00000000000033dc       0xd1 ../output/default/pclin-2.6-x86/lib/libcsr_hq.a(csr_hq_handler.o)
 .debug_abbrev  0x00000000000034ad       0xfc ../output/default/pclin-2.6-x86/lib/libcsr_hq.a(csr_hq_subscriber.o)
 .debug_abbrev  0x00000000000035a9      0x13b ../output/default/pclin-2.6-x86/lib/libcsr_hq.a(csr_hq_sef.o)
 .debug_abbrev  0x00000000000036e4       0xb0 ../output/default/pclin-2.6-x86/lib/libcsr_hq.a(csr_hq_free_down.o)
 .debug_abbrev  0x0000000000003794      0x13f ../output/default/pclin-2.6-x86/lib/libcsr_vm.a(csr_vm_handler.o)
 .debug_abbrev  0x00000000000038d3       0xb0 ../output/default/pclin-2.6-x86/lib/libcsr_vm.a(csr_vm_free_down.o)
 .debug_abbrev  0x0000000000003983      0x13f ../output/default/pclin-2.6-x86/lib/libcsr_am.a(csr_am_handler.o)
 .debug_abbrev  0x0000000000003ac2      0x1b2 ../output/default/pclin-2.6-x86/lib/libcsr_am.a(csr_am_util.o)
 .debug_abbrev  0x0000000000003c74      0x171 ../output/default/pclin-2.6-x86/lib/libcsr_am.a(csr_am_sef.o)
 .debug_abbrev  0x0000000000003de5       0xca ../output/default/pclin-2.6-x86/lib/libcsr_am.a(csr_am_free_down.o)
 .debug_abbrev  0x0000000000003eaf      0x127 ../output/default/pclin-2.6-x86/lib/libcsr_hci.a(csr_hci_handler.o)
 .debug_abbrev  0x0000000000003fd6       0xf4 ../output/default/pclin-2.6-x86/lib/libcsr_hci.a(csr_hci_lib.o)
 .debug_abbrev  0x00000000000040ca      0x1a9 ../output/default/pclin-2.6-x86/lib/libcsr_hci.a(csr_hci_sef.o)
 .debug_abbrev  0x0000000000004273      0x177 ../output/default/pclin-2.6-x86/lib/libcsr_hci.a(csr_hci_util.o)
 .debug_abbrev  0x00000000000043ea       0xcc ../output/default/pclin-2.6-x86/lib/libcsr_hci.a(csr_hci_sco.o)
 .debug_abbrev  0x00000000000044b6      0x115 ../output/default/pclin-2.6-x86/lib/libcsr_hci.a(csr_hci_free_down.o)
 .debug_abbrev  0x00000000000045cb      0x115 ../output/default/pclin-2.6-x86/lib/libcsr_hci.a(csr_hci_free_up.o)
 .debug_abbrev  0x00000000000046e0       0xb0 ../output/default/pclin-2.6-x86/lib/libcsr_hci.a(csr_hci_private_free_up.o)
 .debug_abbrev  0x0000000000004790       0xeb ../output/default/pclin-2.6-x86/lib/libcsr_bluecore_manager.a(csr_bluecore_manager_handler.o)
 .debug_abbrev  0x000000000000487b      0x186 ../output/default/pclin-2.6-x86/lib/libcsr_bluecore_manager.a(csr_bluecore_manager_sef.o)
 .debug_abbrev  0x0000000000004a01      0x16f ../output/default/pclin-2.6-x86/lib/libcsr_ethernet_manager.a(csr_ethernet_manager.o)
 .debug_abbrev  0x0000000000004b70       0xeb ../output/default/pclin-2.6-x86/lib/libcsr_tcp_transceiver.a(csr_tcp_transceiver_handler.o)
 .debug_abbrev  0x0000000000004c5b      0x1bf ../output/default/pclin-2.6-x86/lib/libcsr_tcp_transceiver.a(csr_tcp_transceiver_sef.o)
 .debug_abbrev  0x0000000000004e1a      0x15e ../bsp/ports/pclin/output/default/pclin-2.6-x86/lib/libcsr_ip.a(csr_ip_handler.o)
 .debug_abbrev  0x0000000000004f78      0x280 ../bsp/ports/pclin/output/default/pclin-2.6-x86/lib/libcsr_ip.a(csr_ip_ifconfig_sef.o)
 .debug_abbrev  0x00000000000051f8      0x1a2 ../bsp/ports/pclin/output/default/pclin-2.6-x86/lib/libcsr_ip.a(csr_ip_netlink_parser.o)
 .debug_abbrev  0x000000000000539a      0x247 ../bsp/ports/pclin/output/default/pclin-2.6-x86/lib/libcsr_ip.a(csr_ip_socket_sef.o)
 .debug_abbrev  0x00000000000055e1      0x19f ../bsp/ports/pclin/output/default/pclin-2.6-x86/lib/libcsr_ip.a(csr_ip_thread.o)
 .debug_abbrev  0x0000000000005780      0x144 ../bsp/ports/pclin/output/default/pclin-2.6-x86/lib/libcsr_ip.a(csr_ip_util.o)
 .debug_abbrev  0x00000000000058c4      0x1c6 ../bsp/ports/pclin/output/default/pclin-2.6-x86/lib/libcsr_ip.a(csr_ip_ether_sef.o)
 .debug_abbrev  0x0000000000005a8a       0x85 ../output/default/pclin-2.6-x86/lib/libcsr_ip_ether_lib.a(csr_ip_ether_free_down.o)
 .debug_abbrev  0x0000000000005b0f       0xbc ../output/default/pclin-2.6-x86/lib/libcsr_ip_ether_lib.a(csr_ip_ether_private_lib.o)
 .debug_abbrev  0x0000000000005bcb       0xf6 ../output/default/pclin-2.6-x86/lib/libcsr_ip_socket_lib.a(csr_ip_socket_free_up.o)
 .debug_abbrev  0x0000000000005cc1       0xf6 ../output/default/pclin-2.6-x86/lib/libcsr_ip_socket_lib.a(csr_ip_socket_free_down.o)
 .debug_abbrev  0x0000000000005db7      0x10c ../output/default/pclin-2.6-x86/lib/libcsr_ip_socket_lib.a(csr_ip_socket_lib.o)
 .debug_abbrev  0x0000000000005ec3      0x10c ../output/default/pclin-2.6-x86/lib/libcsr_ip_socket_lib.a(csr_ip_socket_private_lib.o)
 .debug_abbrev  0x0000000000005fcf       0xd1 ../output/default/pclin-2.6-x86/lib/libcsr_ip_ifconfig_lib.a(csr_ip_ifconfig_free_up.o)
 .debug_abbrev  0x00000000000060a0       0x85 ../output/default/pclin-2.6-x86/lib/libcsr_ip_ifconfig_lib.a(csr_ip_ifconfig_free_down.o)
 .debug_abbrev  0x0000000000006125       0xc3 ../output/default/pclin-2.6-x86/lib/libcsr_ip_ifconfig_lib.a(csr_ip_ifconfig_lib.o)
 .debug_abbrev  0x00000000000061e8       0xb4 ../output/default/pclin-2.6-x86/lib/libcsr_ip_ifconfig_lib.a(csr_ip_ifconfig_private_lib.o)
 .debug_abbrev  0x000000000000629c      0x18e ../output/default/pclin-2.6-x86/lib/libcsr_dhcp_server_manager.a(csr_dhcp_server_manager.o)
 .debug_abbrev  0x000000000000642a      0x16e ../output/default/pclin-2.6-x86/lib/libcsr_dhcp_server.a(csr_dhcp_server_handler.o)
 .debug_abbrev  0x0000000000006598      0x1a3 ../output/default/pclin-2.6-x86/lib/libcsr_dhcp_server.a(csr_dhcp_server_sef.o)
 .debug_abbrev  0x000000000000673b      0x1cf ../output/default/pclin-2.6-x86/lib/libcsr_dhcp_server.a(csr_dhcp_server_util.o)
 .debug_abbrev  0x000000000000690a       0xd1 ../output/default/pclin-2.6-x86/lib/libcsr_dhcp_server_lib.a(csr_dhcp_server_free_down.o)
 .debug_abbrev  0x00000000000069db       0xca ../output/default/pclin-2.6-x86/lib/libcsr_dhcp_server_lib.a(csr_dhcp_server_lib.o)
 .debug_abbrev  0x0000000000006aa5       0xc8 ../output/default/pclin-2.6-x86/lib/libcsr_dhcp_server_lib.a(csr_dhcp_server_lib_priv.o)
 .debug_abbrev  0x0000000000006b6d       0xf1 ../output/default/pclin-2.6-x86/lib/libcsr_tftp.a(csr_tftp_handler.o)
 .debug_abbrev  0x0000000000006c5e      0x1b1 ../output/default/pclin-2.6-x86/lib/libcsr_tftp.a(csr_tftp_sef.o)
 .debug_abbrev  0x0000000000006e0f       0xb0 ../output/default/pclin-2.6-x86/lib/libcsr_tftp_lib.a(csr_tftp_free_down.o)
 .debug_abbrev  0x0000000000006ebf       0xa3 ../output/default/pclin-2.6-x86/lib/libcsr_tftp_lib.a(csr_tftp_lib_priv.o)
 .debug_abbrev  0x0000000000006f62       0xf3 ../output/default/pclin-2.6-x86/lib/libcsr_tftp_file.a(csr_tftp_file_handler.o)
 .debug_abbrev  0x0000000000007055      0x116 ../output/default/pclin-2.6-x86/lib/libcsr_tftp_file.a(csr_tftp_file_sef.o)
 .debug_abbrev  0x000000000000716b       0xdb ../output/default/pclin-2.6-x86/lib/libcsr_fsal.a(csr_fsal_handler.o)
 .debug_abbrev  0x0000000000007246      0x173 ../output/default/pclin-2.6-x86/lib/libcsr_fsal.a(csr_fsal_sef.o)
 .debug_abbrev  0x00000000000073b9       0xc5 ../output/default/pclin-2.6-x86/lib/libcsr_fsal.a(csr_fsal_sef_utils.o)
 .debug_abbrev  0x000000000000747e      0x14e ../output/default/pclin-2.6-x86/lib/libcsr_fsal.a(csr_fsal_utils.o)
 .debug_abbrev  0x00000000000075cc       0xf3 ../output/default/pclin-2.6-x86/lib/libcsr_fsal_lib.a(csr_fsal_free_up.o)
 .debug_abbrev  0x00000000000076bf       0xf3 ../output/default/pclin-2.6-x86/lib/libcsr_fsal_lib.a(csr_fsal_free_down.o)
 .debug_abbrev  0x00000000000077b2      0x118 ../output/default/pclin-2.6-x86/lib/libcsr_fsal_lib.a(csr_fsal_lib.o)
 .debug_abbrev  0x00000000000078ca      0x109 ../output/default/pclin-2.6-x86/lib/libcsr_fsal_lib.a(csr_fsal_lib_priv.o)
 .debug_abbrev  0x00000000000079d3      0x140 ../output/default/pclin-2.6-x86/lib/libcsr_list.a(csr_list.o)
 .debug_abbrev  0x0000000000007b13       0xdb ../output/default/pclin-2.6-x86/lib/libcsr_message_queue.a(csr_message_queue.o)
 .debug_abbrev  0x0000000000007bee       0xac ../output/default/pclin-2.6-x86/lib/libcsr_formatted_io.a(csr_formatted_io.o)
 .debug_abbrev  0x0000000000007c9a      0x124 ../output/default/pclin-2.6-x86/lib/libcsr_unicode.a(csr_utf16.o)
 .debug_abbrev  0x0000000000007dbe      0x1d4 ../output/default/pclin-2.6-x86/lib/libcsr_mblk.a(csr_mblk.o)
 .debug_abbrev  0x0000000000007f92      0x16b ../output/default/pclin-2.6-x86/lib/libcsr_mblk.a(csr_mblk_duplicate.o)
 .debug_abbrev  0x00000000000080fd      0x182 ../output/default/pclin-2.6-x86/lib/libcsr_mblk.a(csr_mblk_pmalloc.o)
 .debug_abbrev  0x000000000000827f       0xfb ../output/default/pclin-2.6-x86/lib/libcsr_mblk.a(csr_mblk_read_head.o)
 .debug_abbrev  0x000000000000837a      0x1de ../output/default/pclin-2.6-x86/lib/libcsr_bcsp.a(csr_abcsp_transport.o)
 .debug_abbrev  0x0000000000008558      0x147 ../output/default/pclin-2.6-x86/lib/libcsr_bcsp.a(csr_abcsp_init_c.o)
 .debug_abbrev  0x000000000000869f       0xab ../output/default/pclin-2.6-x86/lib/libcsr_bcsp.a(csr_abcsp_events.o)
 .debug_abbrev  0x000000000000874a      0x178 ../output/default/pclin-2.6-x86/lib/libcsr_bcsp.a(csr_abcsp_rd_hl.o)
 .debug_abbrev  0x00000000000088c2      0x1e4 ../output/default/pclin-2.6-x86/lib/libcsr_bcsp.a(csr_abcsp_le.o)
 .debug_abbrev  0x0000000000008aa6      0x1c9 ../output/default/pclin-2.6-x86/lib/libcsr_bcsp.a(csr_abcsp_rx.o)
 .debug_abbrev  0x0000000000008c6f      0x256 ../output/default/pclin-2.6-x86/lib/libcsr_bcsp.a(csr_abcsp_txmsg.o)
 .debug_abbrev  0x0000000000008ec5       0xe4 ../output/default/pclin-2.6-x86/lib/libcsr_bcsp.a(csr_abcsp_tx_rx_msg_intf.o)
 .debug_abbrev  0x0000000000008fa9      0x185 ../output/default/pclin-2.6-x86/lib/libcsr_bcsp.a(csr_abcsp_txslip.o)
 .debug_abbrev  0x000000000000912e      0x178 ../output/default/pclin-2.6-x86/lib/libcsr_bcsp.a(csr_abcsp_timers.o)
 .debug_abbrev  0x00000000000092a6      0x14e ../output/default/pclin-2.6-x86/lib/libcsr_bcsp.a(csr_abcsp_tx_handle.o)
 .debug_abbrev  0x00000000000093f4       0xc5 ../output/default/pclin-2.6-x86/lib/libcsr_bcsp.a(csr_abcsp_crc.o)
 .debug_abbrev  0x00000000000094b9      0x187 ../output/default/pclin-2.6-x86/lib/libcsr_h4ds.a(csr_h4ds_transport.o)
 .debug_abbrev  0x0000000000009640      0x119 ../output/default/pclin-2.6-x86/lib/libcsr_h4ds.a(csr_h4ds_initialize.o)
 .debug_abbrev  0x0000000000009759       0xdf ../output/default/pclin-2.6-x86/lib/libcsr_h4ds.a(csr_h4ds_pump_msg.o)
 .debug_abbrev  0x0000000000009838       0x4c ../output/default/pclin-2.6-x86/lib/libcsr_h4ds.a(csr_h4ds_init.o)
 .debug_abbrev  0x0000000000009884       0xc5 ../output/default/pclin-2.6-x86/lib/libcsr_h4ds.a(csr_h4ds_le.o)
 .debug_abbrev  0x0000000000009949      0x1cd ../output/default/pclin-2.6-x86/lib/libcsr_h4ds.a(csr_h4ds_tx.o)
 .debug_abbrev  0x0000000000009b16       0xf6 ../output/default/pclin-2.6-x86/lib/libcsr_h4ds.a(csr_h4ds_ds.o)
 .debug_abbrev  0x0000000000009c0c       0xe0 ../output/default/pclin-2.6-x86/lib/libcsr_h4ds.a(csr_h4ds_rx.o)
 .debug_abbrev  0x0000000000009cec       0x5b ../output/default/pclin-2.6-x86/lib/libcsr_h4ds.a(csr_h4ds_pump.o)
 .debug_abbrev  0x0000000000009d47       0x5b ../output/default/pclin-2.6-x86/lib/libcsr_h4ds.a(csr_h4_events.o)
 .debug_abbrev  0x0000000000009da2       0x9b ../output/default/pclin-2.6-x86/lib/libcsr_h4ds.a(csr_h4_int_handle.o)
 .debug_abbrev  0x0000000000009e3d      0x147 ../output/default/pclin-2.6-x86/lib/libcsr_h4ds.a(csr_h4_tx.o)
 .debug_abbrev  0x0000000000009f84       0xef ../output/default/pclin-2.6-x86/lib/libcsr_h4ds.a(csr_h4_rx.o)
 .debug_abbrev  0x000000000000a073       0xab ../output/default/pclin-2.6-x86/lib/libcsr_h4ds.a(csr_h4ds_event.o)
 .debug_abbrev  0x000000000000a11e       0xce ../output/default/pclin-2.6-x86/lib/libcsr_h4ds.a(csr_h4ds_timers.o)
 .debug_abbrev  0x000000000000a1ec      0x131 ../output/default/pclin-2.6-x86/lib/libcsr_h4ds.a(csr_h4ds_low_level_transport.o)
 .debug_abbrev  0x000000000000a31d       0xc4 ../output/default/pclin-2.6-x86/lib/libcsr_h4ds.a(csr_h4ds_tx_handle.o)
 .debug_abbrev  0x000000000000a3e1       0x61 ../output/default/pclin-2.6-x86/lib/libcsr_h4ds.a(csr_h4ds_msgs.o)
 .debug_abbrev  0x000000000000a442      0x11f ../output/default/pclin-2.6-x86/lib/libcsr_h4ds.a(csr_h4ds_scanner.o)
 .debug_abbrev  0x000000000000a561       0xf5 ../output/default/pclin-2.6-x86/lib/libcsr_queue_lib.a(csr_queue_lib.o)
 .debug_abbrev  0x000000000000a656      0x151 ../bsp/ports/pclin/output/default/pclin-2.6-x86/lib/libcsr_util.a(csr_util.o)
 .debug_abbrev  0x000000000000a7a7       0xae ../bsp/ports/pclin/output/default/pclin-2.6-x86/lib/libcsr_pmem.a(csr_pmem.o)
 .debug_abbrev  0x000000000000a855       0xef ../bsp/ports/pclin/output/default/pclin-2.6-x86/lib/libcsr_time.a(csr_time.o)
 .debug_abbrev  0x000000000000a944       0x9b ../bsp/ports/pclin/output/default/pclin-2.6-x86/lib/libcsr_panic.a(csr_panic.o)
 .debug_abbrev  0x000000000000a9df      0x1a6 ../bsp/ports/pclin/output/default/pclin-2.6-x86/lib/libcsr_ser_com.a(csr_serial_com.o)
 .debug_abbrev  0x000000000000ab85      0x193 ../bsp/ports/pclin/output/default/pclin-2.6-x86/lib/libcsr_usb_com.a(csr_usb_com.o)
 .debug_abbrev  0x000000000000ad18      0x196 ../bsp/ports/pclin/output/default/pclin-2.6-x86/lib/libcsr_framework_ext.a(csr_framework_ext.o)
 .debug_abbrev  0x000000000000aeae      0x1ff ../bsp/ports/pclin/output/default/pclin-2.6-x86/lib/libcsr_fs.a(csr_posix_filesystem.o)
 .debug_abbrev  0x000000000000b0ad      0x17e ../output/default/pclin-2.6-x86/lib/libcsr_usb.a(csr_usb_transport.o)
 .debug_abbrev  0x000000000000b22b      0x111 ../output/default/pclin-2.6-x86/lib/libcsr_ui.a(csr_ui_lib.o)
 .debug_abbrev  0x000000000000b33c       0xf3 ../output/default/pclin-2.6-x86/lib/libcsr_ui.a(csr_ui_free_up.o)
 .debug_abbrev  0x000000000000b42f      0x102 ../output/default/pclin-2.6-x86/lib/libcsr_app.a(csr_app_lib.o)
 .debug_abbrev  0x000000000000b531       0xcf ../output/default/pclin-2.6-x86/lib/libcsr_random.a(csr_random.o)
 .debug_abbrev  0x000000000000b600       0x93 ../output/default/pclin-2.6-x86/lib/libcsr_tm_bluecore.a(csr_tm_bluecore_lib.o)
 .debug_abbrev  0x000000000000b693       0x84 ../output/default/pclin-2.6-x86/lib/libcsr_tm_bluecore.a(csr_tm_bluecore_private_lib.o)
 .debug_abbrev  0x000000000000b717       0xcd ../output/default/pclin-2.6-x86/lib/libcsr_tftp_lib.a(csr_tftp_free_up.o)
 .debug_abbrev  0x000000000000b7e4       0xc3 ../output/default/pclin-2.6-x86/lib/libcsr_tftp_lib.a(csr_tftp_lib.o)

.debug_line     0x0000000000000000    0x13b30
 *(.debug_line)
 .debug_line    0x0000000000000000      0x10c output/default/pclin-2.6-x86/obj/csr_tasks.o
 .debug_line    0x000000000000010c      0x382 output/default/pclin-2.6-x86/obj/bootstrap/csr_bootstrap_generic.o
 .debug_line    0x000000000000048e       0xba output/default/pclin-2.6-x86/obj/bootstrap/csr_bootstrap_specific_string_based.o
 .debug_line    0x0000000000000548       0x69 output/default/pclin-2.6-x86/obj/bootstrap/psr/pb-101r2_7558_uart.o
 .debug_line    0x00000000000005b1       0x63 output/default/pclin-2.6-x86/obj/bootstrap/psr/pb-14r2_3164.o
 .debug_line    0x0000000000000614       0x64 output/default/pclin-2.6-x86/obj/bootstrap/psr/pb-22r14_4363.o
 .debug_line    0x0000000000000678       0x64 output/default/pclin-2.6-x86/obj/bootstrap/psr/pb-26r17_4698.o
 .debug_line    0x00000000000006dc       0x64 output/default/pclin-2.6-x86/obj/bootstrap/psr/pb-27r20_4841.o
 .debug_line    0x0000000000000740       0x63 output/default/pclin-2.6-x86/obj/bootstrap/psr/pb-28r2_4839.o
 .debug_line    0x00000000000007a3       0x63 output/default/pclin-2.6-x86/obj/bootstrap/psr/pb-2r17_1958.o
 .debug_line    0x0000000000000806       0x63 output/default/pclin-2.6-x86/obj/bootstrap/psr/pb-49r3_5892.o
 .debug_line    0x0000000000000869       0x68 output/default/pclin-2.6-x86/obj/bootstrap/psr/pb-51r22_5985_bga.o
 .debug_line    0x00000000000008d1       0x6b output/default/pclin-2.6-x86/obj/bootstrap/psr/pb-51r22_5985_csp0p4.o
 .debug_line    0x000000000000093c       0x6b output/default/pclin-2.6-x86/obj/bootstrap/psr/pb-51r22_5985_csp0p5.o
 .debug_line    0x00000000000009a7       0x68 output/default/pclin-2.6-x86/obj/bootstrap/psr/pb-51r26_5985_bga.o
 .debug_line    0x0000000000000a0f       0x6b output/default/pclin-2.6-x86/obj/bootstrap/psr/pb-51r26_5985_csp0p4.o
 .debug_line    0x0000000000000a7a       0x6b output/default/pclin-2.6-x86/obj/bootstrap/psr/pb-51r26_5985_csp0p5.o
 .debug_line    0x0000000000000ae5       0x67 output/default/pclin-2.6-x86/obj/bootstrap/psr/pb-53r7_6247_csp.o
 .debug_line    0x0000000000000b4c       0x67 output/default/pclin-2.6-x86/obj/bootstrap/psr/pb-53r7_6247_qfn.o
 .debug_line    0x0000000000000bb3       0x65 output/default/pclin-2.6-x86/obj/bootstrap/psr/pb-75_6455_csp.o
 .debug_line    0x0000000000000c18       0x67 output/default/pclin-2.6-x86/obj/bootstrap/psr/pb-84r2_6817_csp.o
 .debug_line    0x0000000000000c7f       0x63 output/default/pclin-2.6-x86/obj/bootstrap/psr/pb-90r1_6817.o
 .debug_line    0x0000000000000ce2       0x61 output/default/pclin-2.6-x86/obj/bootstrap/psr/ps-default.o
 .debug_line    0x0000000000000d43       0x64 output/default/pclin-2.6-x86/obj/bootstrap/psr/ps-gemini_a06.o
 .debug_line    0x0000000000000da7      0x5ab ../output/default/pclin-2.6-x86/lib/libcsr_sched.a(csr_sched.o)
 .debug_line    0x0000000000001352      0x121 ../output/default/pclin-2.6-x86/lib/libcsr_ui.a(csr_ui_ctrl.o)
 .debug_line    0x0000000000001473      0x1b4 ../output/default/pclin-2.6-x86/lib/libcsr_ui.a(csr_ui_displaystack.o)
 .debug_line    0x0000000000001627       0xf3 ../output/default/pclin-2.6-x86/lib/libcsr_ui.a(csr_ui_emulator_touchdecoder.o)
 .debug_line    0x000000000000171a      0x3c6 ../output/default/pclin-2.6-x86/lib/libcsr_ui.a(csr_ui_keyhandler.o)
 .debug_line    0x0000000000001ae0      0x5c2 ../output/default/pclin-2.6-x86/lib/libcsr_ui.a(csr_ui_renderer.o)
 .debug_line    0x00000000000020a2      0x2aa ../output/default/pclin-2.6-x86/lib/libcsr_ui.a(csr_ui_renderer_text.o)
 .debug_line    0x000000000000234c      0x2d3 ../output/default/pclin-2.6-x86/lib/libcsr_ui.a(csr_ui_sef.o)
 .debug_line    0x000000000000261f      0x2f9 ../output/default/pclin-2.6-x86/lib/libcsr_ui.a(csr_ui_uiemanager.o)
 .debug_line    0x0000000000002918      0x18c ../output/default/pclin-2.6-x86/lib/libcsr_ui.a(csr_ui_util.o)
 .debug_line    0x0000000000002aa4       0xfc ../output/default/pclin-2.6-x86/lib/libcsr_ui.a(csr_ui_free_down.o)
 .debug_line    0x0000000000002ba0      0x1a1 ../output/default/pclin-2.6-x86/lib/libcsr_ui.a(csr_ui_graphics_driver.o)
 .debug_line    0x0000000000002d41      0x11e ../output/default/pclin-2.6-x86/lib/libcsr_ui.a(csr_ui_icon.o)
 .debug_line    0x0000000000002e5f       0x85 ../output/default/pclin-2.6-x86/lib/libcsr_ui.a(csr_ui_font_sax_mono_12x22.o)
 .debug_line    0x0000000000002ee4       0x85 ../output/default/pclin-2.6-x86/lib/libcsr_ui.a(csr_ui_font_sax_mono_10x21.o)
 .debug_line    0x0000000000002f69      0x1f4 ../output/default/pclin-2.6-x86/lib/libcsr_app.a(csr_app_handler.o)
 .debug_line    0x000000000000315d      0x20f ../output/default/pclin-2.6-x86/lib/libcsr_app.a(csr_app_ui_sef.o)
 .debug_line    0x000000000000336c      0x1d8 ../output/default/pclin-2.6-x86/lib/libcsr_app.a(csr_app_util.o)
 .debug_line    0x0000000000003544       0xfb ../output/default/pclin-2.6-x86/lib/libcsr_app.a(csr_app_free_down.o)
 .debug_line    0x000000000000363f       0x70 ../output/default/pclin-2.6-x86/lib/libcsr_app.a(csr_app_lower_private.o)
 .debug_line    0x00000000000036af       0x8c ../bsp/ports/pclin/output/default/pclin-2.6-x86/lib/libcsr_main.a(csr_main.o)
 .debug_line    0x000000000000373b      0x118 ../output/default/pclin-2.6-x86/lib/libcsr_arg_search.a(csr_arg_search.o)
 .debug_line    0x0000000000003853      0x18b ../bsp/ports/pclin/output/default/pclin-2.6-x86/lib/libcsr_app_main_bluecore.a(csr_app_main.o)
 .debug_line    0x00000000000039de      0x227 ../bsp/ports/pclin/output/default/pclin-2.6-x86/lib/libcsr_app_main_bluecore.a(csr_key_input.o)
 .debug_line    0x0000000000003c05      0x110 ../bsp/ports/pclin/output/default/pclin-2.6-x86/lib/libcsr_app_main_bluecore.a(csr_ui_lower.o)
 .debug_line    0x0000000000003d15      0x17b ../bsp/ports/pclin/output/default/pclin-2.6-x86/lib/libcsr_app_main_bluecore.a(csr_app_main_transport_bluecore.o)
 .debug_line    0x0000000000003e90      0x122 ../output/default/pclin-2.6-x86/lib/libcsr_tm_bluecore.a(csr_tm_bluecore_handler.o)
 .debug_line    0x0000000000003fb2      0x2fc ../output/default/pclin-2.6-x86/lib/libcsr_tm_bluecore.a(csr_tm_bluecore_sef.o)
 .debug_line    0x00000000000042ae      0x14d ../output/default/pclin-2.6-x86/lib/libcsr_tm_bluecore.a(csr_tm_bluecore_transport.o)
 .debug_line    0x00000000000043fb      0x220 ../output/default/pclin-2.6-x86/lib/libcsr_bccmd.a(csr_bccmd_handler.o)
 .debug_line    0x000000000000461b      0x16f ../output/default/pclin-2.6-x86/lib/libcsr_bccmd.a(csr_bccmd_lib.o)
 .debug_line    0x000000000000478a      0x2ec ../output/default/pclin-2.6-x86/lib/libcsr_bccmd.a(csr_bccmd_sef.o)
 .debug_line    0x0000000000004a76      0x145 ../output/default/pclin-2.6-x86/lib/libcsr_bccmd.a(csr_bccmd_private_lib.o)
 .debug_line    0x0000000000004bbb      0x100 ../output/default/pclin-2.6-x86/lib/libcsr_bccmd.a(csr_bccmd_util.o)
 .debug_line    0x0000000000004cbb       0xdf ../output/default/pclin-2.6-x86/lib/libcsr_bccmd.a(csr_bccmd_free_up.o)
 .debug_line    0x0000000000004d9a      0x1cc ../output/default/pclin-2.6-x86/lib/libcsr_fastpipe.a(csr_fp_handler.o)
 .debug_line    0x0000000000004f66      0x3f6 ../output/default/pclin-2.6-x86/lib/libcsr_fastpipe.a(csr_fp_sef.o)
 .debug_line    0x000000000000535c       0xd9 ../output/default/pclin-2.6-x86/lib/libcsr_fastpipe.a(csr_fp_free_down.o)
 .debug_line    0x0000000000005435      0x1a8 ../output/default/pclin-2.6-x86/lib/libcsr_hq.a(csr_hq_handler.o)
 .debug_line    0x00000000000055dd      0x165 ../output/default/pclin-2.6-x86/lib/libcsr_hq.a(csr_hq_subscriber.o)
 .debug_line    0x0000000000005742      0x1f2 ../output/default/pclin-2.6-x86/lib/libcsr_hq.a(csr_hq_sef.o)
 .debug_line    0x0000000000005934       0xcb ../output/default/pclin-2.6-x86/lib/libcsr_hq.a(csr_hq_free_down.o)
 .debug_line    0x00000000000059ff      0x1d0 ../output/default/pclin-2.6-x86/lib/libcsr_vm.a(csr_vm_handler.o)
 .debug_line    0x0000000000005bcf       0xcb ../output/default/pclin-2.6-x86/lib/libcsr_vm.a(csr_vm_free_down.o)
 .debug_line    0x0000000000005c9a      0x1c4 ../output/default/pclin-2.6-x86/lib/libcsr_am.a(csr_am_handler.o)
 .debug_line    0x0000000000005e5e      0xa98 ../output/default/pclin-2.6-x86/lib/libcsr_am.a(csr_am_util.o)
 .debug_line    0x00000000000068f6      0x310 ../output/default/pclin-2.6-x86/lib/libcsr_am.a(csr_am_sef.o)
 .debug_line    0x0000000000006c06       0xff ../output/default/pclin-2.6-x86/lib/libcsr_am.a(csr_am_free_down.o)
 .debug_line    0x0000000000006d05      0x1d4 ../output/default/pclin-2.6-x86/lib/libcsr_hci.a(csr_hci_handler.o)
 .debug_line    0x0000000000006ed9      0x154 ../output/default/pclin-2.6-x86/lib/libcsr_hci.a(csr_hci_lib.o)
 .debug_line    0x000000000000702d      0x2c6 ../output/default/pclin-2.6-x86/lib/libcsr_hci.a(csr_hci_sef.o)
 .debug_line    0x00000000000072f3      0x273 ../output/default/pclin-2.6-x86/lib/libcsr_hci.a(csr_hci_util.o)
 .debug_line    0x0000000000007566       0xf8 ../output/default/pclin-2.6-x86/lib/libcsr_hci.a(csr_hci_sco.o)
 .debug_line    0x000000000000765e       0xec ../output/default/pclin-2.6-x86/lib/libcsr_hci.a(csr_hci_free_down.o)
 .debug_line    0x000000000000774a       0xe7 ../output/default/pclin-2.6-x86/lib/libcsr_hci.a(csr_hci_free_up.o)
 .debug_line    0x0000000000007831      0x11b ../output/default/pclin-2.6-x86/lib/libcsr_hci.a(csr_hci_private_free_up.o)
 .debug_line    0x000000000000794c      0x1e8 ../output/default/pclin-2.6-x86/lib/libcsr_bluecore_manager.a(csr_bluecore_manager_handler.o)
 .debug_line    0x0000000000007b34      0x29a ../output/default/pclin-2.6-x86/lib/libcsr_bluecore_manager.a(csr_bluecore_manager_sef.o)
 .debug_line    0x0000000000007dce      0x29c ../output/default/pclin-2.6-x86/lib/libcsr_ethernet_manager.a(csr_ethernet_manager.o)
 .debug_line    0x000000000000806a      0x1b5 ../output/default/pclin-2.6-x86/lib/libcsr_tcp_transceiver.a(csr_tcp_transceiver_handler.o)
 .debug_line    0x000000000000821f      0x42b ../output/default/pclin-2.6-x86/lib/libcsr_tcp_transceiver.a(csr_tcp_transceiver_sef.o)
 .debug_line    0x000000000000864a      0x33b ../bsp/ports/pclin/output/default/pclin-2.6-x86/lib/libcsr_ip.a(csr_ip_handler.o)
 .debug_line    0x0000000000008985      0x6bd ../bsp/ports/pclin/output/default/pclin-2.6-x86/lib/libcsr_ip.a(csr_ip_ifconfig_sef.o)
 .debug_line    0x0000000000009042      0x25d ../bsp/ports/pclin/output/default/pclin-2.6-x86/lib/libcsr_ip.a(csr_ip_netlink_parser.o)
 .debug_line    0x000000000000929f      0x8fa ../bsp/ports/pclin/output/default/pclin-2.6-x86/lib/libcsr_ip.a(csr_ip_socket_sef.o)
 .debug_line    0x0000000000009b99      0x385 ../bsp/ports/pclin/output/default/pclin-2.6-x86/lib/libcsr_ip.a(csr_ip_thread.o)
 .debug_line    0x0000000000009f1e      0x26f ../bsp/ports/pclin/output/default/pclin-2.6-x86/lib/libcsr_ip.a(csr_ip_util.o)
 .debug_line    0x000000000000a18d      0x368 ../bsp/ports/pclin/output/default/pclin-2.6-x86/lib/libcsr_ip.a(csr_ip_ether_sef.o)
 .debug_line    0x000000000000a4f5       0xdd ../output/default/pclin-2.6-x86/lib/libcsr_ip_ether_lib.a(csr_ip_ether_free_down.o)
 .debug_line    0x000000000000a5d2      0x120 ../output/default/pclin-2.6-x86/lib/libcsr_ip_ether_lib.a(csr_ip_ether_private_lib.o)
 .debug_line    0x000000000000a6f2      0x100 ../output/default/pclin-2.6-x86/lib/libcsr_ip_socket_lib.a(csr_ip_socket_free_up.o)
 .debug_line    0x000000000000a7f2      0x101 ../output/default/pclin-2.6-x86/lib/libcsr_ip_socket_lib.a(csr_ip_socket_free_down.o)
 .debug_line    0x000000000000a8f3      0x1b6 ../output/default/pclin-2.6-x86/lib/libcsr_ip_socket_lib.a(csr_ip_socket_lib.o)
 .debug_line    0x000000000000aaa9      0x1c2 ../output/default/pclin-2.6-x86/lib/libcsr_ip_socket_lib.a(csr_ip_socket_private_lib.o)
 .debug_line    0x000000000000ac6b       0xe6 ../output/default/pclin-2.6-x86/lib/libcsr_ip_ifconfig_lib.a(csr_ip_ifconfig_free_up.o)
 .debug_line    0x000000000000ad51       0xe3 ../output/default/pclin-2.6-x86/lib/libcsr_ip_ifconfig_lib.a(csr_ip_ifconfig_free_down.o)
 .debug_line    0x000000000000ae34      0x13f ../output/default/pclin-2.6-x86/lib/libcsr_ip_ifconfig_lib.a(csr_ip_ifconfig_lib.o)
 .debug_line    0x000000000000af73      0x125 ../output/default/pclin-2.6-x86/lib/libcsr_ip_ifconfig_lib.a(csr_ip_ifconfig_private_lib.o)
 .debug_line    0x000000000000b098      0x394 ../output/default/pclin-2.6-x86/lib/libcsr_dhcp_server_manager.a(csr_dhcp_server_manager.o)
 .debug_line    0x000000000000b42c      0x264 ../output/default/pclin-2.6-x86/lib/libcsr_dhcp_server.a(csr_dhcp_server_handler.o)
 .debug_line    0x000000000000b690      0x34e ../output/default/pclin-2.6-x86/lib/libcsr_dhcp_server.a(csr_dhcp_server_sef.o)
 .debug_line    0x000000000000b9de      0x854 ../output/default/pclin-2.6-x86/lib/libcsr_dhcp_server.a(csr_dhcp_server_util.o)
 .debug_line    0x000000000000c232       0xf6 ../output/default/pclin-2.6-x86/lib/libcsr_dhcp_server_lib.a(csr_dhcp_server_free_down.o)
 .debug_line    0x000000000000c328      0x135 ../output/default/pclin-2.6-x86/lib/libcsr_dhcp_server_lib.a(csr_dhcp_server_lib.o)
 .debug_line    0x000000000000c45d      0x158 ../output/default/pclin-2.6-x86/lib/libcsr_dhcp_server_lib.a(csr_dhcp_server_lib_priv.o)
 .debug_line    0x000000000000c5b5      0x15f ../output/default/pclin-2.6-x86/lib/libcsr_tftp.a(csr_tftp_handler.o)
 .debug_line    0x000000000000c714      0x5cc ../output/default/pclin-2.6-x86/lib/libcsr_tftp.a(csr_tftp_sef.o)
 .debug_line    0x000000000000cce0       0xd9 ../output/default/pclin-2.6-x86/lib/libcsr_tftp_lib.a(csr_tftp_free_down.o)
 .debug_line    0x000000000000cdb9      0x124 ../output/default/pclin-2.6-x86/lib/libcsr_tftp_lib.a(csr_tftp_lib_priv.o)
 .debug_line    0x000000000000cedd      0x191 ../output/default/pclin-2.6-x86/lib/libcsr_tftp_file.a(csr_tftp_file_handler.o)
 .debug_line    0x000000000000d06e      0x227 ../output/default/pclin-2.6-x86/lib/libcsr_tftp_file.a(csr_tftp_file_sef.o)
 .debug_line    0x000000000000d295      0x14c ../output/default/pclin-2.6-x86/lib/libcsr_fsal.a(csr_fsal_handler.o)
 .debug_line    0x000000000000d3e1      0x3d4 ../output/default/pclin-2.6-x86/lib/libcsr_fsal.a(csr_fsal_sef.o)
 .debug_line    0x000000000000d7b5      0x18c ../output/default/pclin-2.6-x86/lib/libcsr_fsal.a(csr_fsal_sef_utils.o)
 .debug_line    0x000000000000d941      0x291 ../output/default/pclin-2.6-x86/lib/libcsr_fsal.a(csr_fsal_utils.o)
 .debug_line    0x000000000000dbd2      0x13f ../output/default/pclin-2.6-x86/lib/libcsr_fsal_lib.a(csr_fsal_free_up.o)
 .debug_line    0x000000000000dd11      0x101 ../output/default/pclin-2.6-x86/lib/libcsr_fsal_lib.a(csr_fsal_free_down.o)
 .debug_line    0x000000000000de12      0x178 ../output/default/pclin-2.6-x86/lib/libcsr_fsal_lib.a(csr_fsal_lib.o)
 .debug_line    0x000000000000df8a      0x1dc ../output/default/pclin-2.6-x86/lib/libcsr_fsal_lib.a(csr_fsal_lib_priv.o)
 .debug_line    0x000000000000e166      0x1d7 ../output/default/pclin-2.6-x86/lib/libcsr_list.a(csr_list.o)
 .debug_line    0x000000000000e33d      0x130 ../output/default/pclin-2.6-x86/lib/libcsr_message_queue.a(csr_message_queue.o)
 .debug_line    0x000000000000e46d       0xd9 ../output/default/pclin-2.6-x86/lib/libcsr_formatted_io.a(csr_formatted_io.o)
 .debug_line    0x000000000000e546      0x432 ../output/default/pclin-2.6-x86/lib/libcsr_unicode.a(csr_utf16.o)
 .debug_line    0x000000000000e978      0x2b8 ../output/default/pclin-2.6-x86/lib/libcsr_mblk.a(csr_mblk.o)
 .debug_line    0x000000000000ec30       0xe6 ../output/default/pclin-2.6-x86/lib/libcsr_mblk.a(csr_mblk_duplicate.o)
 .debug_line    0x000000000000ed16      0x145 ../output/default/pclin-2.6-x86/lib/libcsr_mblk.a(csr_mblk_pmalloc.o)
 .debug_line    0x000000000000ee5b       0xc9 ../output/default/pclin-2.6-x86/lib/libcsr_mblk.a(csr_mblk_read_head.o)
 .debug_line    0x000000000000ef24      0x1b7 ../output/default/pclin-2.6-x86/lib/libcsr_bcsp.a(csr_abcsp_transport.o)
 .debug_line    0x000000000000f0db      0x173 ../output/default/pclin-2.6-x86/lib/libcsr_bcsp.a(csr_abcsp_init_c.o)
 .debug_line    0x000000000000f24e      0x14a ../output/default/pclin-2.6-x86/lib/libcsr_bcsp.a(csr_abcsp_events.o)
 .debug_line    0x000000000000f398      0x171 ../output/default/pclin-2.6-x86/lib/libcsr_bcsp.a(csr_abcsp_rd_hl.o)
 .debug_line    0x000000000000f509      0x1c0 ../output/default/pclin-2.6-x86/lib/libcsr_bcsp.a(csr_abcsp_le.o)
 .debug_line    0x000000000000f6c9      0x280 ../output/default/pclin-2.6-x86/lib/libcsr_bcsp.a(csr_abcsp_rx.o)
 .debug_line    0x000000000000f949      0x2f7 ../output/default/pclin-2.6-x86/lib/libcsr_bcsp.a(csr_abcsp_txmsg.o)
 .debug_line    0x000000000000fc40       0xe3 ../output/default/pclin-2.6-x86/lib/libcsr_bcsp.a(csr_abcsp_tx_rx_msg_intf.o)
 .debug_line    0x000000000000fd23      0x1e1 ../output/default/pclin-2.6-x86/lib/libcsr_bcsp.a(csr_abcsp_txslip.o)
 .debug_line    0x000000000000ff04      0x194 ../output/default/pclin-2.6-x86/lib/libcsr_bcsp.a(csr_abcsp_timers.o)
 .debug_line    0x0000000000010098      0x190 ../output/default/pclin-2.6-x86/lib/libcsr_bcsp.a(csr_abcsp_tx_handle.o)
 .debug_line    0x0000000000010228       0xb7 ../output/default/pclin-2.6-x86/lib/libcsr_bcsp.a(csr_abcsp_crc.o)
 .debug_line    0x00000000000102df      0x175 ../output/default/pclin-2.6-x86/lib/libcsr_h4ds.a(csr_h4ds_transport.o)
 .debug_line    0x0000000000010454      0x1a8 ../output/default/pclin-2.6-x86/lib/libcsr_h4ds.a(csr_h4ds_initialize.o)
 .debug_line    0x00000000000105fc      0x129 ../output/default/pclin-2.6-x86/lib/libcsr_h4ds.a(csr_h4ds_pump_msg.o)
 .debug_line    0x0000000000010725       0x9c ../output/default/pclin-2.6-x86/lib/libcsr_h4ds.a(csr_h4ds_init.o)
 .debug_line    0x00000000000107c1      0x11a ../output/default/pclin-2.6-x86/lib/libcsr_h4ds.a(csr_h4ds_le.o)
 .debug_line    0x00000000000108db      0x235 ../output/default/pclin-2.6-x86/lib/libcsr_h4ds.a(csr_h4ds_tx.o)
 .debug_line    0x0000000000010b10      0x194 ../output/default/pclin-2.6-x86/lib/libcsr_h4ds.a(csr_h4ds_ds.o)
 .debug_line    0x0000000000010ca4      0x14d ../output/default/pclin-2.6-x86/lib/libcsr_h4ds.a(csr_h4ds_rx.o)
 .debug_line    0x0000000000010df1       0xa0 ../output/default/pclin-2.6-x86/lib/libcsr_h4ds.a(csr_h4ds_pump.o)
 .debug_line    0x0000000000010e91       0x93 ../output/default/pclin-2.6-x86/lib/libcsr_h4ds.a(csr_h4_events.o)
 .debug_line    0x0000000000010f24       0xcf ../output/default/pclin-2.6-x86/lib/libcsr_h4ds.a(csr_h4_int_handle.o)
 .debug_line    0x0000000000010ff3      0x167 ../output/default/pclin-2.6-x86/lib/libcsr_h4ds.a(csr_h4_tx.o)
 .debug_line    0x000000000001115a      0x107 ../output/default/pclin-2.6-x86/lib/libcsr_h4ds.a(csr_h4_rx.o)
 .debug_line    0x0000000000011261      0x14b ../output/default/pclin-2.6-x86/lib/libcsr_h4ds.a(csr_h4ds_event.o)
 .debug_line    0x00000000000113ac      0x11d ../output/default/pclin-2.6-x86/lib/libcsr_h4ds.a(csr_h4ds_timers.o)
 .debug_line    0x00000000000114c9      0x1d5 ../output/default/pclin-2.6-x86/lib/libcsr_h4ds.a(csr_h4ds_low_level_transport.o)
 .debug_line    0x000000000001169e       0xcd ../output/default/pclin-2.6-x86/lib/libcsr_h4ds.a(csr_h4ds_tx_handle.o)
 .debug_line    0x000000000001176b       0x85 ../output/default/pclin-2.6-x86/lib/libcsr_h4ds.a(csr_h4ds_msgs.o)
 .debug_line    0x00000000000117f0       0xf9 ../output/default/pclin-2.6-x86/lib/libcsr_h4ds.a(csr_h4ds_scanner.o)
 .debug_line    0x00000000000118e9       0xfe ../output/default/pclin-2.6-x86/lib/libcsr_queue_lib.a(csr_queue_lib.o)
 .debug_line    0x00000000000119e7      0x4ce ../bsp/ports/pclin/output/default/pclin-2.6-x86/lib/libcsr_util.a(csr_util.o)
 .debug_line    0x0000000000011eb5       0xd7 ../bsp/ports/pclin/output/default/pclin-2.6-x86/lib/libcsr_pmem.a(csr_pmem.o)
 .debug_line    0x0000000000011f8c      0x110 ../bsp/ports/pclin/output/default/pclin-2.6-x86/lib/libcsr_time.a(csr_time.o)
 .debug_line    0x000000000001209c       0xd4 ../bsp/ports/pclin/output/default/pclin-2.6-x86/lib/libcsr_panic.a(csr_panic.o)
 .debug_line    0x0000000000012170      0x31b ../bsp/ports/pclin/output/default/pclin-2.6-x86/lib/libcsr_ser_com.a(csr_serial_com.o)
 .debug_line    0x000000000001248b      0x24a ../bsp/ports/pclin/output/default/pclin-2.6-x86/lib/libcsr_usb_com.a(csr_usb_com.o)
 .debug_line    0x00000000000126d5      0x28c ../bsp/ports/pclin/output/default/pclin-2.6-x86/lib/libcsr_framework_ext.a(csr_framework_ext.o)
 .debug_line    0x0000000000012961      0x70c ../bsp/ports/pclin/output/default/pclin-2.6-x86/lib/libcsr_fs.a(csr_posix_filesystem.o)
 .debug_line    0x000000000001306d      0x1b3 ../output/default/pclin-2.6-x86/lib/libcsr_usb.a(csr_usb_transport.o)
 .debug_line    0x0000000000013220      0x218 ../output/default/pclin-2.6-x86/lib/libcsr_ui.a(csr_ui_lib.o)
 .debug_line    0x0000000000013438       0xe6 ../output/default/pclin-2.6-x86/lib/libcsr_ui.a(csr_ui_free_up.o)
 .debug_line    0x000000000001351e      0x16e ../output/default/pclin-2.6-x86/lib/libcsr_app.a(csr_app_lib.o)
 .debug_line    0x000000000001368c       0xc3 ../output/default/pclin-2.6-x86/lib/libcsr_random.a(csr_random.o)
 .debug_line    0x000000000001374f       0xfc ../output/default/pclin-2.6-x86/lib/libcsr_tm_bluecore.a(csr_tm_bluecore_lib.o)
 .debug_line    0x000000000001384b      0x10b ../output/default/pclin-2.6-x86/lib/libcsr_tm_bluecore.a(csr_tm_bluecore_private_lib.o)
 .debug_line    0x0000000000013956       0xcc ../output/default/pclin-2.6-x86/lib/libcsr_tftp_lib.a(csr_tftp_free_up.o)
 .debug_line    0x0000000000013a22      0x10e ../output/default/pclin-2.6-x86/lib/libcsr_tftp_lib.a(csr_tftp_lib.o)

.debug_frame
 *(.debug_frame)

.debug_str      0x0000000000000000    0x11396
 *(.debug_str)
 .debug_str     0x0000000000000000      0x2ed output/default/pclin-2.6-x86/obj/csr_tasks.o
                                        0x32b (size before relaxing)
 .debug_str     0x00000000000002ed      0x309 output/default/pclin-2.6-x86/obj/bootstrap/csr_bootstrap_generic.o
                                        0x46b (size before relaxing)
 .debug_str     0x00000000000005f6      0x292 output/default/pclin-2.6-x86/obj/bootstrap/csr_bootstrap_specific_string_based.o
                                        0x3bf (size before relaxing)
 .debug_str     0x0000000000000888       0x23 output/default/pclin-2.6-x86/obj/bootstrap/psr/pb-101r2_7558_uart.o
                                        0x138 (size before relaxing)
 .debug_str     0x00000000000008ab       0x1d output/default/pclin-2.6-x86/obj/bootstrap/psr/pb-14r2_3164.o
                                        0x12c (size before relaxing)
 .debug_str     0x00000000000008c8       0x1e output/default/pclin-2.6-x86/obj/bootstrap/psr/pb-22r14_4363.o
                                        0x12e (size before relaxing)
 .debug_str     0x00000000000008e6       0x1e output/default/pclin-2.6-x86/obj/bootstrap/psr/pb-26r17_4698.o
                                        0x12e (size before relaxing)
 .debug_str     0x0000000000000904       0x1e output/default/pclin-2.6-x86/obj/bootstrap/psr/pb-27r20_4841.o
                                        0x12e (size before relaxing)
 .debug_str     0x0000000000000922       0x1d output/default/pclin-2.6-x86/obj/bootstrap/psr/pb-28r2_4839.o
                                        0x12c (size before relaxing)
 .debug_str     0x000000000000093f       0x1d output/default/pclin-2.6-x86/obj/bootstrap/psr/pb-2r17_1958.o
                                        0x12c (size before relaxing)
 .debug_str     0x000000000000095c       0x1d output/default/pclin-2.6-x86/obj/bootstrap/psr/pb-49r3_5892.o
                                        0x12c (size before relaxing)
 .debug_str     0x0000000000000979       0x4f output/default/pclin-2.6-x86/obj/bootstrap/psr/pb-51r22_5985_bga.o
                                        0x136 (size before relaxing)
 .debug_str     0x00000000000009c8       0x55 output/default/pclin-2.6-x86/obj/bootstrap/psr/pb-51r22_5985_csp0p4.o
                                        0x13c (size before relaxing)
 .debug_str     0x0000000000000a1d       0x25 output/default/pclin-2.6-x86/obj/bootstrap/psr/pb-51r22_5985_csp0p5.o
                                        0x13c (size before relaxing)
 .debug_str     0x0000000000000a42       0x4f output/default/pclin-2.6-x86/obj/bootstrap/psr/pb-51r26_5985_bga.o
                                        0x136 (size before relaxing)
 .debug_str     0x0000000000000a91       0x55 output/default/pclin-2.6-x86/obj/bootstrap/psr/pb-51r26_5985_csp0p4.o
                                        0x13c (size before relaxing)
 .debug_str     0x0000000000000ae6       0x55 output/default/pclin-2.6-x86/obj/bootstrap/psr/pb-51r26_5985_csp0p5.o
                                        0x13c (size before relaxing)
 .debug_str     0x0000000000000b3b       0x21 output/default/pclin-2.6-x86/obj/bootstrap/psr/pb-53r7_6247_csp.o
                                        0x134 (size before relaxing)
 .debug_str     0x0000000000000b5c       0x4d output/default/pclin-2.6-x86/obj/bootstrap/psr/pb-53r7_6247_qfn.o
                                        0x134 (size before relaxing)
 .debug_str     0x0000000000000ba9       0x49 output/default/pclin-2.6-x86/obj/bootstrap/psr/pb-75_6455_csp.o
                                        0x130 (size before relaxing)
 .debug_str     0x0000000000000bf2       0x4d output/default/pclin-2.6-x86/obj/bootstrap/psr/pb-84r2_6817_csp.o
                                        0x134 (size before relaxing)
 .debug_str     0x0000000000000c3f       0x1d output/default/pclin-2.6-x86/obj/bootstrap/psr/pb-90r1_6817.o
                                        0x12c (size before relaxing)
 .debug_str     0x0000000000000c5c       0x1b output/default/pclin-2.6-x86/obj/bootstrap/psr/ps-default.o
                                        0x128 (size before relaxing)
 .debug_str     0x0000000000000c77       0x1e output/default/pclin-2.6-x86/obj/bootstrap/psr/ps-gemini_a06.o
                                        0x12e (size before relaxing)
 .debug_str     0x0000000000000c95      0x6ed ../output/default/pclin-2.6-x86/lib/libcsr_sched.a(csr_sched.o)
                                        0x896 (size before relaxing)
 .debug_str     0x0000000000001382      0x3a7 ../output/default/pclin-2.6-x86/lib/libcsr_ui.a(csr_ui_ctrl.o)
                                        0x564 (size before relaxing)
 .debug_str     0x0000000000001729      0x147 ../output/default/pclin-2.6-x86/lib/libcsr_ui.a(csr_ui_displaystack.o)
                                        0x67c (size before relaxing)
 .debug_str     0x0000000000001870       0xd7 ../output/default/pclin-2.6-x86/lib/libcsr_ui.a(csr_ui_emulator_touchdecoder.o)
                                        0x1fa (size before relaxing)
 .debug_str     0x0000000000001947      0x20d ../output/default/pclin-2.6-x86/lib/libcsr_ui.a(csr_ui_keyhandler.o)
                                        0x840 (size before relaxing)
 .debug_str     0x0000000000001b54      0x3bb ../output/default/pclin-2.6-x86/lib/libcsr_ui.a(csr_ui_renderer.o)
                                        0xa24 (size before relaxing)
 .debug_str     0x0000000000001f0f      0x17e ../output/default/pclin-2.6-x86/lib/libcsr_ui.a(csr_ui_renderer_text.o)
                                        0x8b0 (size before relaxing)
 .debug_str     0x000000000000208d      0x5ff ../output/default/pclin-2.6-x86/lib/libcsr_ui.a(csr_ui_sef.o)
                                        0xc83 (size before relaxing)
 .debug_str     0x000000000000268c      0x165 ../output/default/pclin-2.6-x86/lib/libcsr_ui.a(csr_ui_uiemanager.o)
                                        0x7b4 (size before relaxing)
 .debug_str     0x00000000000027f1       0xc4 ../output/default/pclin-2.6-x86/lib/libcsr_ui.a(csr_ui_util.o)
                                        0x1ea (size before relaxing)
 .debug_str     0x00000000000028b5       0x46 ../output/default/pclin-2.6-x86/lib/libcsr_ui.a(csr_ui_free_down.o)
                                        0x297 (size before relaxing)
 .debug_str     0x00000000000028fb      0x12a ../output/default/pclin-2.6-x86/lib/libcsr_ui.a(csr_ui_graphics_driver.o)
                                        0x66e (size before relaxing)
 .debug_str     0x0000000000002a25       0x29 ../output/default/pclin-2.6-x86/lib/libcsr_ui.a(csr_ui_icon.o)
                                        0x51f (size before relaxing)
 .debug_str     0x0000000000002a4e       0x1d ../output/default/pclin-2.6-x86/lib/libcsr_ui.a(csr_ui_font_sax_mono_12x22.o)
                                        0x132 (size before relaxing)
 .debug_str     0x0000000000002a6b       0x1d ../output/default/pclin-2.6-x86/lib/libcsr_ui.a(csr_ui_font_sax_mono_10x21.o)
                                        0x132 (size before relaxing)
 .debug_str     0x0000000000002a88      0x319 ../output/default/pclin-2.6-x86/lib/libcsr_app.a(csr_app_handler.o)
                                        0x5c1 (size before relaxing)
 .debug_str     0x0000000000002da1      0x147 ../output/default/pclin-2.6-x86/lib/libcsr_app.a(csr_app_ui_sef.o)
                                        0x6af (size before relaxing)
 .debug_str     0x0000000000002ee8      0x120 ../output/default/pclin-2.6-x86/lib/libcsr_app.a(csr_app_util.o)
                                        0x58c (size before relaxing)
 .debug_str     0x0000000000003008       0x38 ../output/default/pclin-2.6-x86/lib/libcsr_app.a(csr_app_free_down.o)
                                        0x207 (size before relaxing)
 .debug_str     0x0000000000003040       0x40 ../output/default/pclin-2.6-x86/lib/libcsr_app.a(csr_app_lower_private.o)
                                        0x156 (size before relaxing)
 .debug_str     0x0000000000003080       0x5d ../bsp/ports/pclin/output/default/pclin-2.6-x86/lib/libcsr_main.a(csr_main.o)
                                        0x125 (size before relaxing)
 .debug_str     0x00000000000030dd       0xc1 ../output/default/pclin-2.6-x86/lib/libcsr_arg_search.a(csr_arg_search.o)
                                        0x1c8 (size before relaxing)
 .debug_str     0x000000000000319e      0x20a ../bsp/ports/pclin/output/default/pclin-2.6-x86/lib/libcsr_app_main_bluecore.a(csr_app_main.o)
                                        0x335 (size before relaxing)
 .debug_str     0x00000000000033a8      0x125 ../bsp/ports/pclin/output/default/pclin-2.6-x86/lib/libcsr_app_main_bluecore.a(csr_key_input.o)
                                        0x3d8 (size before relaxing)
 .debug_str     0x00000000000034cd       0xc6 ../bsp/ports/pclin/output/default/pclin-2.6-x86/lib/libcsr_app_main_bluecore.a(csr_ui_lower.o)
                                        0x2a8 (size before relaxing)
 .debug_str     0x0000000000003593      0x274 ../bsp/ports/pclin/output/default/pclin-2.6-x86/lib/libcsr_app_main_bluecore.a(csr_app_main_transport_bluecore.o)
                                        0x3d3 (size before relaxing)
 .debug_str     0x0000000000003807      0x19b ../output/default/pclin-2.6-x86/lib/libcsr_tm_bluecore.a(csr_tm_bluecore_handler.o)
                                        0x2d1 (size before relaxing)
 .debug_str     0x00000000000039a2      0x3a0 ../output/default/pclin-2.6-x86/lib/libcsr_tm_bluecore.a(csr_tm_bluecore_sef.o)
                                        0x6d4 (size before relaxing)
 .debug_str     0x0000000000003d42      0x1f0 ../output/default/pclin-2.6-x86/lib/libcsr_tm_bluecore.a(csr_tm_bluecore_transport.o)
                                        0x302 (size before relaxing)
 .debug_str     0x0000000000003f32      0x15f ../output/default/pclin-2.6-x86/lib/libcsr_bccmd.a(csr_bccmd_handler.o)
                                        0x3df (size before relaxing)
 .debug_str     0x0000000000004091      0x159 ../output/default/pclin-2.6-x86/lib/libcsr_bccmd.a(csr_bccmd_lib.o)
                                        0x2f0 (size before relaxing)
 .debug_str     0x00000000000041ea      0x376 ../output/default/pclin-2.6-x86/lib/libcsr_bccmd.a(csr_bccmd_sef.o)
                                        0x787 (size before relaxing)
 .debug_str     0x0000000000004560       0xc3 ../output/default/pclin-2.6-x86/lib/libcsr_bccmd.a(csr_bccmd_private_lib.o)
                                        0x260 (size before relaxing)
 .debug_str     0x0000000000004623       0x67 ../output/default/pclin-2.6-x86/lib/libcsr_bccmd.a(csr_bccmd_util.o)
                                        0x1d3 (size before relaxing)
 .debug_str     0x000000000000468a       0x38 ../output/default/pclin-2.6-x86/lib/libcsr_bccmd.a(csr_bccmd_free_up.o)
                                        0x1b8 (size before relaxing)
 .debug_str     0x00000000000046c2      0x16c ../output/default/pclin-2.6-x86/lib/libcsr_fastpipe.a(csr_fp_handler.o)
                                        0x3be (size before relaxing)
 .debug_str     0x000000000000482e      0x41c ../output/default/pclin-2.6-x86/lib/libcsr_fastpipe.a(csr_fp_sef.o)
                                        0x882 (size before relaxing)
 .debug_str     0x0000000000004c4a       0x36 ../output/default/pclin-2.6-x86/lib/libcsr_fastpipe.a(csr_fp_free_down.o)
                                        0x270 (size before relaxing)
 .debug_str     0x0000000000004c80       0xbe ../output/default/pclin-2.6-x86/lib/libcsr_hq.a(csr_hq_handler.o)
                                        0x2f2 (size before relaxing)
 .debug_str     0x0000000000004d3e      0x124 ../output/default/pclin-2.6-x86/lib/libcsr_hq.a(csr_hq_subscriber.o)
                                        0x363 (size before relaxing)
 .debug_str     0x0000000000004e62       0xfd ../output/default/pclin-2.6-x86/lib/libcsr_hq.a(csr_hq_sef.o)
                                        0x521 (size before relaxing)
 .debug_str     0x0000000000004f5f       0x36 ../output/default/pclin-2.6-x86/lib/libcsr_hq.a(csr_hq_free_down.o)
                                        0x1b9 (size before relaxing)
 .debug_str     0x0000000000004f95      0x10d ../output/default/pclin-2.6-x86/lib/libcsr_vm.a(csr_vm_handler.o)
                                        0x3dc (size before relaxing)
 .debug_str     0x00000000000050a2       0x36 ../output/default/pclin-2.6-x86/lib/libcsr_vm.a(csr_vm_free_down.o)
                                        0x18c (size before relaxing)
 .debug_str     0x00000000000050d8      0x3d4 ../output/default/pclin-2.6-x86/lib/libcsr_am.a(csr_am_handler.o)
                                        0x6eb (size before relaxing)
 .debug_str     0x00000000000054ac      0x8cc ../output/default/pclin-2.6-x86/lib/libcsr_am.a(csr_am_util.o)
                                        0xf57 (size before relaxing)
 .debug_str     0x0000000000005d78      0x2a0 ../output/default/pclin-2.6-x86/lib/libcsr_am.a(csr_am_sef.o)
                                        0xa1c (size before relaxing)
 .debug_str     0x0000000000006018       0x36 ../output/default/pclin-2.6-x86/lib/libcsr_am.a(csr_am_free_down.o)
                                        0x315 (size before relaxing)
 .debug_str     0x000000000000604e      0x12c ../output/default/pclin-2.6-x86/lib/libcsr_hci.a(csr_hci_handler.o)
                                        0x492 (size before relaxing)
 .debug_str     0x000000000000617a      0x24b ../output/default/pclin-2.6-x86/lib/libcsr_hci.a(csr_hci_lib.o)
                                        0x52b (size before relaxing)
 .debug_str     0x00000000000063c5      0x27c ../output/default/pclin-2.6-x86/lib/libcsr_hci.a(csr_hci_sef.o)
                                        0x7bb (size before relaxing)
 .debug_str     0x0000000000006641      0x3fb ../output/default/pclin-2.6-x86/lib/libcsr_hci.a(csr_hci_util.o)
                                        0x853 (size before relaxing)
 .debug_str     0x0000000000006a3c       0xe0 ../output/default/pclin-2.6-x86/lib/libcsr_hci.a(csr_hci_sco.o)
                                        0x206 (size before relaxing)
 .debug_str     0x0000000000006b1c       0x4e ../output/default/pclin-2.6-x86/lib/libcsr_hci.a(csr_hci_free_down.o)
                                        0x2e7 (size before relaxing)
 .debug_str     0x0000000000006b6a       0x34 ../output/default/pclin-2.6-x86/lib/libcsr_hci.a(csr_hci_free_up.o)
                                        0x2c1 (size before relaxing)
 .debug_str     0x0000000000006b9e       0x43 ../output/default/pclin-2.6-x86/lib/libcsr_hci.a(csr_hci_private_free_up.o)
                                        0x1af (size before relaxing)
 .debug_str     0x0000000000006be1       0xfc ../output/default/pclin-2.6-x86/lib/libcsr_bluecore_manager.a(csr_bluecore_manager_handler.o)
                                        0x2fe (size before relaxing)
 .debug_str     0x0000000000006cdd      0x1e3 ../output/default/pclin-2.6-x86/lib/libcsr_bluecore_manager.a(csr_bluecore_manager_sef.o)
                                        0x6ff (size before relaxing)
 .debug_str     0x0000000000006ec0      0x294 ../output/default/pclin-2.6-x86/lib/libcsr_ethernet_manager.a(csr_ethernet_manager.o)
                                        0x62c (size before relaxing)
 .debug_str     0x0000000000007154      0x1ba ../output/default/pclin-2.6-x86/lib/libcsr_tcp_transceiver.a(csr_tcp_transceiver_handler.o)
                                        0x39f (size before relaxing)
 .debug_str     0x000000000000730e      0x593 ../output/default/pclin-2.6-x86/lib/libcsr_tcp_transceiver.a(csr_tcp_transceiver_sef.o)
                                        0xb66 (size before relaxing)
 .debug_str     0x00000000000078a1      0x375 ../bsp/ports/pclin/output/default/pclin-2.6-x86/lib/libcsr_ip.a(csr_ip_handler.o)
                                        0x77f (size before relaxing)
 .debug_str     0x0000000000007c16      0xb4f ../bsp/ports/pclin/output/default/pclin-2.6-x86/lib/libcsr_ip.a(csr_ip_ifconfig_sef.o)
                                       0x1486 (size before relaxing)
 .debug_str     0x0000000000008765      0x167 ../bsp/ports/pclin/output/default/pclin-2.6-x86/lib/libcsr_ip.a(csr_ip_netlink_parser.o)
                                        0x639 (size before relaxing)
 .debug_str     0x00000000000088cc      0xc54 ../bsp/ports/pclin/output/default/pclin-2.6-x86/lib/libcsr_ip.a(csr_ip_socket_sef.o)
                                       0x15c2 (size before relaxing)
 .debug_str     0x0000000000009520       0x98 ../bsp/ports/pclin/output/default/pclin-2.6-x86/lib/libcsr_ip.a(csr_ip_thread.o)
                                        0xa74 (size before relaxing)
 .debug_str     0x00000000000095b8       0x5e ../bsp/ports/pclin/output/default/pclin-2.6-x86/lib/libcsr_ip.a(csr_ip_util.o)
                                        0x72b (size before relaxing)
 .debug_str     0x0000000000009616      0x2da ../bsp/ports/pclin/output/default/pclin-2.6-x86/lib/libcsr_ip.a(csr_ip_ether_sef.o)
                                        0xbc9 (size before relaxing)
 .debug_str     0x00000000000098f0       0x76 ../output/default/pclin-2.6-x86/lib/libcsr_ip_ether_lib.a(csr_ip_ether_free_down.o)
                                        0x15a (size before relaxing)
 .debug_str     0x0000000000009966      0x17e ../output/default/pclin-2.6-x86/lib/libcsr_ip_ether_lib.a(csr_ip_ether_private_lib.o)
                                        0x39d (size before relaxing)
 .debug_str     0x0000000000009ae4       0x6b ../output/default/pclin-2.6-x86/lib/libcsr_ip_socket_lib.a(csr_ip_socket_free_up.o)
                                        0x23d (size before relaxing)
 .debug_str     0x0000000000009b4f       0x43 ../output/default/pclin-2.6-x86/lib/libcsr_ip_socket_lib.a(csr_ip_socket_free_down.o)
                                        0x249 (size before relaxing)
 .debug_str     0x0000000000009b92      0x2d6 ../output/default/pclin-2.6-x86/lib/libcsr_ip_socket_lib.a(csr_ip_socket_lib.o)
                                        0x745 (size before relaxing)
 .debug_str     0x0000000000009e68      0x2b5 ../output/default/pclin-2.6-x86/lib/libcsr_ip_socket_lib.a(csr_ip_socket_private_lib.o)
                                        0x71c (size before relaxing)
 .debug_str     0x000000000000a11d       0x43 ../output/default/pclin-2.6-x86/lib/libcsr_ip_ifconfig_lib.a(csr_ip_ifconfig_free_up.o)
                                        0x264 (size before relaxing)
 .debug_str     0x000000000000a160       0x47 ../output/default/pclin-2.6-x86/lib/libcsr_ip_ifconfig_lib.a(csr_ip_ifconfig_free_down.o)
                                        0x163 (size before relaxing)
 .debug_str     0x000000000000a1a7       0xed ../output/default/pclin-2.6-x86/lib/libcsr_ip_ifconfig_lib.a(csr_ip_ifconfig_lib.o)
                                        0x36b (size before relaxing)
 .debug_str     0x000000000000a294      0x19f ../output/default/pclin-2.6-x86/lib/libcsr_ip_ifconfig_lib.a(csr_ip_ifconfig_private_lib.o)
                                        0x3d5 (size before relaxing)
 .debug_str     0x000000000000a433      0x43f ../output/default/pclin-2.6-x86/lib/libcsr_dhcp_server_manager.a(csr_dhcp_server_manager.o)
                                        0x855 (size before relaxing)
 .debug_str     0x000000000000a872      0x353 ../output/default/pclin-2.6-x86/lib/libcsr_dhcp_server.a(csr_dhcp_server_handler.o)
                                        0x66b (size before relaxing)
 .debug_str     0x000000000000abc5      0x242 ../output/default/pclin-2.6-x86/lib/libcsr_dhcp_server.a(csr_dhcp_server_sef.o)
                                        0x95b (size before relaxing)
 .debug_str     0x000000000000ae07      0x713 ../output/default/pclin-2.6-x86/lib/libcsr_dhcp_server.a(csr_dhcp_server_util.o)
                                        0xc3e (size before relaxing)
 .debug_str     0x000000000000b51a       0x47 ../output/default/pclin-2.6-x86/lib/libcsr_dhcp_server_lib.a(csr_dhcp_server_free_down.o)
                                        0x211 (size before relaxing)
 .debug_str     0x000000000000b561       0xce ../output/default/pclin-2.6-x86/lib/libcsr_dhcp_server_lib.a(csr_dhcp_server_lib.o)
                                        0x33f (size before relaxing)
 .debug_str     0x000000000000b62f       0xe4 ../output/default/pclin-2.6-x86/lib/libcsr_dhcp_server_lib.a(csr_dhcp_server_lib_priv.o)
                                        0x35b (size before relaxing)
 .debug_str     0x000000000000b713      0x14e ../output/default/pclin-2.6-x86/lib/libcsr_tftp.a(csr_tftp_handler.o)
                                        0x2f2 (size before relaxing)
 .debug_str     0x000000000000b861      0x3f2 ../output/default/pclin-2.6-x86/lib/libcsr_tftp.a(csr_tftp_sef.o)
                                        0x7d6 (size before relaxing)
 .debug_str     0x000000000000bc53       0x3a ../output/default/pclin-2.6-x86/lib/libcsr_tftp_lib.a(csr_tftp_free_down.o)
                                        0x198 (size before relaxing)
 .debug_str     0x000000000000bc8d      0x108 ../output/default/pclin-2.6-x86/lib/libcsr_tftp_lib.a(csr_tftp_lib_priv.o)
                                        0x2a6 (size before relaxing)
 .debug_str     0x000000000000bd95      0x11a ../output/default/pclin-2.6-x86/lib/libcsr_tftp_file.a(csr_tftp_file_handler.o)
                                        0x276 (size before relaxing)
 .debug_str     0x000000000000beaf      0x2ff ../output/default/pclin-2.6-x86/lib/libcsr_tftp_file.a(csr_tftp_file_sef.o)
                                        0x604 (size before relaxing)
 .debug_str     0x000000000000c1ae      0x12c ../output/default/pclin-2.6-x86/lib/libcsr_fsal.a(csr_fsal_handler.o)
                                        0x2a5 (size before relaxing)
 .debug_str     0x000000000000c2da      0x813 ../output/default/pclin-2.6-x86/lib/libcsr_fsal.a(csr_fsal_sef.o)
                                        0xc41 (size before relaxing)
 .debug_str     0x000000000000caed       0x68 ../output/default/pclin-2.6-x86/lib/libcsr_fsal.a(csr_fsal_sef_utils.o)
                                        0x307 (size before relaxing)
 .debug_str     0x000000000000cb55      0x2a1 ../output/default/pclin-2.6-x86/lib/libcsr_fsal.a(csr_fsal_utils.o)
                                        0x4db (size before relaxing)
 .debug_str     0x000000000000cdf6       0x36 ../output/default/pclin-2.6-x86/lib/libcsr_fsal_lib.a(csr_fsal_free_up.o)
                                        0x324 (size before relaxing)
 .debug_str     0x000000000000ce2c       0x3a ../output/default/pclin-2.6-x86/lib/libcsr_fsal_lib.a(csr_fsal_free_down.o)
                                        0x311 (size before relaxing)
 .debug_str     0x000000000000ce66      0x202 ../output/default/pclin-2.6-x86/lib/libcsr_fsal_lib.a(csr_fsal_lib.o)
                                        0x5c6 (size before relaxing)
 .debug_str     0x000000000000d068      0x247 ../output/default/pclin-2.6-x86/lib/libcsr_fsal_lib.a(csr_fsal_lib_priv.o)
                                        0x632 (size before relaxing)
 .debug_str     0x000000000000d2af      0x263 ../output/default/pclin-2.6-x86/lib/libcsr_list.a(csr_list.o)
                                        0x451 (size before relaxing)
 .debug_str     0x000000000000d512       0xd3 ../output/default/pclin-2.6-x86/lib/libcsr_message_queue.a(csr_message_queue.o)
                                        0x26a (size before relaxing)
 .debug_str     0x000000000000d5e5       0x64 ../output/default/pclin-2.6-x86/lib/libcsr_formatted_io.a(csr_formatted_io.o)
                                        0x167 (size before relaxing)
 .debug_str     0x000000000000d649      0x370 ../output/default/pclin-2.6-x86/lib/libcsr_unicode.a(csr_utf16.o)
                                        0x4ea (size before relaxing)
 .debug_str     0x000000000000d9b9      0x313 ../output/default/pclin-2.6-x86/lib/libcsr_mblk.a(csr_mblk.o)
                                        0x4ee (size before relaxing)
 .debug_str     0x000000000000dccc       0x9c ../output/default/pclin-2.6-x86/lib/libcsr_mblk.a(csr_mblk_duplicate.o)
                                        0x2bb (size before relaxing)
 .debug_str     0x000000000000dd68      0x14d ../output/default/pclin-2.6-x86/lib/libcsr_mblk.a(csr_mblk_pmalloc.o)
                                        0x388 (size before relaxing)
 .debug_str     0x000000000000deb5       0x2e ../output/default/pclin-2.6-x86/lib/libcsr_mblk.a(csr_mblk_read_head.o)
                                        0x23e (size before relaxing)
 .debug_str     0x000000000000dee3      0x494 ../output/default/pclin-2.6-x86/lib/libcsr_bcsp.a(csr_abcsp_transport.o)
                                        0x66a (size before relaxing)
 .debug_str     0x000000000000e377       0x50 ../output/default/pclin-2.6-x86/lib/libcsr_bcsp.a(csr_abcsp_init_c.o)
                                        0x4f5 (size before relaxing)
 .debug_str     0x000000000000e3c7       0x37 ../output/default/pclin-2.6-x86/lib/libcsr_bcsp.a(csr_abcsp_events.o)
                                        0x193 (size before relaxing)
 .debug_str     0x000000000000e3fe       0x71 ../output/default/pclin-2.6-x86/lib/libcsr_bcsp.a(csr_abcsp_rd_hl.o)
                                        0x509 (size before relaxing)
 .debug_str     0x000000000000e46f      0x185 ../output/default/pclin-2.6-x86/lib/libcsr_bcsp.a(csr_abcsp_le.o)
                                        0x61c (size before relaxing)
 .debug_str     0x000000000000e5f4       0xf3 ../output/default/pclin-2.6-x86/lib/libcsr_bcsp.a(csr_abcsp_rx.o)
                                        0x5ab (size before relaxing)
 .debug_str     0x000000000000e6e7       0xfc ../output/default/pclin-2.6-x86/lib/libcsr_bcsp.a(csr_abcsp_txmsg.o)
                                        0x5e1 (size before relaxing)
 .debug_str     0x000000000000e7e3       0x93 ../output/default/pclin-2.6-x86/lib/libcsr_bcsp.a(csr_abcsp_tx_rx_msg_intf.o)
                                        0x1c7 (size before relaxing)
 .debug_str     0x000000000000e876       0xaa ../output/default/pclin-2.6-x86/lib/libcsr_bcsp.a(csr_abcsp_txslip.o)
                                        0x551 (size before relaxing)
 .debug_str     0x000000000000e920      0x103 ../output/default/pclin-2.6-x86/lib/libcsr_bcsp.a(csr_abcsp_timers.o)
                                        0x5d3 (size before relaxing)
 .debug_str     0x000000000000ea23       0x49 ../output/default/pclin-2.6-x86/lib/libcsr_bcsp.a(csr_abcsp_tx_handle.o)
                                        0x4e7 (size before relaxing)
 .debug_str     0x000000000000ea6c       0x60 ../output/default/pclin-2.6-x86/lib/libcsr_bcsp.a(csr_abcsp_crc.o)
                                        0x189 (size before relaxing)
 .debug_str     0x000000000000eacc      0x342 ../output/default/pclin-2.6-x86/lib/libcsr_h4ds.a(csr_h4ds_transport.o)
                                        0x538 (size before relaxing)
 .debug_str     0x000000000000ee0e       0x7a ../output/default/pclin-2.6-x86/lib/libcsr_h4ds.a(csr_h4ds_initialize.o)
                                        0x3db (size before relaxing)
 .debug_str     0x000000000000ee88       0x47 ../output/default/pclin-2.6-x86/lib/libcsr_h4ds.a(csr_h4ds_pump_msg.o)
                                        0x3a8 (size before relaxing)
 .debug_str     0x000000000000eecf       0x26 ../output/default/pclin-2.6-x86/lib/libcsr_h4ds.a(csr_h4ds_init.o)
                                        0x123 (size before relaxing)
 .debug_str     0x000000000000eef5       0xed ../output/default/pclin-2.6-x86/lib/libcsr_h4ds.a(csr_h4ds_le.o)
                                        0x257 (size before relaxing)
 .debug_str     0x000000000000efe2      0x2e0 ../output/default/pclin-2.6-x86/lib/libcsr_h4ds.a(csr_h4ds_tx.o)
                                        0x557 (size before relaxing)
 .debug_str     0x000000000000f2c2      0x329 ../output/default/pclin-2.6-x86/lib/libcsr_h4ds.a(csr_h4ds_ds.o)
                                        0x48c (size before relaxing)
 .debug_str     0x000000000000f5eb      0x1c6 ../output/default/pclin-2.6-x86/lib/libcsr_h4ds.a(csr_h4ds_rx.o)
                                        0x381 (size before relaxing)
 .debug_str     0x000000000000f7b1       0x53 ../output/default/pclin-2.6-x86/lib/libcsr_h4ds.a(csr_h4ds_pump.o)
                                        0x158 (size before relaxing)
 .debug_str     0x000000000000f804       0x1e ../output/default/pclin-2.6-x86/lib/libcsr_h4ds.a(csr_h4_events.o)
                                        0x11b (size before relaxing)
 .debug_str     0x000000000000f822       0x2a ../output/default/pclin-2.6-x86/lib/libcsr_h4ds.a(csr_h4_int_handle.o)
                                        0x294 (size before relaxing)
 .debug_str     0x000000000000f84c       0x8c ../output/default/pclin-2.6-x86/lib/libcsr_h4ds.a(csr_h4_tx.o)
                                        0x2cf (size before relaxing)
 .debug_str     0x000000000000f8d8       0x33 ../output/default/pclin-2.6-x86/lib/libcsr_h4ds.a(csr_h4_rx.o)
                                        0x199 (size before relaxing)
 .debug_str     0x000000000000f90b       0x2b ../output/default/pclin-2.6-x86/lib/libcsr_h4ds.a(csr_h4ds_event.o)
                                        0x1b0 (size before relaxing)
 .debug_str     0x000000000000f936      0x17c ../output/default/pclin-2.6-x86/lib/libcsr_h4ds.a(csr_h4ds_timers.o)
                                        0x3f3 (size before relaxing)
 .debug_str     0x000000000000fab2      0x11e ../output/default/pclin-2.6-x86/lib/libcsr_h4ds.a(csr_h4ds_low_level_transport.o)
                                        0x39c (size before relaxing)
 .debug_str     0x000000000000fbd0       0x2a ../output/default/pclin-2.6-x86/lib/libcsr_h4ds.a(csr_h4ds_tx_handle.o)
                                        0x29c (size before relaxing)
 .debug_str     0x000000000000fbfa       0x1a ../output/default/pclin-2.6-x86/lib/libcsr_h4ds.a(csr_h4ds_msgs.o)
                                        0x1d3 (size before relaxing)
 .debug_str     0x000000000000fc14       0x7c ../output/default/pclin-2.6-x86/lib/libcsr_h4ds.a(csr_h4ds_scanner.o)
                                        0x360 (size before relaxing)
 .debug_str     0x000000000000fc90       0xc6 ../output/default/pclin-2.6-x86/lib/libcsr_queue_lib.a(csr_queue_lib.o)
                                        0x1d4 (size before relaxing)
 .debug_str     0x000000000000fd56      0x206 ../bsp/ports/pclin/output/default/pclin-2.6-x86/lib/libcsr_util.a(csr_util.o)
                                        0x3ab (size before relaxing)
 .debug_str     0x000000000000ff5c       0x86 ../bsp/ports/pclin/output/default/pclin-2.6-x86/lib/libcsr_pmem.a(csr_pmem.o)
                                        0x14d (size before relaxing)
 .debug_str     0x000000000000ffe2       0xc3 ../bsp/ports/pclin/output/default/pclin-2.6-x86/lib/libcsr_time.a(csr_time.o)
                                        0x1a8 (size before relaxing)
 .debug_str     0x00000000000100a5       0x7b ../bsp/ports/pclin/output/default/pclin-2.6-x86/lib/libcsr_panic.a(csr_panic.o)
                                        0x153 (size before relaxing)
 .debug_str     0x0000000000010120      0x3aa ../bsp/ports/pclin/output/default/pclin-2.6-x86/lib/libcsr_ser_com.a(csr_serial_com.o)
                                        0x641 (size before relaxing)
 .debug_str     0x00000000000104ca      0x169 ../bsp/ports/pclin/output/default/pclin-2.6-x86/lib/libcsr_usb_com.a(csr_usb_com.o)
                                        0x387 (size before relaxing)
 .debug_str     0x0000000000010633      0x23b ../bsp/ports/pclin/output/default/pclin-2.6-x86/lib/libcsr_framework_ext.a(csr_framework_ext.o)
                                        0x4fb (size before relaxing)
 .debug_str     0x000000000001086e      0x370 ../bsp/ports/pclin/output/default/pclin-2.6-x86/lib/libcsr_fs.a(csr_posix_filesystem.o)
                                        0x638 (size before relaxing)
 .debug_str     0x0000000000010bde      0x199 ../output/default/pclin-2.6-x86/lib/libcsr_usb.a(csr_usb_transport.o)
                                        0x391 (size before relaxing)
 .debug_str     0x0000000000010d77      0x357 ../output/default/pclin-2.6-x86/lib/libcsr_ui.a(csr_ui_lib.o)
                                        0x7e6 (size before relaxing)
 .debug_str     0x00000000000110ce       0x54 ../output/default/pclin-2.6-x86/lib/libcsr_ui.a(csr_ui_free_up.o)
                                        0x237 (size before relaxing)
 .debug_str     0x0000000000011122       0x59 ../output/default/pclin-2.6-x86/lib/libcsr_app.a(csr_app_lib.o)
                                        0x25f (size before relaxing)
 .debug_str     0x000000000001117b       0x82 ../output/default/pclin-2.6-x86/lib/libcsr_random.a(csr_random.o)
                                        0x173 (size before relaxing)
 .debug_str     0x00000000000111fd       0x6a ../output/default/pclin-2.6-x86/lib/libcsr_tm_bluecore.a(csr_tm_bluecore_lib.o)
                                        0x1db (size before relaxing)
 .debug_str     0x0000000000011267       0x6e ../output/default/pclin-2.6-x86/lib/libcsr_tm_bluecore.a(csr_tm_bluecore_private_lib.o)
                                        0x19b (size before relaxing)
 .debug_str     0x00000000000112d5       0x36 ../output/default/pclin-2.6-x86/lib/libcsr_tftp_lib.a(csr_tftp_free_up.o)
                                        0x1e6 (size before relaxing)
 .debug_str     0x000000000001130b       0x8b ../output/default/pclin-2.6-x86/lib/libcsr_tftp_lib.a(csr_tftp_lib.o)
                                        0x24b (size before relaxing)

.debug_loc      0x0000000000000000    0x129b8
 *(.debug_loc)
 .debug_loc     0x0000000000000000       0xa8 output/default/pclin-2.6-x86/obj/csr_tasks.o
 .debug_loc     0x00000000000000a8      0x3f0 output/default/pclin-2.6-x86/obj/bootstrap/csr_bootstrap_generic.o
 .debug_loc     0x0000000000000498       0x38 output/default/pclin-2.6-x86/obj/bootstrap/csr_bootstrap_specific_string_based.o
 .debug_loc     0x00000000000004d0      0x578 ../output/default/pclin-2.6-x86/lib/libcsr_sched.a(csr_sched.o)
 .debug_loc     0x0000000000000a48       0xa8 ../output/default/pclin-2.6-x86/lib/libcsr_ui.a(csr_ui_ctrl.o)
 .debug_loc     0x0000000000000af0      0x118 ../output/default/pclin-2.6-x86/lib/libcsr_ui.a(csr_ui_displaystack.o)
 .debug_loc     0x0000000000000c08       0xe0 ../output/default/pclin-2.6-x86/lib/libcsr_ui.a(csr_ui_emulator_touchdecoder.o)
 .debug_loc     0x0000000000000ce8      0x2a0 ../output/default/pclin-2.6-x86/lib/libcsr_ui.a(csr_ui_keyhandler.o)
 .debug_loc     0x0000000000000f88      0x540 ../output/default/pclin-2.6-x86/lib/libcsr_ui.a(csr_ui_renderer.o)
 .debug_loc     0x00000000000014c8      0x268 ../output/default/pclin-2.6-x86/lib/libcsr_ui.a(csr_ui_renderer_text.o)
 .debug_loc     0x0000000000001730      0x620 ../output/default/pclin-2.6-x86/lib/libcsr_ui.a(csr_ui_sef.o)
 .debug_loc     0x0000000000001d50      0x2d8 ../output/default/pclin-2.6-x86/lib/libcsr_ui.a(csr_ui_uiemanager.o)
 .debug_loc     0x0000000000002028      0x188 ../output/default/pclin-2.6-x86/lib/libcsr_ui.a(csr_ui_util.o)
 .debug_loc     0x00000000000021b0       0x38 ../output/default/pclin-2.6-x86/lib/libcsr_ui.a(csr_ui_free_down.o)
 .debug_loc     0x00000000000021e8      0x118 ../output/default/pclin-2.6-x86/lib/libcsr_ui.a(csr_ui_graphics_driver.o)
 .debug_loc     0x0000000000002300       0x38 ../output/default/pclin-2.6-x86/lib/libcsr_ui.a(csr_ui_icon.o)
 .debug_loc     0x0000000000002338       0xa8 ../output/default/pclin-2.6-x86/lib/libcsr_app.a(csr_app_handler.o)
 .debug_loc     0x00000000000023e0       0xa8 ../output/default/pclin-2.6-x86/lib/libcsr_app.a(csr_app_ui_sef.o)
 .debug_loc     0x0000000000002488      0x1c0 ../output/default/pclin-2.6-x86/lib/libcsr_app.a(csr_app_util.o)
 .debug_loc     0x0000000000002648       0x38 ../output/default/pclin-2.6-x86/lib/libcsr_app.a(csr_app_free_down.o)
 .debug_loc     0x0000000000002680       0x38 ../output/default/pclin-2.6-x86/lib/libcsr_app.a(csr_app_lower_private.o)
 .debug_loc     0x00000000000026b8       0x38 ../bsp/ports/pclin/output/default/pclin-2.6-x86/lib/libcsr_main.a(csr_main.o)
 .debug_loc     0x00000000000026f0       0xa8 ../output/default/pclin-2.6-x86/lib/libcsr_arg_search.a(csr_arg_search.o)
 .debug_loc     0x0000000000002798       0xa8 ../bsp/ports/pclin/output/default/pclin-2.6-x86/lib/libcsr_app_main_bluecore.a(csr_app_main.o)
 .debug_loc     0x0000000000002840       0xe0 ../bsp/ports/pclin/output/default/pclin-2.6-x86/lib/libcsr_app_main_bluecore.a(csr_key_input.o)
 .debug_loc     0x0000000000002920       0xe0 ../bsp/ports/pclin/output/default/pclin-2.6-x86/lib/libcsr_app_main_bluecore.a(csr_ui_lower.o)
 .debug_loc     0x0000000000002a00      0x268 ../bsp/ports/pclin/output/default/pclin-2.6-x86/lib/libcsr_app_main_bluecore.a(csr_app_main_transport_bluecore.o)
 .debug_loc     0x0000000000002c68       0x70 ../output/default/pclin-2.6-x86/lib/libcsr_tm_bluecore.a(csr_tm_bluecore_handler.o)
 .debug_loc     0x0000000000002cd8      0x428 ../output/default/pclin-2.6-x86/lib/libcsr_tm_bluecore.a(csr_tm_bluecore_sef.o)
 .debug_loc     0x0000000000003100      0x2a0 ../output/default/pclin-2.6-x86/lib/libcsr_tm_bluecore.a(csr_tm_bluecore_transport.o)
 .debug_loc     0x00000000000033a0       0xa8 ../output/default/pclin-2.6-x86/lib/libcsr_bccmd.a(csr_bccmd_handler.o)
 .debug_loc     0x0000000000003448      0x1c0 ../output/default/pclin-2.6-x86/lib/libcsr_bccmd.a(csr_bccmd_lib.o)
 .debug_loc     0x0000000000003608      0x540 ../output/default/pclin-2.6-x86/lib/libcsr_bccmd.a(csr_bccmd_sef.o)
 .debug_loc     0x0000000000003b48      0x118 ../output/default/pclin-2.6-x86/lib/libcsr_bccmd.a(csr_bccmd_private_lib.o)
 .debug_loc     0x0000000000003c60       0x70 ../output/default/pclin-2.6-x86/lib/libcsr_bccmd.a(csr_bccmd_util.o)
 .debug_loc     0x0000000000003cd0       0x38 ../output/default/pclin-2.6-x86/lib/libcsr_bccmd.a(csr_bccmd_free_up.o)
 .debug_loc     0x0000000000003d08      0x118 ../output/default/pclin-2.6-x86/lib/libcsr_fastpipe.a(csr_fp_handler.o)
 .debug_loc     0x0000000000003e20      0x5e8 ../output/default/pclin-2.6-x86/lib/libcsr_fastpipe.a(csr_fp_sef.o)
 .debug_loc     0x0000000000004408       0x38 ../output/default/pclin-2.6-x86/lib/libcsr_fastpipe.a(csr_fp_free_down.o)
 .debug_loc     0x0000000000004440       0xa8 ../output/default/pclin-2.6-x86/lib/libcsr_hq.a(csr_hq_handler.o)
 .debug_loc     0x00000000000044e8      0x118 ../output/default/pclin-2.6-x86/lib/libcsr_hq.a(csr_hq_subscriber.o)
 .debug_loc     0x0000000000004600      0x118 ../output/default/pclin-2.6-x86/lib/libcsr_hq.a(csr_hq_sef.o)
 .debug_loc     0x0000000000004718       0x38 ../output/default/pclin-2.6-x86/lib/libcsr_hq.a(csr_hq_free_down.o)
 .debug_loc     0x0000000000004750      0x150 ../output/default/pclin-2.6-x86/lib/libcsr_vm.a(csr_vm_handler.o)
 .debug_loc     0x00000000000048a0       0x38 ../output/default/pclin-2.6-x86/lib/libcsr_vm.a(csr_vm_free_down.o)
 .debug_loc     0x00000000000048d8      0x118 ../output/default/pclin-2.6-x86/lib/libcsr_am.a(csr_am_handler.o)
 .debug_loc     0x00000000000049f0      0xc78 ../output/default/pclin-2.6-x86/lib/libcsr_am.a(csr_am_util.o)
 .debug_loc     0x0000000000005668      0x380 ../output/default/pclin-2.6-x86/lib/libcsr_am.a(csr_am_sef.o)
 .debug_loc     0x00000000000059e8       0x38 ../output/default/pclin-2.6-x86/lib/libcsr_am.a(csr_am_free_down.o)
 .debug_loc     0x0000000000005a20       0xa8 ../output/default/pclin-2.6-x86/lib/libcsr_hci.a(csr_hci_handler.o)
 .debug_loc     0x0000000000005ac8      0x268 ../output/default/pclin-2.6-x86/lib/libcsr_hci.a(csr_hci_lib.o)
 .debug_loc     0x0000000000005d30      0x3b8 ../output/default/pclin-2.6-x86/lib/libcsr_hci.a(csr_hci_sef.o)
 .debug_loc     0x00000000000060e8      0x578 ../output/default/pclin-2.6-x86/lib/libcsr_hci.a(csr_hci_util.o)
 .debug_loc     0x0000000000006660       0xe0 ../output/default/pclin-2.6-x86/lib/libcsr_hci.a(csr_hci_sco.o)
 .debug_loc     0x0000000000006740       0x38 ../output/default/pclin-2.6-x86/lib/libcsr_hci.a(csr_hci_free_down.o)
 .debug_loc     0x0000000000006778       0x38 ../output/default/pclin-2.6-x86/lib/libcsr_hci.a(csr_hci_free_up.o)
 .debug_loc     0x00000000000067b0       0x38 ../output/default/pclin-2.6-x86/lib/libcsr_hci.a(csr_hci_private_free_up.o)
 .debug_loc     0x00000000000067e8       0xa8 ../output/default/pclin-2.6-x86/lib/libcsr_bluecore_manager.a(csr_bluecore_manager_handler.o)
 .debug_loc     0x0000000000006890      0x1f8 ../output/default/pclin-2.6-x86/lib/libcsr_bluecore_manager.a(csr_bluecore_manager_sef.o)
 .debug_loc     0x0000000000006a88      0x118 ../output/default/pclin-2.6-x86/lib/libcsr_ethernet_manager.a(csr_ethernet_manager.o)
 .debug_loc     0x0000000000006ba0       0xa8 ../output/default/pclin-2.6-x86/lib/libcsr_tcp_transceiver.a(csr_tcp_transceiver_handler.o)
 .debug_loc     0x0000000000006c48      0x508 ../output/default/pclin-2.6-x86/lib/libcsr_tcp_transceiver.a(csr_tcp_transceiver_sef.o)
 .debug_loc     0x0000000000007150       0xa8 ../bsp/ports/pclin/output/default/pclin-2.6-x86/lib/libcsr_ip.a(csr_ip_handler.o)
 .debug_loc     0x00000000000071f8      0x578 ../bsp/ports/pclin/output/default/pclin-2.6-x86/lib/libcsr_ip.a(csr_ip_ifconfig_sef.o)
 .debug_loc     0x0000000000007770       0xa8 ../bsp/ports/pclin/output/default/pclin-2.6-x86/lib/libcsr_ip.a(csr_ip_netlink_parser.o)
 .debug_loc     0x0000000000007818      0x850 ../bsp/ports/pclin/output/default/pclin-2.6-x86/lib/libcsr_ip.a(csr_ip_socket_sef.o)
 .debug_loc     0x0000000000008068       0x7c ../bsp/ports/pclin/output/default/pclin-2.6-x86/lib/libcsr_ip.a(csr_ip_thread.o)
 .debug_loc     0x00000000000080e4      0x150 ../bsp/ports/pclin/output/default/pclin-2.6-x86/lib/libcsr_ip.a(csr_ip_util.o)
 .debug_loc     0x0000000000008234      0x2d8 ../bsp/ports/pclin/output/default/pclin-2.6-x86/lib/libcsr_ip.a(csr_ip_ether_sef.o)
 .debug_loc     0x000000000000850c       0x38 ../output/default/pclin-2.6-x86/lib/libcsr_ip_ether_lib.a(csr_ip_ether_free_down.o)
 .debug_loc     0x0000000000008544      0x188 ../output/default/pclin-2.6-x86/lib/libcsr_ip_ether_lib.a(csr_ip_ether_private_lib.o)
 .debug_loc     0x00000000000086cc       0x38 ../output/default/pclin-2.6-x86/lib/libcsr_ip_socket_lib.a(csr_ip_socket_free_up.o)
 .debug_loc     0x0000000000008704       0x38 ../output/default/pclin-2.6-x86/lib/libcsr_ip_socket_lib.a(csr_ip_socket_free_down.o)
 .debug_loc     0x000000000000873c      0x498 ../output/default/pclin-2.6-x86/lib/libcsr_ip_socket_lib.a(csr_ip_socket_lib.o)
 .debug_loc     0x0000000000008bd4      0x498 ../output/default/pclin-2.6-x86/lib/libcsr_ip_socket_lib.a(csr_ip_socket_private_lib.o)
 .debug_loc     0x000000000000906c       0x38 ../output/default/pclin-2.6-x86/lib/libcsr_ip_ifconfig_lib.a(csr_ip_ifconfig_free_up.o)
 .debug_loc     0x00000000000090a4       0x38 ../output/default/pclin-2.6-x86/lib/libcsr_ip_ifconfig_lib.a(csr_ip_ifconfig_free_down.o)
 .debug_loc     0x00000000000090dc      0x188 ../output/default/pclin-2.6-x86/lib/libcsr_ip_ifconfig_lib.a(csr_ip_ifconfig_lib.o)
 .debug_loc     0x0000000000009264      0x1c0 ../output/default/pclin-2.6-x86/lib/libcsr_ip_ifconfig_lib.a(csr_ip_ifconfig_private_lib.o)
 .debug_loc     0x0000000000009424      0x150 ../output/default/pclin-2.6-x86/lib/libcsr_dhcp_server_manager.a(csr_dhcp_server_manager.o)
 .debug_loc     0x0000000000009574      0x310 ../output/default/pclin-2.6-x86/lib/libcsr_dhcp_server.a(csr_dhcp_server_handler.o)
 .debug_loc     0x0000000000009884      0x348 ../output/default/pclin-2.6-x86/lib/libcsr_dhcp_server.a(csr_dhcp_server_sef.o)
 .debug_loc     0x0000000000009bcc      0x8f8 ../output/default/pclin-2.6-x86/lib/libcsr_dhcp_server.a(csr_dhcp_server_util.o)
 .debug_loc     0x000000000000a4c4       0x38 ../output/default/pclin-2.6-x86/lib/libcsr_dhcp_server_lib.a(csr_dhcp_server_free_down.o)
 .debug_loc     0x000000000000a4fc      0x150 ../output/default/pclin-2.6-x86/lib/libcsr_dhcp_server_lib.a(csr_dhcp_server_lib.o)
 .debug_loc     0x000000000000a64c      0x188 ../output/default/pclin-2.6-x86/lib/libcsr_dhcp_server_lib.a(csr_dhcp_server_lib_priv.o)
 .debug_loc     0x000000000000a7d4       0xa8 ../output/default/pclin-2.6-x86/lib/libcsr_tftp.a(csr_tftp_handler.o)
 .debug_loc     0x000000000000a87c      0x658 ../output/default/pclin-2.6-x86/lib/libcsr_tftp.a(csr_tftp_sef.o)
 .debug_loc     0x000000000000aed4       0x38 ../output/default/pclin-2.6-x86/lib/libcsr_tftp_lib.a(csr_tftp_free_down.o)
 .debug_loc     0x000000000000af0c      0x150 ../output/default/pclin-2.6-x86/lib/libcsr_tftp_lib.a(csr_tftp_lib_priv.o)
 .debug_loc     0x000000000000b05c       0xa8 ../output/default/pclin-2.6-x86/lib/libcsr_tftp_file.a(csr_tftp_file_handler.o)
 .debug_loc     0x000000000000b104      0x348 ../output/default/pclin-2.6-x86/lib/libcsr_tftp_file.a(csr_tftp_file_sef.o)
 .debug_loc     0x000000000000b44c       0xa8 ../output/default/pclin-2.6-x86/lib/libcsr_fsal.a(csr_fsal_handler.o)
 .debug_loc     0x000000000000b4f4      0x850 ../output/default/pclin-2.6-x86/lib/libcsr_fsal.a(csr_fsal_sef.o)
 .debug_loc     0x000000000000bd44       0xe0 ../output/default/pclin-2.6-x86/lib/libcsr_fsal.a(csr_fsal_sef_utils.o)
 .debug_loc     0x000000000000be24      0x428 ../output/default/pclin-2.6-x86/lib/libcsr_fsal.a(csr_fsal_utils.o)
 .debug_loc     0x000000000000c24c       0x38 ../output/default/pclin-2.6-x86/lib/libcsr_fsal_lib.a(csr_fsal_free_up.o)
 .debug_loc     0x000000000000c284       0x38 ../output/default/pclin-2.6-x86/lib/libcsr_fsal_lib.a(csr_fsal_free_down.o)
 .debug_loc     0x000000000000c2bc      0x3f0 ../output/default/pclin-2.6-x86/lib/libcsr_fsal_lib.a(csr_fsal_lib.o)
 .debug_loc     0x000000000000c6ac      0x3f0 ../output/default/pclin-2.6-x86/lib/libcsr_fsal_lib.a(csr_fsal_lib_priv.o)
 .debug_loc     0x000000000000ca9c      0x380 ../output/default/pclin-2.6-x86/lib/libcsr_list.a(csr_list.o)
 .debug_loc     0x000000000000ce1c       0xa8 ../output/default/pclin-2.6-x86/lib/libcsr_message_queue.a(csr_message_queue.o)
 .debug_loc     0x000000000000cec4       0x38 ../output/default/pclin-2.6-x86/lib/libcsr_formatted_io.a(csr_formatted_io.o)
 .debug_loc     0x000000000000cefc      0x508 ../output/default/pclin-2.6-x86/lib/libcsr_unicode.a(csr_utf16.o)
 .debug_loc     0x000000000000d404      0x428 ../output/default/pclin-2.6-x86/lib/libcsr_mblk.a(csr_mblk.o)
 .debug_loc     0x000000000000d82c      0x118 ../output/default/pclin-2.6-x86/lib/libcsr_mblk.a(csr_mblk_duplicate.o)
 .debug_loc     0x000000000000d944      0x268 ../output/default/pclin-2.6-x86/lib/libcsr_mblk.a(csr_mblk_pmalloc.o)
 .debug_loc     0x000000000000dbac       0x38 ../output/default/pclin-2.6-x86/lib/libcsr_mblk.a(csr_mblk_read_head.o)
 .debug_loc     0x000000000000dbe4      0x268 ../output/default/pclin-2.6-x86/lib/libcsr_bcsp.a(csr_abcsp_transport.o)
 .debug_loc     0x000000000000de4c       0xa8 ../output/default/pclin-2.6-x86/lib/libcsr_bcsp.a(csr_abcsp_init_c.o)
 .debug_loc     0x000000000000def4       0x38 ../output/default/pclin-2.6-x86/lib/libcsr_bcsp.a(csr_abcsp_events.o)
 .debug_loc     0x000000000000df2c       0xe0 ../output/default/pclin-2.6-x86/lib/libcsr_bcsp.a(csr_abcsp_rd_hl.o)
 .debug_loc     0x000000000000e00c      0x1c0 ../output/default/pclin-2.6-x86/lib/libcsr_bcsp.a(csr_abcsp_le.o)
 .debug_loc     0x000000000000e1cc      0x150 ../output/default/pclin-2.6-x86/lib/libcsr_bcsp.a(csr_abcsp_rx.o)
 .debug_loc     0x000000000000e31c      0x2d8 ../output/default/pclin-2.6-x86/lib/libcsr_bcsp.a(csr_abcsp_txmsg.o)
 .debug_loc     0x000000000000e5f4      0x150 ../output/default/pclin-2.6-x86/lib/libcsr_bcsp.a(csr_abcsp_tx_rx_msg_intf.o)
 .debug_loc     0x000000000000e744      0x150 ../output/default/pclin-2.6-x86/lib/libcsr_bcsp.a(csr_abcsp_txslip.o)
 .debug_loc     0x000000000000e894      0x1f8 ../output/default/pclin-2.6-x86/lib/libcsr_bcsp.a(csr_abcsp_timers.o)
 .debug_loc     0x000000000000ea8c       0x70 ../output/default/pclin-2.6-x86/lib/libcsr_bcsp.a(csr_abcsp_tx_handle.o)
 .debug_loc     0x000000000000eafc       0xe0 ../output/default/pclin-2.6-x86/lib/libcsr_bcsp.a(csr_abcsp_crc.o)
 .debug_loc     0x000000000000ebdc      0x268 ../output/default/pclin-2.6-x86/lib/libcsr_h4ds.a(csr_h4ds_transport.o)
 .debug_loc     0x000000000000ee44      0x118 ../output/default/pclin-2.6-x86/lib/libcsr_h4ds.a(csr_h4ds_initialize.o)
 .debug_loc     0x000000000000ef5c       0xa8 ../output/default/pclin-2.6-x86/lib/libcsr_h4ds.a(csr_h4ds_pump_msg.o)
 .debug_loc     0x000000000000f004       0x38 ../output/default/pclin-2.6-x86/lib/libcsr_h4ds.a(csr_h4ds_init.o)
 .debug_loc     0x000000000000f03c      0x1c0 ../output/default/pclin-2.6-x86/lib/libcsr_h4ds.a(csr_h4ds_le.o)
 .debug_loc     0x000000000000f1fc      0x498 ../output/default/pclin-2.6-x86/lib/libcsr_h4ds.a(csr_h4ds_tx.o)
 .debug_loc     0x000000000000f694      0x460 ../output/default/pclin-2.6-x86/lib/libcsr_h4ds.a(csr_h4ds_ds.o)
 .debug_loc     0x000000000000faf4       0xe0 ../output/default/pclin-2.6-x86/lib/libcsr_h4ds.a(csr_h4ds_rx.o)
 .debug_loc     0x000000000000fbd4       0xa8 ../output/default/pclin-2.6-x86/lib/libcsr_h4ds.a(csr_h4ds_pump.o)
 .debug_loc     0x000000000000fc7c       0x38 ../output/default/pclin-2.6-x86/lib/libcsr_h4ds.a(csr_h4_events.o)
 .debug_loc     0x000000000000fcb4       0x38 ../output/default/pclin-2.6-x86/lib/libcsr_h4ds.a(csr_h4_int_handle.o)
 .debug_loc     0x000000000000fcec      0x118 ../output/default/pclin-2.6-x86/lib/libcsr_h4ds.a(csr_h4_tx.o)
 .debug_loc     0x000000000000fe04       0x70 ../output/default/pclin-2.6-x86/lib/libcsr_h4ds.a(csr_h4_rx.o)
 .debug_loc     0x000000000000fe74       0x70 ../output/default/pclin-2.6-x86/lib/libcsr_h4ds.a(csr_h4ds_event.o)
 .debug_loc     0x000000000000fee4      0x348 ../output/default/pclin-2.6-x86/lib/libcsr_h4ds.a(csr_h4ds_timers.o)
 .debug_loc     0x000000000001022c      0x1c0 ../output/default/pclin-2.6-x86/lib/libcsr_h4ds.a(csr_h4ds_low_level_transport.o)
 .debug_loc     0x00000000000103ec       0x38 ../output/default/pclin-2.6-x86/lib/libcsr_h4ds.a(csr_h4ds_tx_handle.o)
 .debug_loc     0x0000000000010424       0xa8 ../output/default/pclin-2.6-x86/lib/libcsr_h4ds.a(csr_h4ds_scanner.o)
 .debug_loc     0x00000000000104cc      0x188 ../output/default/pclin-2.6-x86/lib/libcsr_queue_lib.a(csr_queue_lib.o)
 .debug_loc     0x0000000000010654      0x690 ../bsp/ports/pclin/output/default/pclin-2.6-x86/lib/libcsr_util.a(csr_util.o)
 .debug_loc     0x0000000000010ce4       0xe0 ../bsp/ports/pclin/output/default/pclin-2.6-x86/lib/libcsr_pmem.a(csr_pmem.o)
 .debug_loc     0x0000000000010dc4       0x70 ../bsp/ports/pclin/output/default/pclin-2.6-x86/lib/libcsr_time.a(csr_time.o)
 .debug_loc     0x0000000000010e34       0x64 ../bsp/ports/pclin/output/default/pclin-2.6-x86/lib/libcsr_panic.a(csr_panic.o)
 .debug_loc     0x0000000000010e98      0x380 ../bsp/ports/pclin/output/default/pclin-2.6-x86/lib/libcsr_ser_com.a(csr_serial_com.o)
 .debug_loc     0x0000000000011218      0x1c0 ../bsp/ports/pclin/output/default/pclin-2.6-x86/lib/libcsr_usb_com.a(csr_usb_com.o)
 .debug_loc     0x00000000000113d8      0x428 ../bsp/ports/pclin/output/default/pclin-2.6-x86/lib/libcsr_framework_ext.a(csr_framework_ext.o)
 .debug_loc     0x0000000000011800      0x578 ../bsp/ports/pclin/output/default/pclin-2.6-x86/lib/libcsr_fs.a(csr_posix_filesystem.o)
 .debug_loc     0x0000000000011d78      0x2a0 ../output/default/pclin-2.6-x86/lib/libcsr_usb.a(csr_usb_transport.o)
 .debug_loc     0x0000000000012018      0x620 ../output/default/pclin-2.6-x86/lib/libcsr_ui.a(csr_ui_lib.o)
 .debug_loc     0x0000000000012638       0x38 ../output/default/pclin-2.6-x86/lib/libcsr_ui.a(csr_ui_free_up.o)
 .debug_loc     0x0000000000012670       0xa8 ../output/default/pclin-2.6-x86/lib/libcsr_app.a(csr_app_lib.o)
 .debug_loc     0x0000000000012718       0x70 ../output/default/pclin-2.6-x86/lib/libcsr_random.a(csr_random.o)
 .debug_loc     0x0000000000012788       0x70 ../output/default/pclin-2.6-x86/lib/libcsr_tm_bluecore.a(csr_tm_bluecore_lib.o)
 .debug_loc     0x00000000000127f8       0x70 ../output/default/pclin-2.6-x86/lib/libcsr_tm_bluecore.a(csr_tm_bluecore_private_lib.o)
 .debug_loc     0x0000000000012868       0x38 ../output/default/pclin-2.6-x86/lib/libcsr_tftp_lib.a(csr_tftp_free_up.o)
 .debug_loc     0x00000000000128a0      0x118 ../output/default/pclin-2.6-x86/lib/libcsr_tftp_lib.a(csr_tftp_lib.o)

.debug_macinfo
 *(.debug_macinfo)

.debug_weaknames
 *(.debug_weaknames)

.debug_funcnames
 *(.debug_funcnames)

.debug_typenames
 *(.debug_typenames)

.debug_varnames
 *(.debug_varnames)

.debug_pubtypes
 *(.debug_pubtypes)

.debug_ranges   0x0000000000000000      0x648
 *(.debug_ranges)
 .debug_ranges  0x0000000000000000       0x18 ../output/default/pclin-2.6-x86/lib/libcsr_ui.a(csr_ui_ctrl.o)
 .debug_ranges  0x0000000000000018       0x60 ../output/default/pclin-2.6-x86/lib/libcsr_ui.a(csr_ui_keyhandler.o)
 .debug_ranges  0x0000000000000078       0x18 ../output/default/pclin-2.6-x86/lib/libcsr_ui.a(csr_ui_renderer_text.o)
 .debug_ranges  0x0000000000000090       0x30 ../output/default/pclin-2.6-x86/lib/libcsr_app.a(csr_app_handler.o)
 .debug_ranges  0x00000000000000c0       0x18 ../output/default/pclin-2.6-x86/lib/libcsr_app.a(csr_app_ui_sef.o)
 .debug_ranges  0x00000000000000d8       0x18 ../output/default/pclin-2.6-x86/lib/libcsr_bccmd.a(csr_bccmd_sef.o)
 .debug_ranges  0x00000000000000f0       0x30 ../output/default/pclin-2.6-x86/lib/libcsr_fastpipe.a(csr_fp_sef.o)
 .debug_ranges  0x0000000000000120       0x18 ../output/default/pclin-2.6-x86/lib/libcsr_am.a(csr_am_handler.o)
 .debug_ranges  0x0000000000000138       0xa0 ../output/default/pclin-2.6-x86/lib/libcsr_am.a(csr_am_util.o)
 .debug_ranges  0x00000000000001d8       0x18 ../output/default/pclin-2.6-x86/lib/libcsr_am.a(csr_am_sef.o)
 .debug_ranges  0x00000000000001f0       0x18 ../output/default/pclin-2.6-x86/lib/libcsr_hci.a(csr_hci_handler.o)
 .debug_ranges  0x0000000000000208       0x48 ../output/default/pclin-2.6-x86/lib/libcsr_hci.a(csr_hci_sef.o)
 .debug_ranges  0x0000000000000250       0x48 ../output/default/pclin-2.6-x86/lib/libcsr_bluecore_manager.a(csr_bluecore_manager_handler.o)
 .debug_ranges  0x0000000000000298       0x78 ../output/default/pclin-2.6-x86/lib/libcsr_ethernet_manager.a(csr_ethernet_manager.o)
 .debug_ranges  0x0000000000000310       0x48 ../output/default/pclin-2.6-x86/lib/libcsr_tcp_transceiver.a(csr_tcp_transceiver_handler.o)
 .debug_ranges  0x0000000000000358       0x48 ../bsp/ports/pclin/output/default/pclin-2.6-x86/lib/libcsr_ip.a(csr_ip_handler.o)
 .debug_ranges  0x00000000000003a0       0x48 ../bsp/ports/pclin/output/default/pclin-2.6-x86/lib/libcsr_ip.a(csr_ip_ifconfig_sef.o)
 .debug_ranges  0x00000000000003e8       0x18 ../bsp/ports/pclin/output/default/pclin-2.6-x86/lib/libcsr_ip.a(csr_ip_netlink_parser.o)
 .debug_ranges  0x0000000000000400       0x30 ../bsp/ports/pclin/output/default/pclin-2.6-x86/lib/libcsr_ip.a(csr_ip_socket_sef.o)
 .debug_ranges  0x0000000000000430       0x20 ../bsp/ports/pclin/output/default/pclin-2.6-x86/lib/libcsr_ip.a(csr_ip_thread.o)
 .debug_ranges  0x0000000000000450       0xa8 ../output/default/pclin-2.6-x86/lib/libcsr_dhcp_server_manager.a(csr_dhcp_server_manager.o)
 .debug_ranges  0x00000000000004f8       0x18 ../output/default/pclin-2.6-x86/lib/libcsr_dhcp_server.a(csr_dhcp_server_handler.o)
 .debug_ranges  0x0000000000000510       0x30 ../output/default/pclin-2.6-x86/lib/libcsr_dhcp_server.a(csr_dhcp_server_util.o)
 .debug_ranges  0x0000000000000540       0x18 ../output/default/pclin-2.6-x86/lib/libcsr_tftp.a(csr_tftp_handler.o)
 .debug_ranges  0x0000000000000558       0x18 ../output/default/pclin-2.6-x86/lib/libcsr_tftp_file.a(csr_tftp_file_handler.o)
 .debug_ranges  0x0000000000000570       0x30 ../output/default/pclin-2.6-x86/lib/libcsr_unicode.a(csr_utf16.o)
 .debug_ranges  0x00000000000005a0       0x60 ../output/default/pclin-2.6-x86/lib/libcsr_mblk.a(csr_mblk.o)
 .debug_ranges  0x0000000000000600       0x18 ../output/default/pclin-2.6-x86/lib/libcsr_mblk.a(csr_mblk_read_head.o)
 .debug_ranges  0x0000000000000618       0x18 ../output/default/pclin-2.6-x86/lib/libcsr_bcsp.a(csr_abcsp_txmsg.o)
 .debug_ranges  0x0000000000000630       0x18 ../bsp/ports/pclin/output/default/pclin-2.6-x86/lib/libcsr_usb_com.a(csr_usb_com.o)

.gnu.attributes
 *(.gnu.attributes)

/DISCARD/
 *(.note.GNU-stack)
 *(.gnu_debuglink)
 *(.gnu.lto_*)
OUTPUT(output/default/pclin-2.6-x86/bin/framework_example_app elf32-i386)
