Archive member included because of file (symbol)

/home6/daewon2/Release/glibc/SP/SP_Linux/LP_Linux_Prj/REL/VDLinux.3.x.2012/toolchain/src/arm-mips-src-20121018/build.arm.cortex-a15/obj/glibc_0_final/libc_pic.a(check_fds.os)
                              /home6/daewon2/Release/glibc/SP/SP_Linux/LP_Linux_Prj/REL/VDLinux.3.x.2012/toolchain/src/arm-mips-src-20121018/build.arm.cortex-a15/obj/glibc_0_final/elf/dl-allobjs.os (__libc_check_standard_fds)
/home6/daewon2/Release/glibc/SP/SP_Linux/LP_Linux_Prj/REL/VDLinux.3.x.2012/toolchain/src/arm-mips-src-20121018/build.arm.cortex-a15/obj/glibc_0_final/libc_pic.a(errno.os)
                              /home6/daewon2/Release/glibc/SP/SP_Linux/LP_Linux_Prj/REL/VDLinux.3.x.2012/toolchain/src/arm-mips-src-20121018/build.arm.cortex-a15/obj/glibc_0_final/libc_pic.a(check_fds.os) (__libc_errno)
/home6/daewon2/Release/glibc/SP/SP_Linux/LP_Linux_Prj/REL/VDLinux.3.x.2012/toolchain/src/arm-mips-src-20121018/build.arm.cortex-a15/obj/glibc_0_final/libc_pic.a(divdi3.os)
                              /home6/daewon2/Release/glibc/SP/SP_Linux/LP_Linux_Prj/REL/VDLinux.3.x.2012/toolchain/src/arm-mips-src-20121018/build.arm.cortex-a15/obj/glibc_0_final/libc_pic.a(check_fds.os) (__divdi3_internal)
/home6/daewon2/Release/glibc/SP/SP_Linux/LP_Linux_Prj/REL/VDLinux.3.x.2012/toolchain/src/arm-mips-src-20121018/build.arm.cortex-a15/obj/glibc_0_final/libc_pic.a(setjmp.os)
                              /home6/daewon2/Release/glibc/SP/SP_Linux/LP_Linux_Prj/REL/VDLinux.3.x.2012/toolchain/src/arm-mips-src-20121018/build.arm.cortex-a15/obj/glibc_0_final/elf/dl-allobjs.os (__sigsetjmp)
/home6/daewon2/Release/glibc/SP/SP_Linux/LP_Linux_Prj/REL/VDLinux.3.x.2012/toolchain/src/arm-mips-src-20121018/build.arm.cortex-a15/obj/glibc_0_final/libc_pic.a(__longjmp.os)
                              /home6/daewon2/Release/glibc/SP/SP_Linux/LP_Linux_Prj/REL/VDLinux.3.x.2012/toolchain/src/arm-mips-src-20121018/build.arm.cortex-a15/obj/glibc_0_final/elf/dl-allobjs.os (__longjmp)
/home6/daewon2/Release/glibc/SP/SP_Linux/LP_Linux_Prj/REL/VDLinux.3.x.2012/toolchain/src/arm-mips-src-20121018/build.arm.cortex-a15/obj/glibc_0_final/libc_pic.a(strchr.os)
                              /home6/daewon2/Release/glibc/SP/SP_Linux/LP_Linux_Prj/REL/VDLinux.3.x.2012/toolchain/src/arm-mips-src-20121018/build.arm.cortex-a15/obj/glibc_0_final/elf/dl-allobjs.os (strchr)
/home6/daewon2/Release/glibc/SP/SP_Linux/LP_Linux_Prj/REL/VDLinux.3.x.2012/toolchain/src/arm-mips-src-20121018/build.arm.cortex-a15/obj/glibc_0_final/libc_pic.a(strcmp.os)
                              /home6/daewon2/Release/glibc/SP/SP_Linux/LP_Linux_Prj/REL/VDLinux.3.x.2012/toolchain/src/arm-mips-src-20121018/build.arm.cortex-a15/obj/glibc_0_final/elf/dl-allobjs.os (strcmp)
/home6/daewon2/Release/glibc/SP/SP_Linux/LP_Linux_Prj/REL/VDLinux.3.x.2012/toolchain/src/arm-mips-src-20121018/build.arm.cortex-a15/obj/glibc_0_final/libc_pic.a(strcpy.os)
                              /home6/daewon2/Release/glibc/SP/SP_Linux/LP_Linux_Prj/REL/VDLinux.3.x.2012/toolchain/src/arm-mips-src-20121018/build.arm.cortex-a15/obj/glibc_0_final/elf/dl-allobjs.os (strcpy)
/home6/daewon2/Release/glibc/SP/SP_Linux/LP_Linux_Prj/REL/VDLinux.3.x.2012/toolchain/src/arm-mips-src-20121018/build.arm.cortex-a15/obj/glibc_0_final/libc_pic.a(strlen.os)
                              /home6/daewon2/Release/glibc/SP/SP_Linux/LP_Linux_Prj/REL/VDLinux.3.x.2012/toolchain/src/arm-mips-src-20121018/build.arm.cortex-a15/obj/glibc_0_final/elf/dl-allobjs.os (strlen)
/home6/daewon2/Release/glibc/SP/SP_Linux/LP_Linux_Prj/REL/VDLinux.3.x.2012/toolchain/src/arm-mips-src-20121018/build.arm.cortex-a15/obj/glibc_0_final/libc_pic.a(strnlen.os)
                              /home6/daewon2/Release/glibc/SP/SP_Linux/LP_Linux_Prj/REL/VDLinux.3.x.2012/toolchain/src/arm-mips-src-20121018/build.arm.cortex-a15/obj/glibc_0_final/elf/dl-allobjs.os (strnlen)
/home6/daewon2/Release/glibc/SP/SP_Linux/LP_Linux_Prj/REL/VDLinux.3.x.2012/toolchain/src/arm-mips-src-20121018/build.arm.cortex-a15/obj/glibc_0_final/libc_pic.a(memchr.os)
                              /home6/daewon2/Release/glibc/SP/SP_Linux/LP_Linux_Prj/REL/VDLinux.3.x.2012/toolchain/src/arm-mips-src-20121018/build.arm.cortex-a15/obj/glibc_0_final/elf/dl-allobjs.os (memchr)
/home6/daewon2/Release/glibc/SP/SP_Linux/LP_Linux_Prj/REL/VDLinux.3.x.2012/toolchain/src/arm-mips-src-20121018/build.arm.cortex-a15/obj/glibc_0_final/libc_pic.a(memcmp.os)
                              /home6/daewon2/Release/glibc/SP/SP_Linux/LP_Linux_Prj/REL/VDLinux.3.x.2012/toolchain/src/arm-mips-src-20121018/build.arm.cortex-a15/obj/glibc_0_final/elf/dl-allobjs.os (memcmp)
/home6/daewon2/Release/glibc/SP/SP_Linux/LP_Linux_Prj/REL/VDLinux.3.x.2012/toolchain/src/arm-mips-src-20121018/build.arm.cortex-a15/obj/glibc_0_final/libc_pic.a(memmove.os)
                              /home6/daewon2/Release/glibc/SP/SP_Linux/LP_Linux_Prj/REL/VDLinux.3.x.2012/toolchain/src/arm-mips-src-20121018/build.arm.cortex-a15/obj/glibc_0_final/elf/dl-allobjs.os (memmove)
/home6/daewon2/Release/glibc/SP/SP_Linux/LP_Linux_Prj/REL/VDLinux.3.x.2012/toolchain/src/arm-mips-src-20121018/build.arm.cortex-a15/obj/glibc_0_final/libc_pic.a(memset.os)
                              /home6/daewon2/Release/glibc/SP/SP_Linux/LP_Linux_Prj/REL/VDLinux.3.x.2012/toolchain/src/arm-mips-src-20121018/build.arm.cortex-a15/obj/glibc_0_final/elf/dl-allobjs.os (memset)
/home6/daewon2/Release/glibc/SP/SP_Linux/LP_Linux_Prj/REL/VDLinux.3.x.2012/toolchain/src/arm-mips-src-20121018/build.arm.cortex-a15/obj/glibc_0_final/libc_pic.a(mempcpy.os)
                              /home6/daewon2/Release/glibc/SP/SP_Linux/LP_Linux_Prj/REL/VDLinux.3.x.2012/toolchain/src/arm-mips-src-20121018/build.arm.cortex-a15/obj/glibc_0_final/elf/dl-allobjs.os (__mempcpy)
/home6/daewon2/Release/glibc/SP/SP_Linux/LP_Linux_Prj/REL/VDLinux.3.x.2012/toolchain/src/arm-mips-src-20121018/build.arm.cortex-a15/obj/glibc_0_final/libc_pic.a(stpcpy.os)
                              /home6/daewon2/Release/glibc/SP/SP_Linux/LP_Linux_Prj/REL/VDLinux.3.x.2012/toolchain/src/arm-mips-src-20121018/build.arm.cortex-a15/obj/glibc_0_final/elf/dl-allobjs.os (__stpcpy)
/home6/daewon2/Release/glibc/SP/SP_Linux/LP_Linux_Prj/REL/VDLinux.3.x.2012/toolchain/src/arm-mips-src-20121018/build.arm.cortex-a15/obj/glibc_0_final/libc_pic.a(memcpy.os)
                              /home6/daewon2/Release/glibc/SP/SP_Linux/LP_Linux_Prj/REL/VDLinux.3.x.2012/toolchain/src/arm-mips-src-20121018/build.arm.cortex-a15/obj/glibc_0_final/elf/dl-allobjs.os (memcpy)
/home6/daewon2/Release/glibc/SP/SP_Linux/LP_Linux_Prj/REL/VDLinux.3.x.2012/toolchain/src/arm-mips-src-20121018/build.arm.cortex-a15/obj/glibc_0_final/libc_pic.a(wordcopy.os)
                              /home6/daewon2/Release/glibc/SP/SP_Linux/LP_Linux_Prj/REL/VDLinux.3.x.2012/toolchain/src/arm-mips-src-20121018/build.arm.cortex-a15/obj/glibc_0_final/libc_pic.a(mempcpy.os) (_wordcopy_fwd_aligned)
/home6/daewon2/Release/glibc/SP/SP_Linux/LP_Linux_Prj/REL/VDLinux.3.x.2012/toolchain/src/arm-mips-src-20121018/build.arm.cortex-a15/obj/glibc_0_final/libc_pic.a(rawmemchr.os)
                              /home6/daewon2/Release/glibc/SP/SP_Linux/LP_Linux_Prj/REL/VDLinux.3.x.2012/toolchain/src/arm-mips-src-20121018/build.arm.cortex-a15/obj/glibc_0_final/elf/dl-allobjs.os (rawmemchr)
/home6/daewon2/Release/glibc/SP/SP_Linux/LP_Linux_Prj/REL/VDLinux.3.x.2012/toolchain/src/arm-mips-src-20121018/build.arm.cortex-a15/obj/glibc_0_final/libc_pic.a(closedir.os)
                              /home6/daewon2/Release/glibc/SP/SP_Linux/LP_Linux_Prj/REL/VDLinux.3.x.2012/toolchain/src/arm-mips-src-20121018/build.arm.cortex-a15/obj/glibc_0_final/elf/dl-allobjs.os (__closedir)
/home6/daewon2/Release/glibc/SP/SP_Linux/LP_Linux_Prj/REL/VDLinux.3.x.2012/toolchain/src/arm-mips-src-20121018/build.arm.cortex-a15/obj/glibc_0_final/libc_pic.a(readdir.os)
                              /home6/daewon2/Release/glibc/SP/SP_Linux/LP_Linux_Prj/REL/VDLinux.3.x.2012/toolchain/src/arm-mips-src-20121018/build.arm.cortex-a15/obj/glibc_0_final/elf/dl-allobjs.os (__readdir)
/home6/daewon2/Release/glibc/SP/SP_Linux/LP_Linux_Prj/REL/VDLinux.3.x.2012/toolchain/src/arm-mips-src-20121018/build.arm.cortex-a15/obj/glibc_0_final/libc_pic.a(rewinddir.os)
                              /home6/daewon2/Release/glibc/SP/SP_Linux/LP_Linux_Prj/REL/VDLinux.3.x.2012/toolchain/src/arm-mips-src-20121018/build.arm.cortex-a15/obj/glibc_0_final/elf/dl-allobjs.os (rewinddir)
/home6/daewon2/Release/glibc/SP/SP_Linux/LP_Linux_Prj/REL/VDLinux.3.x.2012/toolchain/src/arm-mips-src-20121018/build.arm.cortex-a15/obj/glibc_0_final/libc_pic.a(getdents.os)
                              /home6/daewon2/Release/glibc/SP/SP_Linux/LP_Linux_Prj/REL/VDLinux.3.x.2012/toolchain/src/arm-mips-src-20121018/build.arm.cortex-a15/obj/glibc_0_final/libc_pic.a(readdir.os) (__getdents)
/home6/daewon2/Release/glibc/SP/SP_Linux/LP_Linux_Prj/REL/VDLinux.3.x.2012/toolchain/src/arm-mips-src-20121018/build.arm.cortex-a15/obj/glibc_0_final/libc_pic.a(fdopendir.os)
                              /home6/daewon2/Release/glibc/SP/SP_Linux/LP_Linux_Prj/REL/VDLinux.3.x.2012/toolchain/src/arm-mips-src-20121018/build.arm.cortex-a15/obj/glibc_0_final/elf/dl-allobjs.os (__fdopendir)
/home6/daewon2/Release/glibc/SP/SP_Linux/LP_Linux_Prj/REL/VDLinux.3.x.2012/toolchain/src/arm-mips-src-20121018/build.arm.cortex-a15/obj/glibc_0_final/libc_pic.a(uname.os)
                              /home6/daewon2/Release/glibc/SP/SP_Linux/LP_Linux_Prj/REL/VDLinux.3.x.2012/toolchain/src/arm-mips-src-20121018/build.arm.cortex-a15/obj/glibc_0_final/elf/dl-allobjs.os (__uname)
/home6/daewon2/Release/glibc/SP/SP_Linux/LP_Linux_Prj/REL/VDLinux.3.x.2012/toolchain/src/arm-mips-src-20121018/build.arm.cortex-a15/obj/glibc_0_final/libc_pic.a(_exit.os)
                              /home6/daewon2/Release/glibc/SP/SP_Linux/LP_Linux_Prj/REL/VDLinux.3.x.2012/toolchain/src/arm-mips-src-20121018/build.arm.cortex-a15/obj/glibc_0_final/elf/dl-allobjs.os (_exit)
/home6/daewon2/Release/glibc/SP/SP_Linux/LP_Linux_Prj/REL/VDLinux.3.x.2012/toolchain/src/arm-mips-src-20121018/build.arm.cortex-a15/obj/glibc_0_final/libc_pic.a(getpid.os)
                              /home6/daewon2/Release/glibc/SP/SP_Linux/LP_Linux_Prj/REL/VDLinux.3.x.2012/toolchain/src/arm-mips-src-20121018/build.arm.cortex-a15/obj/glibc_0_final/elf/dl-allobjs.os (__getpid)
/home6/daewon2/Release/glibc/SP/SP_Linux/LP_Linux_Prj/REL/VDLinux.3.x.2012/toolchain/src/arm-mips-src-20121018/build.arm.cortex-a15/obj/glibc_0_final/libc_pic.a(environ.os)
                              /home6/daewon2/Release/glibc/SP/SP_Linux/LP_Linux_Prj/REL/VDLinux.3.x.2012/toolchain/src/arm-mips-src-20121018/build.arm.cortex-a15/obj/glibc_0_final/elf/dl-allobjs.os (__environ)
/home6/daewon2/Release/glibc/SP/SP_Linux/LP_Linux_Prj/REL/VDLinux.3.x.2012/toolchain/src/arm-mips-src-20121018/build.arm.cortex-a15/obj/glibc_0_final/libc_pic.a(xstat64.os)
                              /home6/daewon2/Release/glibc/SP/SP_Linux/LP_Linux_Prj/REL/VDLinux.3.x.2012/toolchain/src/arm-mips-src-20121018/build.arm.cortex-a15/obj/glibc_0_final/elf/dl-allobjs.os (__GI___xstat64)
/home6/daewon2/Release/glibc/SP/SP_Linux/LP_Linux_Prj/REL/VDLinux.3.x.2012/toolchain/src/arm-mips-src-20121018/build.arm.cortex-a15/obj/glibc_0_final/libc_pic.a(fxstat64.os)
                              /home6/daewon2/Release/glibc/SP/SP_Linux/LP_Linux_Prj/REL/VDLinux.3.x.2012/toolchain/src/arm-mips-src-20121018/build.arm.cortex-a15/obj/glibc_0_final/elf/dl-allobjs.os (__GI___fxstat64)
/home6/daewon2/Release/glibc/SP/SP_Linux/LP_Linux_Prj/REL/VDLinux.3.x.2012/toolchain/src/arm-mips-src-20121018/build.arm.cortex-a15/obj/glibc_0_final/libc_pic.a(lxstat64.os)
                              /home6/daewon2/Release/glibc/SP/SP_Linux/LP_Linux_Prj/REL/VDLinux.3.x.2012/toolchain/src/arm-mips-src-20121018/build.arm.cortex-a15/obj/glibc_0_final/elf/dl-allobjs.os (__GI___lxstat64)
/home6/daewon2/Release/glibc/SP/SP_Linux/LP_Linux_Prj/REL/VDLinux.3.x.2012/toolchain/src/arm-mips-src-20121018/build.arm.cortex-a15/obj/glibc_0_final/libc_pic.a(open.os)
                              /home6/daewon2/Release/glibc/SP/SP_Linux/LP_Linux_Prj/REL/VDLinux.3.x.2012/toolchain/src/arm-mips-src-20121018/build.arm.cortex-a15/obj/glibc_0_final/elf/dl-allobjs.os (__open)
/home6/daewon2/Release/glibc/SP/SP_Linux/LP_Linux_Prj/REL/VDLinux.3.x.2012/toolchain/src/arm-mips-src-20121018/build.arm.cortex-a15/obj/glibc_0_final/libc_pic.a(close.os)
                              /home6/daewon2/Release/glibc/SP/SP_Linux/LP_Linux_Prj/REL/VDLinux.3.x.2012/toolchain/src/arm-mips-src-20121018/build.arm.cortex-a15/obj/glibc_0_final/elf/dl-allobjs.os (__close)
/home6/daewon2/Release/glibc/SP/SP_Linux/LP_Linux_Prj/REL/VDLinux.3.x.2012/toolchain/src/arm-mips-src-20121018/build.arm.cortex-a15/obj/glibc_0_final/libc_pic.a(read.os)
                              /home6/daewon2/Release/glibc/SP/SP_Linux/LP_Linux_Prj/REL/VDLinux.3.x.2012/toolchain/src/arm-mips-src-20121018/build.arm.cortex-a15/obj/glibc_0_final/elf/dl-allobjs.os (__libc_read)
/home6/daewon2/Release/glibc/SP/SP_Linux/LP_Linux_Prj/REL/VDLinux.3.x.2012/toolchain/src/arm-mips-src-20121018/build.arm.cortex-a15/obj/glibc_0_final/libc_pic.a(write.os)
                              /home6/daewon2/Release/glibc/SP/SP_Linux/LP_Linux_Prj/REL/VDLinux.3.x.2012/toolchain/src/arm-mips-src-20121018/build.arm.cortex-a15/obj/glibc_0_final/elf/dl-allobjs.os (__libc_write)
/home6/daewon2/Release/glibc/SP/SP_Linux/LP_Linux_Prj/REL/VDLinux.3.x.2012/toolchain/src/arm-mips-src-20121018/build.arm.cortex-a15/obj/glibc_0_final/libc_pic.a(lseek.os)
                              /home6/daewon2/Release/glibc/SP/SP_Linux/LP_Linux_Prj/REL/VDLinux.3.x.2012/toolchain/src/arm-mips-src-20121018/build.arm.cortex-a15/obj/glibc_0_final/elf/dl-allobjs.os (__lseek)
/home6/daewon2/Release/glibc/SP/SP_Linux/LP_Linux_Prj/REL/VDLinux.3.x.2012/toolchain/src/arm-mips-src-20121018/build.arm.cortex-a15/obj/glibc_0_final/libc_pic.a(access.os)
                              /home6/daewon2/Release/glibc/SP/SP_Linux/LP_Linux_Prj/REL/VDLinux.3.x.2012/toolchain/src/arm-mips-src-20121018/build.arm.cortex-a15/obj/glibc_0_final/elf/dl-allobjs.os (__access)
/home6/daewon2/Release/glibc/SP/SP_Linux/LP_Linux_Prj/REL/VDLinux.3.x.2012/toolchain/src/arm-mips-src-20121018/build.arm.cortex-a15/obj/glibc_0_final/libc_pic.a(fcntl.os)
                              /home6/daewon2/Release/glibc/SP/SP_Linux/LP_Linux_Prj/REL/VDLinux.3.x.2012/toolchain/src/arm-mips-src-20121018/build.arm.cortex-a15/obj/glibc_0_final/libc_pic.a(check_fds.os) (__GI___libc_fcntl)
/home6/daewon2/Release/glibc/SP/SP_Linux/LP_Linux_Prj/REL/VDLinux.3.x.2012/toolchain/src/arm-mips-src-20121018/build.arm.cortex-a15/obj/glibc_0_final/libc_pic.a(getpagesize.os)
                              /home6/daewon2/Release/glibc/SP/SP_Linux/LP_Linux_Prj/REL/VDLinux.3.x.2012/toolchain/src/arm-mips-src-20121018/build.arm.cortex-a15/obj/glibc_0_final/elf/dl-allobjs.os (getpagesize)
/home6/daewon2/Release/glibc/SP/SP_Linux/LP_Linux_Prj/REL/VDLinux.3.x.2012/toolchain/src/arm-mips-src-20121018/build.arm.cortex-a15/obj/glibc_0_final/libc_pic.a(mmap.os)
                              /home6/daewon2/Release/glibc/SP/SP_Linux/LP_Linux_Prj/REL/VDLinux.3.x.2012/toolchain/src/arm-mips-src-20121018/build.arm.cortex-a15/obj/glibc_0_final/elf/dl-allobjs.os (__mmap)
/home6/daewon2/Release/glibc/SP/SP_Linux/LP_Linux_Prj/REL/VDLinux.3.x.2012/toolchain/src/arm-mips-src-20121018/build.arm.cortex-a15/obj/glibc_0_final/libc_pic.a(munmap.os)
                              /home6/daewon2/Release/glibc/SP/SP_Linux/LP_Linux_Prj/REL/VDLinux.3.x.2012/toolchain/src/arm-mips-src-20121018/build.arm.cortex-a15/obj/glibc_0_final/elf/dl-allobjs.os (__munmap)
/home6/daewon2/Release/glibc/SP/SP_Linux/LP_Linux_Prj/REL/VDLinux.3.x.2012/toolchain/src/arm-mips-src-20121018/build.arm.cortex-a15/obj/glibc_0_final/libc_pic.a(mprotect.os)
                              /home6/daewon2/Release/glibc/SP/SP_Linux/LP_Linux_Prj/REL/VDLinux.3.x.2012/toolchain/src/arm-mips-src-20121018/build.arm.cortex-a15/obj/glibc_0_final/elf/dl-allobjs.os (__mprotect)
/home6/daewon2/Release/glibc/SP/SP_Linux/LP_Linux_Prj/REL/VDLinux.3.x.2012/toolchain/src/arm-mips-src-20121018/build.arm.cortex-a15/obj/glibc_0_final/libc_pic.a(profil.os)
                              /home6/daewon2/Release/glibc/SP/SP_Linux/LP_Linux_Prj/REL/VDLinux.3.x.2012/toolchain/src/arm-mips-src-20121018/build.arm.cortex-a15/obj/glibc_0_final/elf/dl-allobjs.os (__profil)
/home6/daewon2/Release/glibc/SP/SP_Linux/LP_Linux_Prj/REL/VDLinux.3.x.2012/toolchain/src/arm-mips-src-20121018/build.arm.cortex-a15/obj/glibc_0_final/libc_pic.a(prof-freq.os)
                              /home6/daewon2/Release/glibc/SP/SP_Linux/LP_Linux_Prj/REL/VDLinux.3.x.2012/toolchain/src/arm-mips-src-20121018/build.arm.cortex-a15/obj/glibc_0_final/libc_pic.a(profil.os) (__GI___profile_frequency)
/home6/daewon2/Release/glibc/SP/SP_Linux/LP_Linux_Prj/REL/VDLinux.3.x.2012/toolchain/src/arm-mips-src-20121018/build.arm.cortex-a15/obj/glibc_0_final/libc_pic.a(libc-lowlevellock.os)
                              /home6/daewon2/Release/glibc/SP/SP_Linux/LP_Linux_Prj/REL/VDLinux.3.x.2012/toolchain/src/arm-mips-src-20121018/build.arm.cortex-a15/obj/glibc_0_final/libc_pic.a(readdir.os) (__lll_lock_wait_private)
/home6/daewon2/Release/glibc/SP/SP_Linux/LP_Linux_Prj/REL/VDLinux.3.x.2012/toolchain/src/arm-mips-src-20121018/build.arm.cortex-a15/obj/glibc_0_final/libc_pic.a(libc-cancellation.os)
                              /home6/daewon2/Release/glibc/SP/SP_Linux/LP_Linux_Prj/REL/VDLinux.3.x.2012/toolchain/src/arm-mips-src-20121018/build.arm.cortex-a15/obj/glibc_0_final/libc_pic.a(open.os) (__libc_enable_asynccancel)
/home6/daewon2/Release/glibc/SP/SP_Linux/LP_Linux_Prj/REL/VDLinux.3.x.2012/toolchain/src/arm-mips-src-20121018/build.arm.cortex-a15/obj/glibc_0_final/libc_pic.a(libc_multiple_threads.os)
                              /home6/daewon2/Release/glibc/SP/SP_Linux/LP_Linux_Prj/REL/VDLinux.3.x.2012/toolchain/src/arm-mips-src-20121018/build.arm.cortex-a15/obj/glibc_0_final/libc_pic.a(open.os) (__libc_multiple_threads)
/home6/daewon2/Release/glibc/SP/SP_Linux/LP_Linux_Prj/REL/VDLinux.3.x.2012/toolchain/src/arm-mips-src-20121018/build.arm.cortex-a15/obj/glibc_0_final/libc_pic.a(sysdep.os)
                              /home6/daewon2/Release/glibc/SP/SP_Linux/LP_Linux_Prj/REL/VDLinux.3.x.2012/toolchain/src/arm-mips-src-20121018/build.arm.cortex-a15/obj/glibc_0_final/libc_pic.a(uname.os) (__syscall_error)
/home6/daewon2/Release/glibc/SP/SP_Linux/LP_Linux_Prj/REL/VDLinux.3.x.2012/toolchain/src/arm-mips-src-20121018/build.arm.cortex-a15/obj/glibc_0_final/libc_pic.a(sigaction.os)
                              /home6/daewon2/Release/glibc/SP/SP_Linux/LP_Linux_Prj/REL/VDLinux.3.x.2012/toolchain/src/arm-mips-src-20121018/build.arm.cortex-a15/obj/glibc_0_final/libc_pic.a(profil.os) (__GI___sigaction)
/home6/daewon2/Release/glibc/SP/SP_Linux/LP_Linux_Prj/REL/VDLinux.3.x.2012/toolchain/src/arm-mips-src-20121018/build.arm.cortex-a15/obj/glibc_0_final/libc_pic.a(sigrestorer.os)
                              /home6/daewon2/Release/glibc/SP/SP_Linux/LP_Linux_Prj/REL/VDLinux.3.x.2012/toolchain/src/arm-mips-src-20121018/build.arm.cortex-a15/obj/glibc_0_final/libc_pic.a(sigaction.os) (__default_sa_restorer_v1)
/home6/daewon2/Release/glibc/SP/SP_Linux/LP_Linux_Prj/REL/VDLinux.3.x.2012/toolchain/src/arm-mips-src-20121018/build.arm.cortex-a15/obj/glibc_0_final/libc_pic.a(setitimer.os)
                              /home6/daewon2/Release/glibc/SP/SP_Linux/LP_Linux_Prj/REL/VDLinux.3.x.2012/toolchain/src/arm-mips-src-20121018/build.arm.cortex-a15/obj/glibc_0_final/libc_pic.a(profil.os) (__setitimer)
/home6/daewon2/Release/glibc/SP/SP_Linux/LP_Linux_Prj/REL/VDLinux.3.x.2012/toolchain/src/arm-mips-src-20121018/build.arm.cortex-a15/obj/glibc_0_final/libc_pic.a(forward.os)
                              /home6/daewon2/Release/glibc/SP/SP_Linux/LP_Linux_Prj/REL/VDLinux.3.x.2012/toolchain/src/arm-mips-src-20121018/build.arm.cortex-a15/obj/glibc_0_final/libc_pic.a(libc-cancellation.os) (__pthread_unwind)
/home6/daewon2/Release/glibc/SP/SP_Linux/LP_Linux_Prj/REL/VDLinux.3.x.2012/toolchain/src/arm-mips-src-20121018/build.arm.cortex-a15/obj/glibc_0_final/libc_pic.a(exit.os)
                              /home6/daewon2/Release/glibc/SP/SP_Linux/LP_Linux_Prj/REL/VDLinux.3.x.2012/toolchain/src/arm-mips-src-20121018/build.arm.cortex-a15/obj/glibc_0_final/libc_pic.a(forward.os) (__GI_exit)
/home6/daewon2/Release/glibc/SP/SP_Linux/LP_Linux_Prj/REL/VDLinux.3.x.2012/toolchain/src/arm-mips-src-20121018/build.arm.cortex-a15/obj/glibc_0_final/libc_pic.a(cxa_atexit.os)
                              /home6/daewon2/Release/glibc/SP/SP_Linux/LP_Linux_Prj/REL/VDLinux.3.x.2012/toolchain/src/arm-mips-src-20121018/build.arm.cortex-a15/obj/glibc_0_final/libc_pic.a(exit.os) (__exit_funcs)
/home6/daewon2/Release/glibc/SP/SP_Linux/LP_Linux_Prj/REL/VDLinux.3.x.2012/toolchain/src/arm-mips-src-20121018/scripts/arm-v7a15v3r1/lib/gcc/arm-v7a15v3r1-linux-gnueabi/4.6.4/libgcc.a(_aeabi_uldivmod.o)
                              /home6/daewon2/Release/glibc/SP/SP_Linux/LP_Linux_Prj/REL/VDLinux.3.x.2012/toolchain/src/arm-mips-src-20121018/build.arm.cortex-a15/obj/glibc_0_final/elf/dl-allobjs.os (__aeabi_uldivmod)
/home6/daewon2/Release/glibc/SP/SP_Linux/LP_Linux_Prj/REL/VDLinux.3.x.2012/toolchain/src/arm-mips-src-20121018/scripts/arm-v7a15v3r1/lib/gcc/arm-v7a15v3r1-linux-gnueabi/4.6.4/libgcc.a(_dvmd_lnx.o)
                              /home6/daewon2/Release/glibc/SP/SP_Linux/LP_Linux_Prj/REL/VDLinux.3.x.2012/toolchain/src/arm-mips-src-20121018/scripts/arm-v7a15v3r1/lib/gcc/arm-v7a15v3r1-linux-gnueabi/4.6.4/libgcc.a(_aeabi_uldivmod.o) (__aeabi_ldiv0)
/home6/daewon2/Release/glibc/SP/SP_Linux/LP_Linux_Prj/REL/VDLinux.3.x.2012/toolchain/src/arm-mips-src-20121018/scripts/arm-v7a15v3r1/lib/gcc/arm-v7a15v3r1-linux-gnueabi/4.6.4/libgcc.a(bpabi.o)
                              /home6/daewon2/Release/glibc/SP/SP_Linux/LP_Linux_Prj/REL/VDLinux.3.x.2012/toolchain/src/arm-mips-src-20121018/scripts/arm-v7a15v3r1/lib/gcc/arm-v7a15v3r1-linux-gnueabi/4.6.4/libgcc.a(_aeabi_uldivmod.o) (__gnu_uldivmod_helper)
/home6/daewon2/Release/glibc/SP/SP_Linux/LP_Linux_Prj/REL/VDLinux.3.x.2012/toolchain/src/arm-mips-src-20121018/build.arm.cortex-a15/obj/glibc_0_final/libc_pic.a(raise.os)
                              /home6/daewon2/Release/glibc/SP/SP_Linux/LP_Linux_Prj/REL/VDLinux.3.x.2012/toolchain/src/arm-mips-src-20121018/scripts/arm-v7a15v3r1/lib/gcc/arm-v7a15v3r1-linux-gnueabi/4.6.4/libgcc.a(_dvmd_lnx.o) (raise)

Memory Configuration

Name             Origin             Length             Attributes
*default*        0x0000000000000000 0xffffffffffffffff

Linker script and memory map

START GROUP
LOAD /home6/daewon2/Release/glibc/SP/SP_Linux/LP_Linux_Prj/REL/VDLinux.3.x.2012/toolchain/src/arm-mips-src-20121018/build.arm.cortex-a15/obj/glibc_0_final/elf/dl-allobjs.os
LOAD /home6/daewon2/Release/glibc/SP/SP_Linux/LP_Linux_Prj/REL/VDLinux.3.x.2012/toolchain/src/arm-mips-src-20121018/build.arm.cortex-a15/obj/glibc_0_final/libc_pic.a
LOAD /home6/daewon2/Release/glibc/SP/SP_Linux/LP_Linux_Prj/REL/VDLinux.3.x.2012/toolchain/src/arm-mips-src-20121018/scripts/arm-v7a15v3r1/lib/gcc/arm-v7a15v3r1-linux-gnueabi/4.6.4/libgcc.a
END GROUP

.interp
 *(.interp)

.note.gnu.build-id
 *(.note.gnu.build-id)

.hash
 *(.hash)

.gnu.hash
 *(.gnu.hash)

.dynsym
 *(.dynsym)

.dynstr
 *(.dynstr)

.gnu.version
 *(.gnu.version)

.gnu.version_d
 *(.gnu.version_d)

.gnu.version_r
 *(.gnu.version_r)

.rel.init
 *(.rel.init)

.rela.init
 *(.rela.init)

.rel.text
 *(.rel.text)

.rela.text
 *(.rela.text)

.rel.fini
 *(.rel.fini)

.rela.fini
 *(.rela.fini)

.rel.rodata
 *(.rel.rodata)

.rela.rodata
 *(.rela.rodata)

.rel.data.rel.ro
 *(.rel.data.rel.ro)

.rela.data.rel.ro
 *(.rela.data.rel.ro)

.rel.data
 *(.rel.data)

.rela.data
 *(.rela.data)

.rel.tdata
 *(.rel.tdata)

.rela.tdata
 *(.rela.tdata)

.rel.tbss
 *(.rel.tbss)

.rela.tbss
 *(.rela.tbss)

.rel.ctors
 *(.rel.ctors)

.rela.ctors
 *(.rela.ctors)

.rel.dtors
 *(.rel.dtors)

.rela.dtors
 *(.rela.dtors)

.rel.got
 *(.rel.got)

.rela.got
 *(.rela.got)

.rel.bss
 *(.rel.bss)

.rela.bss
 *(.rela.bss)

.rel.iplt
 *(.rel.iplt)

.rela.iplt
 *(.rela.iplt)

.rel.plt
 *(.rel.plt)

.rela.plt
 *(.rela.plt)

.init
 *(.init)

.plt
 *(.plt)

.iplt
 *(.iplt)

.text           0x0000000000000000      0xe9c
 *(.text .stub)
 .text          0x0000000000000000      0x254 /home6/daewon2/Release/glibc/SP/SP_Linux/LP_Linux_Prj/REL/VDLinux.3.x.2012/toolchain/src/arm-mips-src-20121018/build.arm.cortex-a15/obj/glibc_0_final/elf/dl-allobjs.os
                0x0000000000000000                _start
                0x0000000000000010                _dl_start_user
                0x00000000000000b0                _dl_runtime_resolve
                0x00000000000000d4                _dl_runtime_profile
                0x00000000000001a0                __aeabi_read_tp
                0x00000000000001b0                _dl_tlsdesc_return
                0x00000000000001b8                _dl_tlsdesc_undefweak
                0x00000000000001cc                _dl_tlsdesc_dynamic
                0x0000000000000220                _dl_tlsdesc_lazy_resolver
                0x0000000000000238                _dl_tlsdesc_resolve_hold
 .text          0x0000000000000254        0x0 /home6/daewon2/Release/glibc/SP/SP_Linux/LP_Linux_Prj/REL/VDLinux.3.x.2012/toolchain/src/arm-mips-src-20121018/build.arm.cortex-a15/obj/glibc_0_final/libc_pic.a(check_fds.os)
 .text          0x0000000000000254        0x0 /home6/daewon2/Release/glibc/SP/SP_Linux/LP_Linux_Prj/REL/VDLinux.3.x.2012/toolchain/src/arm-mips-src-20121018/build.arm.cortex-a15/obj/glibc_0_final/libc_pic.a(errno.os)
 .text          0x0000000000000254        0x0 /home6/daewon2/Release/glibc/SP/SP_Linux/LP_Linux_Prj/REL/VDLinux.3.x.2012/toolchain/src/arm-mips-src-20121018/build.arm.cortex-a15/obj/glibc_0_final/libc_pic.a(divdi3.os)
 *fill*         0x0000000000000254        0xc 00000000
 .text          0x0000000000000260       0x60 /home6/daewon2/Release/glibc/SP/SP_Linux/LP_Linux_Prj/REL/VDLinux.3.x.2012/toolchain/src/arm-mips-src-20121018/build.arm.cortex-a15/obj/glibc_0_final/libc_pic.a(setjmp.os)
                0x0000000000000260                __sigsetjmp
                0x0000000000000260                __GI___sigsetjmp
 .text          0x00000000000002c0       0x70 /home6/daewon2/Release/glibc/SP/SP_Linux/LP_Linux_Prj/REL/VDLinux.3.x.2012/toolchain/src/arm-mips-src-20121018/build.arm.cortex-a15/obj/glibc_0_final/libc_pic.a(__longjmp.os)
                0x00000000000002c0                __longjmp
 .text          0x0000000000000330        0x0 /home6/daewon2/Release/glibc/SP/SP_Linux/LP_Linux_Prj/REL/VDLinux.3.x.2012/toolchain/src/arm-mips-src-20121018/build.arm.cortex-a15/obj/glibc_0_final/libc_pic.a(strchr.os)
 .text          0x0000000000000330        0x0 /home6/daewon2/Release/glibc/SP/SP_Linux/LP_Linux_Prj/REL/VDLinux.3.x.2012/toolchain/src/arm-mips-src-20121018/build.arm.cortex-a15/obj/glibc_0_final/libc_pic.a(strcmp.os)
 .text          0x0000000000000330        0x0 /home6/daewon2/Release/glibc/SP/SP_Linux/LP_Linux_Prj/REL/VDLinux.3.x.2012/toolchain/src/arm-mips-src-20121018/build.arm.cortex-a15/obj/glibc_0_final/libc_pic.a(strcpy.os)
 .text          0x0000000000000330       0x60 /home6/daewon2/Release/glibc/SP/SP_Linux/LP_Linux_Prj/REL/VDLinux.3.x.2012/toolchain/src/arm-mips-src-20121018/build.arm.cortex-a15/obj/glibc_0_final/libc_pic.a(strlen.os)
                0x0000000000000330                strlen
                0x0000000000000330                __GI_strlen
 .text          0x0000000000000390        0x0 /home6/daewon2/Release/glibc/SP/SP_Linux/LP_Linux_Prj/REL/VDLinux.3.x.2012/toolchain/src/arm-mips-src-20121018/build.arm.cortex-a15/obj/glibc_0_final/libc_pic.a(strnlen.os)
 .text          0x0000000000000390        0x0 /home6/daewon2/Release/glibc/SP/SP_Linux/LP_Linux_Prj/REL/VDLinux.3.x.2012/toolchain/src/arm-mips-src-20121018/build.arm.cortex-a15/obj/glibc_0_final/libc_pic.a(memchr.os)
 .text          0x0000000000000390        0x0 /home6/daewon2/Release/glibc/SP/SP_Linux/LP_Linux_Prj/REL/VDLinux.3.x.2012/toolchain/src/arm-mips-src-20121018/build.arm.cortex-a15/obj/glibc_0_final/libc_pic.a(memcmp.os)
 .text          0x0000000000000390      0x340 /home6/daewon2/Release/glibc/SP/SP_Linux/LP_Linux_Prj/REL/VDLinux.3.x.2012/toolchain/src/arm-mips-src-20121018/build.arm.cortex-a15/obj/glibc_0_final/libc_pic.a(memmove.os)
                0x0000000000000390                memmove
                0x0000000000000390                __GI_memmove
 .text          0x00000000000006d0       0x80 /home6/daewon2/Release/glibc/SP/SP_Linux/LP_Linux_Prj/REL/VDLinux.3.x.2012/toolchain/src/arm-mips-src-20121018/build.arm.cortex-a15/obj/glibc_0_final/libc_pic.a(memset.os)
                0x00000000000006d0                __GI_memset
                0x00000000000006d0                memset
 .text          0x0000000000000750        0x0 /home6/daewon2/Release/glibc/SP/SP_Linux/LP_Linux_Prj/REL/VDLinux.3.x.2012/toolchain/src/arm-mips-src-20121018/build.arm.cortex-a15/obj/glibc_0_final/libc_pic.a(mempcpy.os)
 .text          0x0000000000000750        0x0 /home6/daewon2/Release/glibc/SP/SP_Linux/LP_Linux_Prj/REL/VDLinux.3.x.2012/toolchain/src/arm-mips-src-20121018/build.arm.cortex-a15/obj/glibc_0_final/libc_pic.a(stpcpy.os)
 .text          0x0000000000000750      0x330 /home6/daewon2/Release/glibc/SP/SP_Linux/LP_Linux_Prj/REL/VDLinux.3.x.2012/toolchain/src/arm-mips-src-20121018/build.arm.cortex-a15/obj/glibc_0_final/libc_pic.a(memcpy.os)
                0x0000000000000750                memcpy
                0x0000000000000750                __GI_memcpy
 .text          0x0000000000000a80        0x0 /home6/daewon2/Release/glibc/SP/SP_Linux/LP_Linux_Prj/REL/VDLinux.3.x.2012/toolchain/src/arm-mips-src-20121018/build.arm.cortex-a15/obj/glibc_0_final/libc_pic.a(wordcopy.os)
 .text          0x0000000000000a80        0x0 /home6/daewon2/Release/glibc/SP/SP_Linux/LP_Linux_Prj/REL/VDLinux.3.x.2012/toolchain/src/arm-mips-src-20121018/build.arm.cortex-a15/obj/glibc_0_final/libc_pic.a(rawmemchr.os)
 .text          0x0000000000000a80        0x0 /home6/daewon2/Release/glibc/SP/SP_Linux/LP_Linux_Prj/REL/VDLinux.3.x.2012/toolchain/src/arm-mips-src-20121018/build.arm.cortex-a15/obj/glibc_0_final/libc_pic.a(closedir.os)
 .text          0x0000000000000a80        0x0 /home6/daewon2/Release/glibc/SP/SP_Linux/LP_Linux_Prj/REL/VDLinux.3.x.2012/toolchain/src/arm-mips-src-20121018/build.arm.cortex-a15/obj/glibc_0_final/libc_pic.a(readdir.os)
 .text          0x0000000000000a80        0x0 /home6/daewon2/Release/glibc/SP/SP_Linux/LP_Linux_Prj/REL/VDLinux.3.x.2012/toolchain/src/arm-mips-src-20121018/build.arm.cortex-a15/obj/glibc_0_final/libc_pic.a(rewinddir.os)
 .text          0x0000000000000a80        0x0 /home6/daewon2/Release/glibc/SP/SP_Linux/LP_Linux_Prj/REL/VDLinux.3.x.2012/toolchain/src/arm-mips-src-20121018/build.arm.cortex-a15/obj/glibc_0_final/libc_pic.a(getdents.os)
 .text          0x0000000000000a80        0x0 /home6/daewon2/Release/glibc/SP/SP_Linux/LP_Linux_Prj/REL/VDLinux.3.x.2012/toolchain/src/arm-mips-src-20121018/build.arm.cortex-a15/obj/glibc_0_final/libc_pic.a(fdopendir.os)
 .text          0x0000000000000a80       0x20 /home6/daewon2/Release/glibc/SP/SP_Linux/LP_Linux_Prj/REL/VDLinux.3.x.2012/toolchain/src/arm-mips-src-20121018/build.arm.cortex-a15/obj/glibc_0_final/libc_pic.a(uname.os)
                0x0000000000000a80                uname
                0x0000000000000a80                __GI_uname
                0x0000000000000a80                __uname
                0x0000000000000a80                __GI___uname
 .text          0x0000000000000aa0        0x0 /home6/daewon2/Release/glibc/SP/SP_Linux/LP_Linux_Prj/REL/VDLinux.3.x.2012/toolchain/src/arm-mips-src-20121018/build.arm.cortex-a15/obj/glibc_0_final/libc_pic.a(_exit.os)
 .text          0x0000000000000aa0        0x0 /home6/daewon2/Release/glibc/SP/SP_Linux/LP_Linux_Prj/REL/VDLinux.3.x.2012/toolchain/src/arm-mips-src-20121018/build.arm.cortex-a15/obj/glibc_0_final/libc_pic.a(getpid.os)
 .text          0x0000000000000aa0        0x0 /home6/daewon2/Release/glibc/SP/SP_Linux/LP_Linux_Prj/REL/VDLinux.3.x.2012/toolchain/src/arm-mips-src-20121018/build.arm.cortex-a15/obj/glibc_0_final/libc_pic.a(environ.os)
 .text          0x0000000000000aa0        0x0 /home6/daewon2/Release/glibc/SP/SP_Linux/LP_Linux_Prj/REL/VDLinux.3.x.2012/toolchain/src/arm-mips-src-20121018/build.arm.cortex-a15/obj/glibc_0_final/libc_pic.a(xstat64.os)
 .text          0x0000000000000aa0        0x0 /home6/daewon2/Release/glibc/SP/SP_Linux/LP_Linux_Prj/REL/VDLinux.3.x.2012/toolchain/src/arm-mips-src-20121018/build.arm.cortex-a15/obj/glibc_0_final/libc_pic.a(fxstat64.os)
 .text          0x0000000000000aa0        0x0 /home6/daewon2/Release/glibc/SP/SP_Linux/LP_Linux_Prj/REL/VDLinux.3.x.2012/toolchain/src/arm-mips-src-20121018/build.arm.cortex-a15/obj/glibc_0_final/libc_pic.a(lxstat64.os)
 .text          0x0000000000000aa0       0x90 /home6/daewon2/Release/glibc/SP/SP_Linux/LP_Linux_Prj/REL/VDLinux.3.x.2012/toolchain/src/arm-mips-src-20121018/build.arm.cortex-a15/obj/glibc_0_final/libc_pic.a(open.os)
                0x0000000000000aa4                __open_nocancel
                0x0000000000000ac0                __open
                0x0000000000000ac0                __GI_open
                0x0000000000000ac0                __GI___open
                0x0000000000000ac0                __libc_open
                0x0000000000000ac0                __GI___libc_open
                0x0000000000000ac0                open
 .text          0x0000000000000b30       0x90 /home6/daewon2/Release/glibc/SP/SP_Linux/LP_Linux_Prj/REL/VDLinux.3.x.2012/toolchain/src/arm-mips-src-20121018/build.arm.cortex-a15/obj/glibc_0_final/libc_pic.a(close.os)
                0x0000000000000b34                __close_nocancel
                0x0000000000000b50                __GI_close
                0x0000000000000b50                __GI___libc_close
                0x0000000000000b50                __libc_close
                0x0000000000000b50                __close
                0x0000000000000b50                __GI___close
                0x0000000000000b50                close
 .text          0x0000000000000bc0       0x90 /home6/daewon2/Release/glibc/SP/SP_Linux/LP_Linux_Prj/REL/VDLinux.3.x.2012/toolchain/src/arm-mips-src-20121018/build.arm.cortex-a15/obj/glibc_0_final/libc_pic.a(read.os)
                0x0000000000000bc4                __read_nocancel
                0x0000000000000be0                __read
                0x0000000000000be0                __GI_read
                0x0000000000000be0                __libc_read
                0x0000000000000be0                __GI___read
                0x0000000000000be0                read
                0x0000000000000be0                __GI___libc_read
 .text          0x0000000000000c50       0x90 /home6/daewon2/Release/glibc/SP/SP_Linux/LP_Linux_Prj/REL/VDLinux.3.x.2012/toolchain/src/arm-mips-src-20121018/build.arm.cortex-a15/obj/glibc_0_final/libc_pic.a(write.os)
                0x0000000000000c54                __write_nocancel
                0x0000000000000c70                __write
                0x0000000000000c70                __GI_write
                0x0000000000000c70                write
                0x0000000000000c70                __GI___libc_write
                0x0000000000000c70                __GI___write
                0x0000000000000c70                __libc_write
 .text          0x0000000000000ce0       0x20 /home6/daewon2/Release/glibc/SP/SP_Linux/LP_Linux_Prj/REL/VDLinux.3.x.2012/toolchain/src/arm-mips-src-20121018/build.arm.cortex-a15/obj/glibc_0_final/libc_pic.a(lseek.os)
                0x0000000000000ce0                __GI___lseek
                0x0000000000000ce0                lseek
                0x0000000000000ce0                __GI___libc_lseek
                0x0000000000000ce0                __lseek
                0x0000000000000ce0                __libc_lseek
                0x0000000000000ce0                __GI_lseek
 .text          0x0000000000000d00       0x20 /home6/daewon2/Release/glibc/SP/SP_Linux/LP_Linux_Prj/REL/VDLinux.3.x.2012/toolchain/src/arm-mips-src-20121018/build.arm.cortex-a15/obj/glibc_0_final/libc_pic.a(access.os)
                0x0000000000000d00                __GI_access
                0x0000000000000d00                __GI___access
                0x0000000000000d00                access
                0x0000000000000d00                __access
 .text          0x0000000000000d20        0x0 /home6/daewon2/Release/glibc/SP/SP_Linux/LP_Linux_Prj/REL/VDLinux.3.x.2012/toolchain/src/arm-mips-src-20121018/build.arm.cortex-a15/obj/glibc_0_final/libc_pic.a(fcntl.os)
 .text          0x0000000000000d20        0x0 /home6/daewon2/Release/glibc/SP/SP_Linux/LP_Linux_Prj/REL/VDLinux.3.x.2012/toolchain/src/arm-mips-src-20121018/build.arm.cortex-a15/obj/glibc_0_final/libc_pic.a(getpagesize.os)
 .text          0x0000000000000d20       0x50 /home6/daewon2/Release/glibc/SP/SP_Linux/LP_Linux_Prj/REL/VDLinux.3.x.2012/toolchain/src/arm-mips-src-20121018/build.arm.cortex-a15/obj/glibc_0_final/libc_pic.a(mmap.os)
                0x0000000000000d20                __mmap
                0x0000000000000d20                mmap
 .text          0x0000000000000d70       0x20 /home6/daewon2/Release/glibc/SP/SP_Linux/LP_Linux_Prj/REL/VDLinux.3.x.2012/toolchain/src/arm-mips-src-20121018/build.arm.cortex-a15/obj/glibc_0_final/libc_pic.a(munmap.os)
                0x0000000000000d70                munmap
                0x0000000000000d70                __GI___munmap
                0x0000000000000d70                __GI_munmap
                0x0000000000000d70                __munmap
 .text          0x0000000000000d90       0x20 /home6/daewon2/Release/glibc/SP/SP_Linux/LP_Linux_Prj/REL/VDLinux.3.x.2012/toolchain/src/arm-mips-src-20121018/build.arm.cortex-a15/obj/glibc_0_final/libc_pic.a(mprotect.os)
                0x0000000000000d90                __mprotect
                0x0000000000000d90                __GI___mprotect
                0x0000000000000d90                __GI_mprotect
                0x0000000000000d90                mprotect
 .text          0x0000000000000db0        0x0 /home6/daewon2/Release/glibc/SP/SP_Linux/LP_Linux_Prj/REL/VDLinux.3.x.2012/toolchain/src/arm-mips-src-20121018/build.arm.cortex-a15/obj/glibc_0_final/libc_pic.a(profil.os)
 .text          0x0000000000000db0        0x0 /home6/daewon2/Release/glibc/SP/SP_Linux/LP_Linux_Prj/REL/VDLinux.3.x.2012/toolchain/src/arm-mips-src-20121018/build.arm.cortex-a15/obj/glibc_0_final/libc_pic.a(prof-freq.os)
 .text          0x0000000000000db0        0x0 /home6/daewon2/Release/glibc/SP/SP_Linux/LP_Linux_Prj/REL/VDLinux.3.x.2012/toolchain/src/arm-mips-src-20121018/build.arm.cortex-a15/obj/glibc_0_final/libc_pic.a(libc-lowlevellock.os)
 .text          0x0000000000000db0        0x0 /home6/daewon2/Release/glibc/SP/SP_Linux/LP_Linux_Prj/REL/VDLinux.3.x.2012/toolchain/src/arm-mips-src-20121018/build.arm.cortex-a15/obj/glibc_0_final/libc_pic.a(libc-cancellation.os)
 .text          0x0000000000000db0        0x0 /home6/daewon2/Release/glibc/SP/SP_Linux/LP_Linux_Prj/REL/VDLinux.3.x.2012/toolchain/src/arm-mips-src-20121018/build.arm.cortex-a15/obj/glibc_0_final/libc_pic.a(libc_multiple_threads.os)
 .text          0x0000000000000db0       0x30 /home6/daewon2/Release/glibc/SP/SP_Linux/LP_Linux_Prj/REL/VDLinux.3.x.2012/toolchain/src/arm-mips-src-20121018/build.arm.cortex-a15/obj/glibc_0_final/libc_pic.a(sysdep.os)
                0x0000000000000db0                __syscall_error
 .text          0x0000000000000de0        0x0 /home6/daewon2/Release/glibc/SP/SP_Linux/LP_Linux_Prj/REL/VDLinux.3.x.2012/toolchain/src/arm-mips-src-20121018/build.arm.cortex-a15/obj/glibc_0_final/libc_pic.a(sigaction.os)
 .text          0x0000000000000de0       0x50 /home6/daewon2/Release/glibc/SP/SP_Linux/LP_Linux_Prj/REL/VDLinux.3.x.2012/toolchain/src/arm-mips-src-20121018/build.arm.cortex-a15/obj/glibc_0_final/libc_pic.a(sigrestorer.os)
                0x0000000000000df0                __default_sa_restorer_v1
                0x0000000000000e00                __default_sa_restorer_v2
                0x0000000000000e10                __default_rt_sa_restorer_v1
                0x0000000000000e20                __default_rt_sa_restorer_v2
 .text          0x0000000000000e30       0x20 /home6/daewon2/Release/glibc/SP/SP_Linux/LP_Linux_Prj/REL/VDLinux.3.x.2012/toolchain/src/arm-mips-src-20121018/build.arm.cortex-a15/obj/glibc_0_final/libc_pic.a(setitimer.os)
                0x0000000000000e30                setitimer
                0x0000000000000e30                __setitimer
                0x0000000000000e30                __GI_setitimer
                0x0000000000000e30                __GI___setitimer
 .text          0x0000000000000e50        0x0 /home6/daewon2/Release/glibc/SP/SP_Linux/LP_Linux_Prj/REL/VDLinux.3.x.2012/toolchain/src/arm-mips-src-20121018/build.arm.cortex-a15/obj/glibc_0_final/libc_pic.a(forward.os)
 .text          0x0000000000000e50        0x0 /home6/daewon2/Release/glibc/SP/SP_Linux/LP_Linux_Prj/REL/VDLinux.3.x.2012/toolchain/src/arm-mips-src-20121018/build.arm.cortex-a15/obj/glibc_0_final/libc_pic.a(exit.os)
 .text          0x0000000000000e50        0x0 /home6/daewon2/Release/glibc/SP/SP_Linux/LP_Linux_Prj/REL/VDLinux.3.x.2012/toolchain/src/arm-mips-src-20121018/build.arm.cortex-a15/obj/glibc_0_final/libc_pic.a(cxa_atexit.os)
 .text          0x0000000000000e50       0x3c /home6/daewon2/Release/glibc/SP/SP_Linux/LP_Linux_Prj/REL/VDLinux.3.x.2012/toolchain/src/arm-mips-src-20121018/scripts/arm-v7a15v3r1/lib/gcc/arm-v7a15v3r1-linux-gnueabi/4.6.4/libgcc.a(_aeabi_uldivmod.o)
                0x0000000000000e50                __aeabi_uldivmod
 .text          0x0000000000000e8c       0x10 /home6/daewon2/Release/glibc/SP/SP_Linux/LP_Linux_Prj/REL/VDLinux.3.x.2012/toolchain/src/arm-mips-src-20121018/scripts/arm-v7a15v3r1/lib/gcc/arm-v7a15v3r1-linux-gnueabi/4.6.4/libgcc.a(_dvmd_lnx.o)
                0x0000000000000e8c                __aeabi_ldiv0
                0x0000000000000e8c                __aeabi_idiv0
 .text          0x0000000000000e9c        0x0 /home6/daewon2/Release/glibc/SP/SP_Linux/LP_Linux_Prj/REL/VDLinux.3.x.2012/toolchain/src/arm-mips-src-20121018/scripts/arm-v7a15v3r1/lib/gcc/arm-v7a15v3r1-linux-gnueabi/4.6.4/libgcc.a(bpabi.o)
 .text          0x0000000000000e9c        0x0 /home6/daewon2/Release/glibc/SP/SP_Linux/LP_Linux_Prj/REL/VDLinux.3.x.2012/toolchain/src/arm-mips-src-20121018/build.arm.cortex-a15/obj/glibc_0_final/libc_pic.a(raise.os)
 *(.gnu.warning)

.text._dl_initial_error_catch_tsd
                0x0000000000000000       0x10
 .text._dl_initial_error_catch_tsd
                0x0000000000000000       0x10 /home6/daewon2/Release/glibc/SP/SP_Linux/LP_Linux_Prj/REL/VDLinux.3.x.2012/toolchain/src/arm-mips-src-20121018/build.arm.cortex-a15/obj/glibc_0_final/elf/dl-allobjs.os
                0x0000000000000000                _dl_initial_error_catch_tsd

.text.rtld_lock_default_lock_recursive
                0x0000000000000000       0x10
 .text.rtld_lock_default_lock_recursive
                0x0000000000000000       0x10 /home6/daewon2/Release/glibc/SP/SP_Linux/LP_Linux_Prj/REL/VDLinux.3.x.2012/toolchain/src/arm-mips-src-20121018/build.arm.cortex-a15/obj/glibc_0_final/elf/dl-allobjs.os

.text.rtld_lock_default_unlock_recursive
                0x0000000000000000       0x10
 .text.rtld_lock_default_unlock_recursive
                0x0000000000000000       0x10 /home6/daewon2/Release/glibc/SP/SP_Linux/LP_Linux_Prj/REL/VDLinux.3.x.2012/toolchain/src/arm-mips-src-20121018/build.arm.cortex-a15/obj/glibc_0_final/elf/dl-allobjs.os

.text.lookup_doit
                0x0000000000000000       0x68
 .text.lookup_doit
                0x0000000000000000       0x68 /home6/daewon2/Release/glibc/SP/SP_Linux/LP_Linux_Prj/REL/VDLinux.3.x.2012/toolchain/src/arm-mips-src-20121018/build.arm.cortex-a15/obj/glibc_0_final/elf/dl-allobjs.os

.text.dlmopen_doit
                0x0000000000000000       0x7c
 .text.dlmopen_doit
                0x0000000000000000       0x7c /home6/daewon2/Release/glibc/SP/SP_Linux/LP_Linux_Prj/REL/VDLinux.3.x.2012/toolchain/src/arm-mips-src-20121018/build.arm.cortex-a15/obj/glibc_0_final/elf/dl-allobjs.os

.text.unlikely.do_preload
                0x0000000000000000       0xa0
 .text.unlikely.do_preload
                0x0000000000000000       0xa0 /home6/daewon2/Release/glibc/SP/SP_Linux/LP_Linux_Prj/REL/VDLinux.3.x.2012/toolchain/src/arm-mips-src-20121018/build.arm.cortex-a15/obj/glibc_0_final/elf/dl-allobjs.os

.text.print_unresolved
                0x0000000000000000       0x50
 .text.print_unresolved
                0x0000000000000000       0x50 /home6/daewon2/Release/glibc/SP/SP_Linux/LP_Linux_Prj/REL/VDLinux.3.x.2012/toolchain/src/arm-mips-src-20121018/build.arm.cortex-a15/obj/glibc_0_final/elf/dl-allobjs.os

.text.print_missing_version
                0x0000000000000000       0x5c
 .text.print_missing_version
                0x0000000000000000       0x5c /home6/daewon2/Release/glibc/SP/SP_Linux/LP_Linux_Prj/REL/VDLinux.3.x.2012/toolchain/src/arm-mips-src-20121018/build.arm.cortex-a15/obj/glibc_0_final/elf/dl-allobjs.os

.text.security_init
                0x0000000000000000       0xdc
 .text.security_init
                0x0000000000000000       0xdc /home6/daewon2/Release/glibc/SP/SP_Linux/LP_Linux_Prj/REL/VDLinux.3.x.2012/toolchain/src/arm-mips-src-20121018/build.arm.cortex-a15/obj/glibc_0_final/elf/dl-allobjs.os

.text.map_doit  0x0000000000000000       0x3c
 .text.map_doit
                0x0000000000000000       0x3c /home6/daewon2/Release/glibc/SP/SP_Linux/LP_Linux_Prj/REL/VDLinux.3.x.2012/toolchain/src/arm-mips-src-20121018/build.arm.cortex-a15/obj/glibc_0_final/elf/dl-allobjs.os

.text.process_dl_audit
                0x0000000000000000       0xac
 .text.process_dl_audit
                0x0000000000000000       0xac /home6/daewon2/Release/glibc/SP/SP_Linux/LP_Linux_Prj/REL/VDLinux.3.x.2012/toolchain/src/arm-mips-src-20121018/build.arm.cortex-a15/obj/glibc_0_final/elf/dl-allobjs.os

.text.relocate_doit
                0x0000000000000000       0x14
 .text.relocate_doit
                0x0000000000000000       0x14 /home6/daewon2/Release/glibc/SP/SP_Linux/LP_Linux_Prj/REL/VDLinux.3.x.2012/toolchain/src/arm-mips-src-20121018/build.arm.cortex-a15/obj/glibc_0_final/elf/dl-allobjs.os

.text.process_dl_debug
                0x0000000000000000      0x26c
 .text.process_dl_debug
                0x0000000000000000      0x26c /home6/daewon2/Release/glibc/SP/SP_Linux/LP_Linux_Prj/REL/VDLinux.3.x.2012/toolchain/src/arm-mips-src-20121018/build.arm.cortex-a15/obj/glibc_0_final/elf/dl-allobjs.os

.text.process_envvars
                0x0000000000000000      0x834
 .text.process_envvars
                0x0000000000000000      0x834 /home6/daewon2/Release/glibc/SP/SP_Linux/LP_Linux_Prj/REL/VDLinux.3.x.2012/toolchain/src/arm-mips-src-20121018/build.arm.cortex-a15/obj/glibc_0_final/elf/dl-allobjs.os

.text.unlikely.print_statistics.isra.3
                0x0000000000000000       0xd8
 .text.unlikely.print_statistics.isra.3
                0x0000000000000000       0xd8 /home6/daewon2/Release/glibc/SP/SP_Linux/LP_Linux_Prj/REL/VDLinux.3.x.2012/toolchain/src/arm-mips-src-20121018/build.arm.cortex-a15/obj/glibc_0_final/elf/dl-allobjs.os

.text._dl_start_final
                0x0000000000000000       0xfc
 .text._dl_start_final
                0x0000000000000000       0xfc /home6/daewon2/Release/glibc/SP/SP_Linux/LP_Linux_Prj/REL/VDLinux.3.x.2012/toolchain/src/arm-mips-src-20121018/build.arm.cortex-a15/obj/glibc_0_final/elf/dl-allobjs.os

.text.unlikely.init_tls.part.6
                0x0000000000000000      0x178
 .text.unlikely.init_tls.part.6
                0x0000000000000000      0x178 /home6/daewon2/Release/glibc/SP/SP_Linux/LP_Linux_Prj/REL/VDLinux.3.x.2012/toolchain/src/arm-mips-src-20121018/build.arm.cortex-a15/obj/glibc_0_final/elf/dl-allobjs.os

.text.dl_main   0x0000000000000000     0x329c
 .text.dl_main  0x0000000000000000     0x329c /home6/daewon2/Release/glibc/SP/SP_Linux/LP_Linux_Prj/REL/VDLinux.3.x.2012/toolchain/src/arm-mips-src-20121018/build.arm.cortex-a15/obj/glibc_0_final/elf/dl-allobjs.os

.text.version_check_doit
                0x0000000000000000       0x44
 .text.version_check_doit
                0x0000000000000000       0x44 /home6/daewon2/Release/glibc/SP/SP_Linux/LP_Linux_Prj/REL/VDLinux.3.x.2012/toolchain/src/arm-mips-src-20121018/build.arm.cortex-a15/obj/glibc_0_final/elf/dl-allobjs.os

.text._dl_start
                0x0000000000000000      0x78c
 .text._dl_start
                0x0000000000000000      0x78c /home6/daewon2/Release/glibc/SP/SP_Linux/LP_Linux_Prj/REL/VDLinux.3.x.2012/toolchain/src/arm-mips-src-20121018/build.arm.cortex-a15/obj/glibc_0_final/elf/dl-allobjs.os

.text.is_dst    0x0000000000000000      0x100
 .text.is_dst   0x0000000000000000      0x100 /home6/daewon2/Release/glibc/SP/SP_Linux/LP_Linux_Prj/REL/VDLinux.3.x.2012/toolchain/src/arm-mips-src-20121018/build.arm.cortex-a15/obj/glibc_0_final/elf/dl-allobjs.os

.text.local_strdup
                0x0000000000000000       0x30
 .text.local_strdup
                0x0000000000000000       0x30 /home6/daewon2/Release/glibc/SP/SP_Linux/LP_Linux_Prj/REL/VDLinux.3.x.2012/toolchain/src/arm-mips-src-20121018/build.arm.cortex-a15/obj/glibc_0_final/elf/dl-allobjs.os

.text.fillin_rpath
                0x0000000000000000      0x32c
 .text.fillin_rpath
                0x0000000000000000      0x32c /home6/daewon2/Release/glibc/SP/SP_Linux/LP_Linux_Prj/REL/VDLinux.3.x.2012/toolchain/src/arm-mips-src-20121018/build.arm.cortex-a15/obj/glibc_0_final/elf/dl-allobjs.os

.text.add_name_to_object
                0x0000000000000000       0xcc
 .text.add_name_to_object
                0x0000000000000000       0xcc /home6/daewon2/Release/glibc/SP/SP_Linux/LP_Linux_Prj/REL/VDLinux.3.x.2012/toolchain/src/arm-mips-src-20121018/build.arm.cortex-a15/obj/glibc_0_final/elf/dl-allobjs.os

.text.unlikely.is_trusted_path_normalize
                0x0000000000000000      0x15c
 .text.unlikely.is_trusted_path_normalize
                0x0000000000000000      0x15c /home6/daewon2/Release/glibc/SP/SP_Linux/LP_Linux_Prj/REL/VDLinux.3.x.2012/toolchain/src/arm-mips-src-20121018/build.arm.cortex-a15/obj/glibc_0_final/elf/dl-allobjs.os

.text.unlikely.print_search_path
                0x0000000000000000      0x1b4
 .text.unlikely.print_search_path
                0x0000000000000000      0x1b4 /home6/daewon2/Release/glibc/SP/SP_Linux/LP_Linux_Prj/REL/VDLinux.3.x.2012/toolchain/src/arm-mips-src-20121018/build.arm.cortex-a15/obj/glibc_0_final/elf/dl-allobjs.os

.text.lose      0x0000000000000000       0x64
 .text.lose     0x0000000000000000       0x64 /home6/daewon2/Release/glibc/SP/SP_Linux/LP_Linux_Prj/REL/VDLinux.3.x.2012/toolchain/src/arm-mips-src-20121018/build.arm.cortex-a15/obj/glibc_0_final/elf/dl-allobjs.os

.text.open_verify
                0x0000000000000000      0x5d8
 .text.open_verify
                0x0000000000000000      0x5d8 /home6/daewon2/Release/glibc/SP/SP_Linux/LP_Linux_Prj/REL/VDLinux.3.x.2012/toolchain/src/arm-mips-src-20121018/build.arm.cortex-a15/obj/glibc_0_final/elf/dl-allobjs.os

.text.open_path
                0x0000000000000000      0x3ec
 .text.open_path
                0x0000000000000000      0x3ec /home6/daewon2/Release/glibc/SP/SP_Linux/LP_Linux_Prj/REL/VDLinux.3.x.2012/toolchain/src/arm-mips-src-20121018/build.arm.cortex-a15/obj/glibc_0_final/elf/dl-allobjs.os

.text._dl_map_object_from_fd
                0x0000000000000000     0x1280
 .text._dl_map_object_from_fd
                0x0000000000000000     0x1280 /home6/daewon2/Release/glibc/SP/SP_Linux/LP_Linux_Prj/REL/VDLinux.3.x.2012/toolchain/src/arm-mips-src-20121018/build.arm.cortex-a15/obj/glibc_0_final/elf/dl-allobjs.os

.text.add_path.8779.constprop.1
                0x0000000000000000       0xd8
 .text.add_path.8779.constprop.1
                0x0000000000000000       0xd8 /home6/daewon2/Release/glibc/SP/SP_Linux/LP_Linux_Prj/REL/VDLinux.3.x.2012/toolchain/src/arm-mips-src-20121018/build.arm.cortex-a15/obj/glibc_0_final/elf/dl-allobjs.os

.text._dl_dst_count
                0x0000000000000000       0xd8
 .text._dl_dst_count
                0x0000000000000000       0xd8 /home6/daewon2/Release/glibc/SP/SP_Linux/LP_Linux_Prj/REL/VDLinux.3.x.2012/toolchain/src/arm-mips-src-20121018/build.arm.cortex-a15/obj/glibc_0_final/elf/dl-allobjs.os
                0x0000000000000000                _dl_dst_count

.text._dl_dst_substitute
                0x0000000000000000      0x2bc
 .text._dl_dst_substitute
                0x0000000000000000      0x2bc /home6/daewon2/Release/glibc/SP/SP_Linux/LP_Linux_Prj/REL/VDLinux.3.x.2012/toolchain/src/arm-mips-src-20121018/build.arm.cortex-a15/obj/glibc_0_final/elf/dl-allobjs.os
                0x0000000000000000                _dl_dst_substitute

.text.expand_dynamic_string_token
                0x0000000000000000      0x128
 .text.expand_dynamic_string_token
                0x0000000000000000      0x128 /home6/daewon2/Release/glibc/SP/SP_Linux/LP_Linux_Prj/REL/VDLinux.3.x.2012/toolchain/src/arm-mips-src-20121018/build.arm.cortex-a15/obj/glibc_0_final/elf/dl-allobjs.os

.text.decompose_rpath
                0x0000000000000000      0x1b0
 .text.decompose_rpath
                0x0000000000000000      0x1b0 /home6/daewon2/Release/glibc/SP/SP_Linux/LP_Linux_Prj/REL/VDLinux.3.x.2012/toolchain/src/arm-mips-src-20121018/build.arm.cortex-a15/obj/glibc_0_final/elf/dl-allobjs.os

.text.cache_rpath
                0x0000000000000000       0x6c
 .text.cache_rpath
                0x0000000000000000       0x6c /home6/daewon2/Release/glibc/SP/SP_Linux/LP_Linux_Prj/REL/VDLinux.3.x.2012/toolchain/src/arm-mips-src-20121018/build.arm.cortex-a15/obj/glibc_0_final/elf/dl-allobjs.os

.text._dl_init_paths
                0x0000000000000000      0x510
 .text._dl_init_paths
                0x0000000000000000      0x510 /home6/daewon2/Release/glibc/SP/SP_Linux/LP_Linux_Prj/REL/VDLinux.3.x.2012/toolchain/src/arm-mips-src-20121018/build.arm.cortex-a15/obj/glibc_0_final/elf/dl-allobjs.os
                0x0000000000000000                _dl_init_paths

.text._dl_map_object
                0x0000000000000000      0x96c
 .text._dl_map_object
                0x0000000000000000      0x96c /home6/daewon2/Release/glibc/SP/SP_Linux/LP_Linux_Prj/REL/VDLinux.3.x.2012/toolchain/src/arm-mips-src-20121018/build.arm.cortex-a15/obj/glibc_0_final/elf/dl-allobjs.os
                0x0000000000000000                _dl_map_object

.text._dl_rtld_di_serinfo
                0x0000000000000000      0x1b8
 .text._dl_rtld_di_serinfo
                0x0000000000000000      0x1b8 /home6/daewon2/Release/glibc/SP/SP_Linux/LP_Linux_Prj/REL/VDLinux.3.x.2012/toolchain/src/arm-mips-src-20121018/build.arm.cortex-a15/obj/glibc_0_final/elf/dl-allobjs.os
                0x0000000000000000                _dl_rtld_di_serinfo

.text._dl_cache_libcmp
                0x0000000000000000      0x118
 .text._dl_cache_libcmp
                0x0000000000000000      0x118 /home6/daewon2/Release/glibc/SP/SP_Linux/LP_Linux_Prj/REL/VDLinux.3.x.2012/toolchain/src/arm-mips-src-20121018/build.arm.cortex-a15/obj/glibc_0_final/elf/dl-allobjs.os
                0x0000000000000000                _dl_cache_libcmp

.text._dl_load_cache_lookup
                0x0000000000000000      0x6cc
 .text._dl_load_cache_lookup
                0x0000000000000000      0x6cc /home6/daewon2/Release/glibc/SP/SP_Linux/LP_Linux_Prj/REL/VDLinux.3.x.2012/toolchain/src/arm-mips-src-20121018/build.arm.cortex-a15/obj/glibc_0_final/elf/dl-allobjs.os
                0x0000000000000000                _dl_load_cache_lookup

.text._dl_unload_cache
                0x0000000000000000       0x34
 .text._dl_unload_cache
                0x0000000000000000       0x34 /home6/daewon2/Release/glibc/SP/SP_Linux/LP_Linux_Prj/REL/VDLinux.3.x.2012/toolchain/src/arm-mips-src-20121018/build.arm.cortex-a15/obj/glibc_0_final/elf/dl-allobjs.os
                0x0000000000000000                _dl_unload_cache

.text.enter.8587
                0x0000000000000000       0x64
 .text.enter.8587
                0x0000000000000000       0x64 /home6/daewon2/Release/glibc/SP/SP_Linux/LP_Linux_Prj/REL/VDLinux.3.x.2012/toolchain/src/arm-mips-src-20121018/build.arm.cortex-a15/obj/glibc_0_final/elf/dl-allobjs.os

.text.check_match.8539
                0x0000000000000000      0x1cc
 .text.check_match.8539
                0x0000000000000000      0x1cc /home6/daewon2/Release/glibc/SP/SP_Linux/LP_Linux_Prj/REL/VDLinux.3.x.2012/toolchain/src/arm-mips-src-20121018/build.arm.cortex-a15/obj/glibc_0_final/elf/dl-allobjs.os

.text.do_lookup_x
                0x0000000000000000      0x71c
 .text.do_lookup_x
                0x0000000000000000      0x71c /home6/daewon2/Release/glibc/SP/SP_Linux/LP_Linux_Prj/REL/VDLinux.3.x.2012/toolchain/src/arm-mips-src-20121018/build.arm.cortex-a15/obj/glibc_0_final/elf/dl-allobjs.os

.text._dl_lookup_symbol_x
                0x0000000000000000     0x10b0
 .text._dl_lookup_symbol_x
                0x0000000000000000     0x10b0 /home6/daewon2/Release/glibc/SP/SP_Linux/LP_Linux_Prj/REL/VDLinux.3.x.2012/toolchain/src/arm-mips-src-20121018/build.arm.cortex-a15/obj/glibc_0_final/elf/dl-allobjs.os
                0x0000000000000000                _dl_lookup_symbol_x

.text._dl_setup_hash
                0x0000000000000000       0xb0
 .text._dl_setup_hash
                0x0000000000000000       0xb0 /home6/daewon2/Release/glibc/SP/SP_Linux/LP_Linux_Prj/REL/VDLinux.3.x.2012/toolchain/src/arm-mips-src-20121018/build.arm.cortex-a15/obj/glibc_0_final/elf/dl-allobjs.os
                0x0000000000000000                _dl_setup_hash

.text._dl_add_to_namespace_list
                0x0000000000000000       0xb8
 .text._dl_add_to_namespace_list
                0x0000000000000000       0xb8 /home6/daewon2/Release/glibc/SP/SP_Linux/LP_Linux_Prj/REL/VDLinux.3.x.2012/toolchain/src/arm-mips-src-20121018/build.arm.cortex-a15/obj/glibc_0_final/elf/dl-allobjs.os
                0x0000000000000000                _dl_add_to_namespace_list

.text._dl_new_object
                0x0000000000000000      0x2a0
 .text._dl_new_object
                0x0000000000000000      0x2a0 /home6/daewon2/Release/glibc/SP/SP_Linux/LP_Linux_Prj/REL/VDLinux.3.x.2012/toolchain/src/arm-mips-src-20121018/build.arm.cortex-a15/obj/glibc_0_final/elf/dl-allobjs.os
                0x0000000000000000                _dl_new_object

.text.fix_bad_pc24.8238.isra.2
                0x0000000000000000       0xec
 .text.fix_bad_pc24.8238.isra.2
                0x0000000000000000       0xec /home6/daewon2/Release/glibc/SP/SP_Linux/LP_Linux_Prj/REL/VDLinux.3.x.2012/toolchain/src/arm-mips-src-20121018/build.arm.cortex-a15/obj/glibc_0_final/elf/dl-allobjs.os

.text._dl_try_allocate_static_tls
                0x0000000000000000       0xec
 .text._dl_try_allocate_static_tls
                0x0000000000000000       0xec /home6/daewon2/Release/glibc/SP/SP_Linux/LP_Linux_Prj/REL/VDLinux.3.x.2012/toolchain/src/arm-mips-src-20121018/build.arm.cortex-a15/obj/glibc_0_final/elf/dl-allobjs.os
                0x0000000000000000                _dl_try_allocate_static_tls

.text._dl_allocate_static_tls
                0x0000000000000000       0x3c
 .text._dl_allocate_static_tls
                0x0000000000000000       0x3c /home6/daewon2/Release/glibc/SP/SP_Linux/LP_Linux_Prj/REL/VDLinux.3.x.2012/toolchain/src/arm-mips-src-20121018/build.arm.cortex-a15/obj/glibc_0_final/elf/dl-allobjs.os
                0x0000000000000000                _dl_allocate_static_tls

.text._dl_nothread_init_static_tls
                0x0000000000000000       0x88
 .text._dl_nothread_init_static_tls
                0x0000000000000000       0x88 /home6/daewon2/Release/glibc/SP/SP_Linux/LP_Linux_Prj/REL/VDLinux.3.x.2012/toolchain/src/arm-mips-src-20121018/build.arm.cortex-a15/obj/glibc_0_final/elf/dl-allobjs.os
                0x0000000000000000                _dl_nothread_init_static_tls

.text._dl_protect_relro
                0x0000000000000000       0x7c
 .text._dl_protect_relro
                0x0000000000000000       0x7c /home6/daewon2/Release/glibc/SP/SP_Linux/LP_Linux_Prj/REL/VDLinux.3.x.2012/toolchain/src/arm-mips-src-20121018/build.arm.cortex-a15/obj/glibc_0_final/elf/dl-allobjs.os
                0x0000000000000000                _dl_protect_relro

.text._dl_reloc_bad_type
                0x0000000000000000       0x68
 .text._dl_reloc_bad_type
                0x0000000000000000       0x68 /home6/daewon2/Release/glibc/SP/SP_Linux/LP_Linux_Prj/REL/VDLinux.3.x.2012/toolchain/src/arm-mips-src-20121018/build.arm.cortex-a15/obj/glibc_0_final/elf/dl-allobjs.os
                0x0000000000000000                _dl_reloc_bad_type

.text._dl_relocate_object
                0x0000000000000000     0x1c18
 .text._dl_relocate_object
                0x0000000000000000     0x1c18 /home6/daewon2/Release/glibc/SP/SP_Linux/LP_Linux_Prj/REL/VDLinux.3.x.2012/toolchain/src/arm-mips-src-20121018/build.arm.cortex-a15/obj/glibc_0_final/elf/dl-allobjs.os
                0x0000000000000000                _dl_relocate_object

.text._dl_build_local_scope
                0x0000000000000000       0x7c
 .text._dl_build_local_scope
                0x0000000000000000       0x7c /home6/daewon2/Release/glibc/SP/SP_Linux/LP_Linux_Prj/REL/VDLinux.3.x.2012/toolchain/src/arm-mips-src-20121018/build.arm.cortex-a15/obj/glibc_0_final/elf/dl-allobjs.os

.text.openaux   0x0000000000000000       0x48
 .text.openaux  0x0000000000000000       0x48 /home6/daewon2/Release/glibc/SP/SP_Linux/LP_Linux_Prj/REL/VDLinux.3.x.2012/toolchain/src/arm-mips-src-20121018/build.arm.cortex-a15/obj/glibc_0_final/elf/dl-allobjs.os

.text._dl_map_object_deps
                0x0000000000000000     0x1118
 .text._dl_map_object_deps
                0x0000000000000000     0x1118 /home6/daewon2/Release/glibc/SP/SP_Linux/LP_Linux_Prj/REL/VDLinux.3.x.2012/toolchain/src/arm-mips-src-20121018/build.arm.cortex-a15/obj/glibc_0_final/elf/dl-allobjs.os
                0x0000000000000000                _dl_map_object_deps

.text._dl_fixup
                0x0000000000000000      0x1e0
 .text._dl_fixup
                0x0000000000000000      0x1e0 /home6/daewon2/Release/glibc/SP/SP_Linux/LP_Linux_Prj/REL/VDLinux.3.x.2012/toolchain/src/arm-mips-src-20121018/build.arm.cortex-a15/obj/glibc_0_final/elf/dl-allobjs.os
                0x0000000000000000                _dl_fixup

.text._dl_profile_fixup
                0x0000000000000000      0x578
 .text._dl_profile_fixup
                0x0000000000000000      0x578 /home6/daewon2/Release/glibc/SP/SP_Linux/LP_Linux_Prj/REL/VDLinux.3.x.2012/toolchain/src/arm-mips-src-20121018/build.arm.cortex-a15/obj/glibc_0_final/elf/dl-allobjs.os
                0x0000000000000000                _dl_profile_fixup

.text._dl_call_pltexit
                0x0000000000000000       0xf4
 .text._dl_call_pltexit
                0x0000000000000000       0xf4 /home6/daewon2/Release/glibc/SP/SP_Linux/LP_Linux_Prj/REL/VDLinux.3.x.2012/toolchain/src/arm-mips-src-20121018/build.arm.cortex-a15/obj/glibc_0_final/elf/dl-allobjs.os
                0x0000000000000000                _dl_call_pltexit

.text._dl_signal_error
                0x0000000000000000      0x1e4
 .text._dl_signal_error
                0x0000000000000000      0x1e4 /home6/daewon2/Release/glibc/SP/SP_Linux/LP_Linux_Prj/REL/VDLinux.3.x.2012/toolchain/src/arm-mips-src-20121018/build.arm.cortex-a15/obj/glibc_0_final/elf/dl-allobjs.os
                0x0000000000000000                _dl_signal_error

.text._dl_signal_cerror
                0x0000000000000000       0xc4
 .text._dl_signal_cerror
                0x0000000000000000       0xc4 /home6/daewon2/Release/glibc/SP/SP_Linux/LP_Linux_Prj/REL/VDLinux.3.x.2012/toolchain/src/arm-mips-src-20121018/build.arm.cortex-a15/obj/glibc_0_final/elf/dl-allobjs.os
                0x0000000000000000                _dl_signal_cerror

.text._dl_catch_error
                0x0000000000000000       0xd8
 .text._dl_catch_error
                0x0000000000000000       0xd8 /home6/daewon2/Release/glibc/SP/SP_Linux/LP_Linux_Prj/REL/VDLinux.3.x.2012/toolchain/src/arm-mips-src-20121018/build.arm.cortex-a15/obj/glibc_0_final/elf/dl-allobjs.os
                0x0000000000000000                _dl_catch_error

.text._dl_receive_error
                0x0000000000000000       0x5c
 .text._dl_receive_error
                0x0000000000000000       0x5c /home6/daewon2/Release/glibc/SP/SP_Linux/LP_Linux_Prj/REL/VDLinux.3.x.2012/toolchain/src/arm-mips-src-20121018/build.arm.cortex-a15/obj/glibc_0_final/elf/dl-allobjs.os
                0x0000000000000000                _dl_receive_error

.text.call_init
                0x0000000000000000      0x12c
 .text.call_init
                0x0000000000000000      0x12c /home6/daewon2/Release/glibc/SP/SP_Linux/LP_Linux_Prj/REL/VDLinux.3.x.2012/toolchain/src/arm-mips-src-20121018/build.arm.cortex-a15/obj/glibc_0_final/elf/dl-allobjs.os

.text._dl_init  0x0000000000000000      0x118
 .text._dl_init
                0x0000000000000000      0x118 /home6/daewon2/Release/glibc/SP/SP_Linux/LP_Linux_Prj/REL/VDLinux.3.x.2012/toolchain/src/arm-mips-src-20121018/build.arm.cortex-a15/obj/glibc_0_final/elf/dl-allobjs.os
                0x0000000000000000                _dl_init_internal
                0x0000000000000000                _dl_init

.text._dl_sort_fini
                0x0000000000000000      0x1f0
 .text._dl_sort_fini
                0x0000000000000000      0x1f0 /home6/daewon2/Release/glibc/SP/SP_Linux/LP_Linux_Prj/REL/VDLinux.3.x.2012/toolchain/src/arm-mips-src-20121018/build.arm.cortex-a15/obj/glibc_0_final/elf/dl-allobjs.os
                0x0000000000000000                _dl_sort_fini

.text._dl_fini  0x0000000000000000      0x538
 .text._dl_fini
                0x0000000000000000      0x538 /home6/daewon2/Release/glibc/SP/SP_Linux/LP_Linux_Prj/REL/VDLinux.3.x.2012/toolchain/src/arm-mips-src-20121018/build.arm.cortex-a15/obj/glibc_0_final/elf/dl-allobjs.os
                0x0000000000000000                _dl_fini

.text.__GI__dl_debug_state
                0x0000000000000000        0x4
 .text.__GI__dl_debug_state
                0x0000000000000000        0x4 /home6/daewon2/Release/glibc/SP/SP_Linux/LP_Linux_Prj/REL/VDLinux.3.x.2012/toolchain/src/arm-mips-src-20121018/build.arm.cortex-a15/obj/glibc_0_final/elf/dl-allobjs.os
                0x0000000000000000                _dl_debug_state
                0x0000000000000000                __GI__dl_debug_state

.text._dl_debug_initialize
                0x0000000000000000       0xc0
 .text._dl_debug_initialize
                0x0000000000000000       0xc0 /home6/daewon2/Release/glibc/SP/SP_Linux/LP_Linux_Prj/REL/VDLinux.3.x.2012/toolchain/src/arm-mips-src-20121018/build.arm.cortex-a15/obj/glibc_0_final/elf/dl-allobjs.os
                0x0000000000000000                _dl_debug_initialize

.text._dl_debug_vdprintf
                0x0000000000000000      0x3e8
 .text._dl_debug_vdprintf
                0x0000000000000000      0x3e8 /home6/daewon2/Release/glibc/SP/SP_Linux/LP_Linux_Prj/REL/VDLinux.3.x.2012/toolchain/src/arm-mips-src-20121018/build.arm.cortex-a15/obj/glibc_0_final/elf/dl-allobjs.os

.text._dl_sysdep_read_whole_file
                0x0000000000000000       0x88
 .text._dl_sysdep_read_whole_file
                0x0000000000000000       0x88 /home6/daewon2/Release/glibc/SP/SP_Linux/LP_Linux_Prj/REL/VDLinux.3.x.2012/toolchain/src/arm-mips-src-20121018/build.arm.cortex-a15/obj/glibc_0_final/elf/dl-allobjs.os
                0x0000000000000000                _dl_sysdep_read_whole_file

.text._dl_debug_printf
                0x0000000000000000       0x44
 .text._dl_debug_printf
                0x0000000000000000       0x44 /home6/daewon2/Release/glibc/SP/SP_Linux/LP_Linux_Prj/REL/VDLinux.3.x.2012/toolchain/src/arm-mips-src-20121018/build.arm.cortex-a15/obj/glibc_0_final/elf/dl-allobjs.os
                0x0000000000000000                _dl_debug_printf

.text._dl_debug_printf_c
                0x0000000000000000       0x44
 .text._dl_debug_printf_c
                0x0000000000000000       0x44 /home6/daewon2/Release/glibc/SP/SP_Linux/LP_Linux_Prj/REL/VDLinux.3.x.2012/toolchain/src/arm-mips-src-20121018/build.arm.cortex-a15/obj/glibc_0_final/elf/dl-allobjs.os
                0x0000000000000000                _dl_debug_printf_c

.text._dl_dprintf
                0x0000000000000000       0x34
 .text._dl_dprintf
                0x0000000000000000       0x34 /home6/daewon2/Release/glibc/SP/SP_Linux/LP_Linux_Prj/REL/VDLinux.3.x.2012/toolchain/src/arm-mips-src-20121018/build.arm.cortex-a15/obj/glibc_0_final/elf/dl-allobjs.os
                0x0000000000000000                _dl_dprintf

.text._dl_name_match_p
                0x0000000000000000       0x60
 .text._dl_name_match_p
                0x0000000000000000       0x60 /home6/daewon2/Release/glibc/SP/SP_Linux/LP_Linux_Prj/REL/VDLinux.3.x.2012/toolchain/src/arm-mips-src-20121018/build.arm.cortex-a15/obj/glibc_0_final/elf/dl-allobjs.os
                0x0000000000000000                _dl_name_match_p

.text._dl_higher_prime_number
                0x0000000000000000       0x80
 .text._dl_higher_prime_number
                0x0000000000000000       0x80 /home6/daewon2/Release/glibc/SP/SP_Linux/LP_Linux_Prj/REL/VDLinux.3.x.2012/toolchain/src/arm-mips-src-20121018/build.arm.cortex-a15/obj/glibc_0_final/elf/dl-allobjs.os
                0x0000000000000000                _dl_higher_prime_number

.text.match_symbol
                0x0000000000000000      0x3b8
 .text.match_symbol
                0x0000000000000000      0x3b8 /home6/daewon2/Release/glibc/SP/SP_Linux/LP_Linux_Prj/REL/VDLinux.3.x.2012/toolchain/src/arm-mips-src-20121018/build.arm.cortex-a15/obj/glibc_0_final/elf/dl-allobjs.os

.text._dl_check_map_versions
                0x0000000000000000      0x438
 .text._dl_check_map_versions
                0x0000000000000000      0x438 /home6/daewon2/Release/glibc/SP/SP_Linux/LP_Linux_Prj/REL/VDLinux.3.x.2012/toolchain/src/arm-mips-src-20121018/build.arm.cortex-a15/obj/glibc_0_final/elf/dl-allobjs.os
                0x0000000000000000                _dl_check_map_versions

.text._dl_check_all_versions
                0x0000000000000000       0x78
 .text._dl_check_all_versions
                0x0000000000000000       0x78 /home6/daewon2/Release/glibc/SP/SP_Linux/LP_Linux_Prj/REL/VDLinux.3.x.2012/toolchain/src/arm-mips-src-20121018/build.arm.cortex-a15/obj/glibc_0_final/elf/dl-allobjs.os
                0x0000000000000000                _dl_check_all_versions

.text._dl_start_profile
                0x0000000000000000      0x690
 .text._dl_start_profile
                0x0000000000000000      0x690 /home6/daewon2/Release/glibc/SP/SP_Linux/LP_Linux_Prj/REL/VDLinux.3.x.2012/toolchain/src/arm-mips-src-20121018/build.arm.cortex-a15/obj/glibc_0_final/elf/dl-allobjs.os
                0x0000000000000000                _dl_start_profile

.text._dl_mcount
                0x0000000000000000      0x420
 .text._dl_mcount
                0x0000000000000000      0x420 /home6/daewon2/Release/glibc/SP/SP_Linux/LP_Linux_Prj/REL/VDLinux.3.x.2012/toolchain/src/arm-mips-src-20121018/build.arm.cortex-a15/obj/glibc_0_final/elf/dl-allobjs.os
                0x0000000000000000                _dl_mcount_internal
                0x0000000000000000                _dl_mcount

.text._dl_resolve_conflicts
                0x0000000000000000      0x328
 .text._dl_resolve_conflicts
                0x0000000000000000      0x328 /home6/daewon2/Release/glibc/SP/SP_Linux/LP_Linux_Prj/REL/VDLinux.3.x.2012/toolchain/src/arm-mips-src-20121018/build.arm.cortex-a15/obj/glibc_0_final/elf/dl-allobjs.os
                0x0000000000000000                _dl_resolve_conflicts

.text.unlikely.oom
                0x0000000000000000       0x20
 .text.unlikely.oom
                0x0000000000000000       0x20 /home6/daewon2/Release/glibc/SP/SP_Linux/LP_Linux_Prj/REL/VDLinux.3.x.2012/toolchain/src/arm-mips-src-20121018/build.arm.cortex-a15/obj/glibc_0_final/elf/dl-allobjs.os

.text.unlikely.tls_get_addr_tail
                0x0000000000000000      0x10c
 .text.unlikely.tls_get_addr_tail
                0x0000000000000000      0x10c /home6/daewon2/Release/glibc/SP/SP_Linux/LP_Linux_Prj/REL/VDLinux.3.x.2012/toolchain/src/arm-mips-src-20121018/build.arm.cortex-a15/obj/glibc_0_final/elf/dl-allobjs.os

.text.allocate_dtv
                0x0000000000000000       0x40
 .text.allocate_dtv
                0x0000000000000000       0x40 /home6/daewon2/Release/glibc/SP/SP_Linux/LP_Linux_Prj/REL/VDLinux.3.x.2012/toolchain/src/arm-mips-src-20121018/build.arm.cortex-a15/obj/glibc_0_final/elf/dl-allobjs.os

.text._dl_next_tls_modid
                0x0000000000000000      0x120
 .text._dl_next_tls_modid
                0x0000000000000000      0x120 /home6/daewon2/Release/glibc/SP/SP_Linux/LP_Linux_Prj/REL/VDLinux.3.x.2012/toolchain/src/arm-mips-src-20121018/build.arm.cortex-a15/obj/glibc_0_final/elf/dl-allobjs.os
                0x0000000000000000                _dl_next_tls_modid

.text._dl_determine_tlsoffset
                0x0000000000000000      0x1e8
 .text._dl_determine_tlsoffset
                0x0000000000000000      0x1e8 /home6/daewon2/Release/glibc/SP/SP_Linux/LP_Linux_Prj/REL/VDLinux.3.x.2012/toolchain/src/arm-mips-src-20121018/build.arm.cortex-a15/obj/glibc_0_final/elf/dl-allobjs.os
                0x0000000000000000                _dl_determine_tlsoffset

.text.__GI__dl_tls_setup
                0x0000000000000000       0xc0
 .text.__GI__dl_tls_setup
                0x0000000000000000       0xc0 /home6/daewon2/Release/glibc/SP/SP_Linux/LP_Linux_Prj/REL/VDLinux.3.x.2012/toolchain/src/arm-mips-src-20121018/build.arm.cortex-a15/obj/glibc_0_final/elf/dl-allobjs.os
                0x0000000000000000                __GI__dl_tls_setup
                0x0000000000000000                _dl_tls_setup

.text._dl_get_tls_static_info
                0x0000000000000000       0x20
 .text._dl_get_tls_static_info
                0x0000000000000000       0x20 /home6/daewon2/Release/glibc/SP/SP_Linux/LP_Linux_Prj/REL/VDLinux.3.x.2012/toolchain/src/arm-mips-src-20121018/build.arm.cortex-a15/obj/glibc_0_final/elf/dl-allobjs.os
                0x0000000000000000                _dl_get_tls_static_info

.text._dl_allocate_tls_storage
                0x0000000000000000       0x84
 .text._dl_allocate_tls_storage
                0x0000000000000000       0x84 /home6/daewon2/Release/glibc/SP/SP_Linux/LP_Linux_Prj/REL/VDLinux.3.x.2012/toolchain/src/arm-mips-src-20121018/build.arm.cortex-a15/obj/glibc_0_final/elf/dl-allobjs.os
                0x0000000000000000                _dl_allocate_tls_storage

.text.__GI__dl_allocate_tls_init
                0x0000000000000000      0x1f0
 .text.__GI__dl_allocate_tls_init
                0x0000000000000000      0x1f0 /home6/daewon2/Release/glibc/SP/SP_Linux/LP_Linux_Prj/REL/VDLinux.3.x.2012/toolchain/src/arm-mips-src-20121018/build.arm.cortex-a15/obj/glibc_0_final/elf/dl-allobjs.os
                0x0000000000000000                __GI__dl_allocate_tls_init
                0x0000000000000000                _dl_allocate_tls_init

.text.__GI__dl_allocate_tls
                0x0000000000000000       0x20
 .text.__GI__dl_allocate_tls
                0x0000000000000000       0x20 /home6/daewon2/Release/glibc/SP/SP_Linux/LP_Linux_Prj/REL/VDLinux.3.x.2012/toolchain/src/arm-mips-src-20121018/build.arm.cortex-a15/obj/glibc_0_final/elf/dl-allobjs.os
                0x0000000000000000                __GI__dl_allocate_tls
                0x0000000000000000                _dl_allocate_tls

.text.__GI__dl_deallocate_tls
                0x0000000000000000       0xa8
 .text.__GI__dl_deallocate_tls
                0x0000000000000000       0xa8 /home6/daewon2/Release/glibc/SP/SP_Linux/LP_Linux_Prj/REL/VDLinux.3.x.2012/toolchain/src/arm-mips-src-20121018/build.arm.cortex-a15/obj/glibc_0_final/elf/dl-allobjs.os
                0x0000000000000000                _dl_deallocate_tls
                0x0000000000000000                __GI__dl_deallocate_tls

.text._dl_update_slotinfo
                0x0000000000000000      0x2d4
 .text._dl_update_slotinfo
                0x0000000000000000      0x2d4 /home6/daewon2/Release/glibc/SP/SP_Linux/LP_Linux_Prj/REL/VDLinux.3.x.2012/toolchain/src/arm-mips-src-20121018/build.arm.cortex-a15/obj/glibc_0_final/elf/dl-allobjs.os
                0x0000000000000000                _dl_update_slotinfo

.text.__tls_get_addr
                0x0000000000000000       0x6c
 .text.__tls_get_addr
                0x0000000000000000       0x6c /home6/daewon2/Release/glibc/SP/SP_Linux/LP_Linux_Prj/REL/VDLinux.3.x.2012/toolchain/src/arm-mips-src-20121018/build.arm.cortex-a15/obj/glibc_0_final/elf/dl-allobjs.os
                0x0000000000000000                __tls_get_addr

.text._dl_tls_get_addr_soft
                0x0000000000000000       0x94
 .text._dl_tls_get_addr_soft
                0x0000000000000000       0x94 /home6/daewon2/Release/glibc/SP/SP_Linux/LP_Linux_Prj/REL/VDLinux.3.x.2012/toolchain/src/arm-mips-src-20121018/build.arm.cortex-a15/obj/glibc_0_final/elf/dl-allobjs.os
                0x0000000000000000                _dl_tls_get_addr_soft

.text._dl_add_to_slotinfo
                0x0000000000000000      0x110
 .text._dl_add_to_slotinfo
                0x0000000000000000      0x110 /home6/daewon2/Release/glibc/SP/SP_Linux/LP_Linux_Prj/REL/VDLinux.3.x.2012/toolchain/src/arm-mips-src-20121018/build.arm.cortex-a15/obj/glibc_0_final/elf/dl-allobjs.os
                0x0000000000000000                _dl_add_to_slotinfo

.text._dl_get_origin
                0x0000000000000000      0x1b8
 .text._dl_get_origin
                0x0000000000000000      0x1b8 /home6/daewon2/Release/glibc/SP/SP_Linux/LP_Linux_Prj/REL/VDLinux.3.x.2012/toolchain/src/arm-mips-src-20121018/build.arm.cortex-a15/obj/glibc_0_final/elf/dl-allobjs.os
                0x0000000000000000                _dl_get_origin

.text._dl_scope_free
                0x0000000000000000       0xe8
 .text._dl_scope_free
                0x0000000000000000       0xe8 /home6/daewon2/Release/glibc/SP/SP_Linux/LP_Linux_Prj/REL/VDLinux.3.x.2012/toolchain/src/arm-mips-src-20121018/build.arm.cortex-a15/obj/glibc_0_final/elf/dl-allobjs.os
                0x0000000000000000                _dl_scope_free

.text.__GI__dl_make_stack_executable
                0x0000000000000000       0xb4
 .text.__GI__dl_make_stack_executable
                0x0000000000000000       0xb4 /home6/daewon2/Release/glibc/SP/SP_Linux/LP_Linux_Prj/REL/VDLinux.3.x.2012/toolchain/src/arm-mips-src-20121018/build.arm.cortex-a15/obj/glibc_0_final/elf/dl-allobjs.os
                0x0000000000000000                _dl_make_stack_executable
                0x0000000000000000                __GI__dl_make_stack_executable

.text._dl_check_caller
                0x0000000000000000      0x26c
 .text._dl_check_caller
                0x0000000000000000      0x26c /home6/daewon2/Release/glibc/SP/SP_Linux/LP_Linux_Prj/REL/VDLinux.3.x.2012/toolchain/src/arm-mips-src-20121018/build.arm.cortex-a15/obj/glibc_0_final/elf/dl-allobjs.os
                0x0000000000000000                _dl_check_caller

.text.add_to_global
                0x0000000000000000      0x1b0
 .text.add_to_global
                0x0000000000000000      0x1b0 /home6/daewon2/Release/glibc/SP/SP_Linux/LP_Linux_Prj/REL/VDLinux.3.x.2012/toolchain/src/arm-mips-src-20121018/build.arm.cortex-a15/obj/glibc_0_final/elf/dl-allobjs.os

.text._dl_open  0x0000000000000000      0x3b0
 .text._dl_open
                0x0000000000000000      0x3b0 /home6/daewon2/Release/glibc/SP/SP_Linux/LP_Linux_Prj/REL/VDLinux.3.x.2012/toolchain/src/arm-mips-src-20121018/build.arm.cortex-a15/obj/glibc_0_final/elf/dl-allobjs.os
                0x0000000000000000                _dl_open

.text._dl_addr_inside_object
                0x0000000000000000       0x68
 .text._dl_addr_inside_object
                0x0000000000000000       0x68 /home6/daewon2/Release/glibc/SP/SP_Linux/LP_Linux_Prj/REL/VDLinux.3.x.2012/toolchain/src/arm-mips-src-20121018/build.arm.cortex-a15/obj/glibc_0_final/elf/dl-allobjs.os
                0x0000000000000000                _dl_addr_inside_object

.text.dl_open_worker
                0x0000000000000000      0x898
 .text.dl_open_worker
                0x0000000000000000      0x898 /home6/daewon2/Release/glibc/SP/SP_Linux/LP_Linux_Prj/REL/VDLinux.3.x.2012/toolchain/src/arm-mips-src-20121018/build.arm.cortex-a15/obj/glibc_0_final/elf/dl-allobjs.os

.text.remove_slotinfo
                0x0000000000000000      0x178
 .text.remove_slotinfo
                0x0000000000000000      0x178 /home6/daewon2/Release/glibc/SP/SP_Linux/LP_Linux_Prj/REL/VDLinux.3.x.2012/toolchain/src/arm-mips-src-20121018/build.arm.cortex-a15/obj/glibc_0_final/elf/dl-allobjs.os

.text._dl_close_worker
                0x0000000000000000      0xfd8
 .text._dl_close_worker
                0x0000000000000000      0xfd8 /home6/daewon2/Release/glibc/SP/SP_Linux/LP_Linux_Prj/REL/VDLinux.3.x.2012/toolchain/src/arm-mips-src-20121018/build.arm.cortex-a15/obj/glibc_0_final/elf/dl-allobjs.os
                0x0000000000000000                _dl_close_worker

.text._dl_close
                0x0000000000000000       0xc4
 .text._dl_close
                0x0000000000000000       0xc4 /home6/daewon2/Release/glibc/SP/SP_Linux/LP_Linux_Prj/REL/VDLinux.3.x.2012/toolchain/src/arm-mips-src-20121018/build.arm.cortex-a15/obj/glibc_0_final/elf/dl-allobjs.os
                0x0000000000000000                _dl_close

.text._dl_sysdep_start
                0x0000000000000000      0x3b8
 .text._dl_sysdep_start
                0x0000000000000000      0x3b8 /home6/daewon2/Release/glibc/SP/SP_Linux/LP_Linux_Prj/REL/VDLinux.3.x.2012/toolchain/src/arm-mips-src-20121018/build.arm.cortex-a15/obj/glibc_0_final/elf/dl-allobjs.os
                0x0000000000000000                _dl_sysdep_start

.text._dl_sysdep_start_cleanup
                0x0000000000000000        0x4
 .text._dl_sysdep_start_cleanup
                0x0000000000000000        0x4 /home6/daewon2/Release/glibc/SP/SP_Linux/LP_Linux_Prj/REL/VDLinux.3.x.2012/toolchain/src/arm-mips-src-20121018/build.arm.cortex-a15/obj/glibc_0_final/elf/dl-allobjs.os
                0x0000000000000000                _dl_sysdep_start_cleanup

.text._dl_show_auxv
                0x0000000000000000      0x230
 .text._dl_show_auxv
                0x0000000000000000      0x230 /home6/daewon2/Release/glibc/SP/SP_Linux/LP_Linux_Prj/REL/VDLinux.3.x.2012/toolchain/src/arm-mips-src-20121018/build.arm.cortex-a15/obj/glibc_0_final/elf/dl-allobjs.os
                0x0000000000000000                _dl_show_auxv

.text._dl_important_hwcaps
                0x0000000000000000      0x80c
 .text._dl_important_hwcaps
                0x0000000000000000      0x80c /home6/daewon2/Release/glibc/SP/SP_Linux/LP_Linux_Prj/REL/VDLinux.3.x.2012/toolchain/src/arm-mips-src-20121018/build.arm.cortex-a15/obj/glibc_0_final/elf/dl-allobjs.os
                0x0000000000000000                _dl_important_hwcaps

.text._dl_discover_osversion
                0x0000000000000000      0x1f0
 .text._dl_discover_osversion
                0x0000000000000000      0x1f0 /home6/daewon2/Release/glibc/SP/SP_Linux/LP_Linux_Prj/REL/VDLinux.3.x.2012/toolchain/src/arm-mips-src-20121018/build.arm.cortex-a15/obj/glibc_0_final/elf/dl-allobjs.os
                0x0000000000000000                _dl_discover_osversion

.text._dl_next_ld_env_entry
                0x0000000000000000       0x58
 .text._dl_next_ld_env_entry
                0x0000000000000000       0x58 /home6/daewon2/Release/glibc/SP/SP_Linux/LP_Linux_Prj/REL/VDLinux.3.x.2012/toolchain/src/arm-mips-src-20121018/build.arm.cortex-a15/obj/glibc_0_final/elf/dl-allobjs.os
                0x0000000000000000                _dl_next_ld_env_entry

.text.unsetenv  0x0000000000000000       0x98
 .text.unsetenv
                0x0000000000000000       0x98 /home6/daewon2/Release/glibc/SP/SP_Linux/LP_Linux_Prj/REL/VDLinux.3.x.2012/toolchain/src/arm-mips-src-20121018/build.arm.cortex-a15/obj/glibc_0_final/elf/dl-allobjs.os
                0x0000000000000000                unsetenv

.text.__libc_memalign
                0x0000000000000000      0x150
 .text.__libc_memalign
                0x0000000000000000      0x150 /home6/daewon2/Release/glibc/SP/SP_Linux/LP_Linux_Prj/REL/VDLinux.3.x.2012/toolchain/src/arm-mips-src-20121018/build.arm.cortex-a15/obj/glibc_0_final/elf/dl-allobjs.os
                0x0000000000000000                __libc_memalign

.text.malloc    0x0000000000000000        0xc
 .text.malloc   0x0000000000000000        0xc /home6/daewon2/Release/glibc/SP/SP_Linux/LP_Linux_Prj/REL/VDLinux.3.x.2012/toolchain/src/arm-mips-src-20121018/build.arm.cortex-a15/obj/glibc_0_final/elf/dl-allobjs.os
                0x0000000000000000                malloc

.text.calloc    0x0000000000000000       0x40
 .text.calloc   0x0000000000000000       0x40 /home6/daewon2/Release/glibc/SP/SP_Linux/LP_Linux_Prj/REL/VDLinux.3.x.2012/toolchain/src/arm-mips-src-20121018/build.arm.cortex-a15/obj/glibc_0_final/elf/dl-allobjs.os
                0x0000000000000000                calloc

.text.free      0x0000000000000000       0x38
 .text.free     0x0000000000000000       0x38 /home6/daewon2/Release/glibc/SP/SP_Linux/LP_Linux_Prj/REL/VDLinux.3.x.2012/toolchain/src/arm-mips-src-20121018/build.arm.cortex-a15/obj/glibc_0_final/elf/dl-allobjs.os
                0x0000000000000000                free

.text.__sigjmp_save
                0x0000000000000000       0x14
 .text.__sigjmp_save
                0x0000000000000000       0x14 /home6/daewon2/Release/glibc/SP/SP_Linux/LP_Linux_Prj/REL/VDLinux.3.x.2012/toolchain/src/arm-mips-src-20121018/build.arm.cortex-a15/obj/glibc_0_final/elf/dl-allobjs.os
                0x0000000000000000                __sigjmp_save

.text.__GI___assert_fail
                0x0000000000000000       0x60
 .text.__GI___assert_fail
                0x0000000000000000       0x60 /home6/daewon2/Release/glibc/SP/SP_Linux/LP_Linux_Prj/REL/VDLinux.3.x.2012/toolchain/src/arm-mips-src-20121018/build.arm.cortex-a15/obj/glibc_0_final/elf/dl-allobjs.os
                0x0000000000000000                __GI___assert_fail
                0x0000000000000000                __assert_fail

.text.realloc   0x0000000000000000       0x84
 .text.realloc  0x0000000000000000       0x84 /home6/daewon2/Release/glibc/SP/SP_Linux/LP_Linux_Prj/REL/VDLinux.3.x.2012/toolchain/src/arm-mips-src-20121018/build.arm.cortex-a15/obj/glibc_0_final/elf/dl-allobjs.os
                0x0000000000000000                realloc

.text.__strtoul_internal
                0x0000000000000000      0x190
 .text.__strtoul_internal
                0x0000000000000000      0x190 /home6/daewon2/Release/glibc/SP/SP_Linux/LP_Linux_Prj/REL/VDLinux.3.x.2012/toolchain/src/arm-mips-src-20121018/build.arm.cortex-a15/obj/glibc_0_final/elf/dl-allobjs.os
                0x0000000000000000                __strtoul_internal

.text._itoa     0x0000000000000000       0xa8
 .text._itoa    0x0000000000000000       0xa8 /home6/daewon2/Release/glibc/SP/SP_Linux/LP_Linux_Prj/REL/VDLinux.3.x.2012/toolchain/src/arm-mips-src-20121018/build.arm.cortex-a15/obj/glibc_0_final/elf/dl-allobjs.os
                0x0000000000000000                _itoa

.text.__strerror_r
                0x0000000000000000      0x118
 .text.__strerror_r
                0x0000000000000000      0x118 /home6/daewon2/Release/glibc/SP/SP_Linux/LP_Linux_Prj/REL/VDLinux.3.x.2012/toolchain/src/arm-mips-src-20121018/build.arm.cortex-a15/obj/glibc_0_final/elf/dl-allobjs.os
                0x0000000000000000                __strerror_r

.text.__GI___assert_perror_fail
                0x0000000000000000       0x70
 .text.__GI___assert_perror_fail
                0x0000000000000000       0x70 /home6/daewon2/Release/glibc/SP/SP_Linux/LP_Linux_Prj/REL/VDLinux.3.x.2012/toolchain/src/arm-mips-src-20121018/build.arm.cortex-a15/obj/glibc_0_final/elf/dl-allobjs.os
                0x0000000000000000                __GI___assert_perror_fail
                0x0000000000000000                __assert_perror_fail

.text.__strsep  0x0000000000000000       0xa8
 .text.__strsep
                0x0000000000000000       0xa8 /home6/daewon2/Release/glibc/SP/SP_Linux/LP_Linux_Prj/REL/VDLinux.3.x.2012/toolchain/src/arm-mips-src-20121018/build.arm.cortex-a15/obj/glibc_0_final/elf/dl-allobjs.os
                0x0000000000000000                __strsep
                0x0000000000000000                strsep
                0x0000000000000000                __strsep_g

.text.__GI___chk_fail
                0x0000000000000000        0xc
 .text.__GI___chk_fail
                0x0000000000000000        0xc /home6/daewon2/Release/glibc/SP/SP_Linux/LP_Linux_Prj/REL/VDLinux.3.x.2012/toolchain/src/arm-mips-src-20121018/build.arm.cortex-a15/obj/glibc_0_final/elf/dl-allobjs.os
                0x0000000000000000                __GI___chk_fail
                0x0000000000000000                __chk_fail

.text.__brk     0x0000000000000000       0x88
 .text.__brk    0x0000000000000000       0x88 /home6/daewon2/Release/glibc/SP/SP_Linux/LP_Linux_Prj/REL/VDLinux.3.x.2012/toolchain/src/arm-mips-src-20121018/build.arm.cortex-a15/obj/glibc_0_final/elf/dl-allobjs.os
                0x0000000000000000                __brk
                0x0000000000000000                brk

.text.__sbrk    0x0000000000000000       0x9c
 .text.__sbrk   0x0000000000000000       0x9c /home6/daewon2/Release/glibc/SP/SP_Linux/LP_Linux_Prj/REL/VDLinux.3.x.2012/toolchain/src/arm-mips-src-20121018/build.arm.cortex-a15/obj/glibc_0_final/elf/dl-allobjs.os
                0x0000000000000000                sbrk
                0x0000000000000000                __sbrk

.text.generic_getcwd
                0x0000000000000000      0x5fc
 .text.generic_getcwd
                0x0000000000000000      0x5fc /home6/daewon2/Release/glibc/SP/SP_Linux/LP_Linux_Prj/REL/VDLinux.3.x.2012/toolchain/src/arm-mips-src-20121018/build.arm.cortex-a15/obj/glibc_0_final/elf/dl-allobjs.os

.text.__getcwd  0x0000000000000000       0xb4
 .text.__getcwd
                0x0000000000000000       0xb4 /home6/daewon2/Release/glibc/SP/SP_Linux/LP_Linux_Prj/REL/VDLinux.3.x.2012/toolchain/src/arm-mips-src-20121018/build.arm.cortex-a15/obj/glibc_0_final/elf/dl-allobjs.os
                0x0000000000000000                __getcwd
                0x0000000000000000                getcwd

.text.openat64  0x0000000000000000       0x7c
 .text.openat64
                0x0000000000000000       0x7c /home6/daewon2/Release/glibc/SP/SP_Linux/LP_Linux_Prj/REL/VDLinux.3.x.2012/toolchain/src/arm-mips-src-20121018/build.arm.cortex-a15/obj/glibc_0_final/elf/dl-allobjs.os
                0x0000000000000000                openat64

.text.__alloc_dir
                0x0000000000000000       0xcc
 .text.__alloc_dir
                0x0000000000000000       0xcc /home6/daewon2/Release/glibc/SP/SP_Linux/LP_Linux_Prj/REL/VDLinux.3.x.2012/toolchain/src/arm-mips-src-20121018/build.arm.cortex-a15/obj/glibc_0_final/elf/dl-allobjs.os
                0x0000000000000000                __alloc_dir

.text.__opendir
                0x0000000000000000       0x88
 .text.__opendir
                0x0000000000000000       0x88 /home6/daewon2/Release/glibc/SP/SP_Linux/LP_Linux_Prj/REL/VDLinux.3.x.2012/toolchain/src/arm-mips-src-20121018/build.arm.cortex-a15/obj/glibc_0_final/elf/dl-allobjs.os
                0x0000000000000000                __opendir
                0x0000000000000000                opendir

.text.__fxstatat64
                0x0000000000000000       0x70
 .text.__fxstatat64
                0x0000000000000000       0x70 /home6/daewon2/Release/glibc/SP/SP_Linux/LP_Linux_Prj/REL/VDLinux.3.x.2012/toolchain/src/arm-mips-src-20121018/build.arm.cortex-a15/obj/glibc_0_final/elf/dl-allobjs.os
                0x0000000000000000                __fxstatat64

.text.__aeabi_unwind_cpp_pr0
                0x0000000000000000        0x4
 .text.__aeabi_unwind_cpp_pr0
                0x0000000000000000        0x4 /home6/daewon2/Release/glibc/SP/SP_Linux/LP_Linux_Prj/REL/VDLinux.3.x.2012/toolchain/src/arm-mips-src-20121018/build.arm.cortex-a15/obj/glibc_0_final/elf/dl-allobjs.os
                0x0000000000000000                __aeabi_unwind_cpp_pr0

.text.__aeabi_unwind_cpp_pr1
                0x0000000000000000        0x4
 .text.__aeabi_unwind_cpp_pr1
                0x0000000000000000        0x4 /home6/daewon2/Release/glibc/SP/SP_Linux/LP_Linux_Prj/REL/VDLinux.3.x.2012/toolchain/src/arm-mips-src-20121018/build.arm.cortex-a15/obj/glibc_0_final/elf/dl-allobjs.os
                0x0000000000000000                __aeabi_unwind_cpp_pr1

.text.__aeabi_unwind_cpp_pr2
                0x0000000000000000        0x4
 .text.__aeabi_unwind_cpp_pr2
                0x0000000000000000        0x4 /home6/daewon2/Release/glibc/SP/SP_Linux/LP_Linux_Prj/REL/VDLinux.3.x.2012/toolchain/src/arm-mips-src-20121018/build.arm.cortex-a15/obj/glibc_0_final/elf/dl-allobjs.os
                0x0000000000000000                __aeabi_unwind_cpp_pr2

.text._dl_make_tlsdesc_dynamic
                0x0000000000000000      0x308
 .text._dl_make_tlsdesc_dynamic
                0x0000000000000000      0x308 /home6/daewon2/Release/glibc/SP/SP_Linux/LP_Linux_Prj/REL/VDLinux.3.x.2012/toolchain/src/arm-mips-src-20121018/build.arm.cortex-a15/obj/glibc_0_final/elf/dl-allobjs.os
                0x0000000000000000                _dl_make_tlsdesc_dynamic

.text._dl_tlsdesc_lazy_resolver_fixup
                0x0000000000000000      0x1d8
 .text._dl_tlsdesc_lazy_resolver_fixup
                0x0000000000000000      0x1d8 /home6/daewon2/Release/glibc/SP/SP_Linux/LP_Linux_Prj/REL/VDLinux.3.x.2012/toolchain/src/arm-mips-src-20121018/build.arm.cortex-a15/obj/glibc_0_final/elf/dl-allobjs.os
                0x0000000000000000                _dl_tlsdesc_lazy_resolver_fixup

.text._dl_tlsdesc_resolve_hold_fixup
                0x0000000000000000       0x40
 .text._dl_tlsdesc_resolve_hold_fixup
                0x0000000000000000       0x40 /home6/daewon2/Release/glibc/SP/SP_Linux/LP_Linux_Prj/REL/VDLinux.3.x.2012/toolchain/src/arm-mips-src-20121018/build.arm.cortex-a15/obj/glibc_0_final/elf/dl-allobjs.os
                0x0000000000000000                _dl_tlsdesc_resolve_hold_fixup

.text._dl_unmap
                0x0000000000000000       0x70
 .text._dl_unmap
                0x0000000000000000       0x70 /home6/daewon2/Release/glibc/SP/SP_Linux/LP_Linux_Prj/REL/VDLinux.3.x.2012/toolchain/src/arm-mips-src-20121018/build.arm.cortex-a15/obj/glibc_0_final/elf/dl-allobjs.os
                0x0000000000000000                _dl_unmap

.text.check_one_fd
                0x0000000000000000       0xec
 .text.check_one_fd
                0x0000000000000000       0xec /home6/daewon2/Release/glibc/SP/SP_Linux/LP_Linux_Prj/REL/VDLinux.3.x.2012/toolchain/src/arm-mips-src-20121018/build.arm.cortex-a15/obj/glibc_0_final/libc_pic.a(check_fds.os)

.text.__libc_check_standard_fds
                0x0000000000000000       0x2c
 .text.__libc_check_standard_fds
                0x0000000000000000       0x2c /home6/daewon2/Release/glibc/SP/SP_Linux/LP_Linux_Prj/REL/VDLinux.3.x.2012/toolchain/src/arm-mips-src-20121018/build.arm.cortex-a15/obj/glibc_0_final/libc_pic.a(check_fds.os)
                0x0000000000000000                __libc_check_standard_fds

.text.__udivmoddi4
                0x0000000000000000      0x3c8
 .text.__udivmoddi4
                0x0000000000000000      0x3c8 /home6/daewon2/Release/glibc/SP/SP_Linux/LP_Linux_Prj/REL/VDLinux.3.x.2012/toolchain/src/arm-mips-src-20121018/build.arm.cortex-a15/obj/glibc_0_final/libc_pic.a(divdi3.os)

.text.__divdi3  0x0000000000000000       0x80
 .text.__divdi3
                0x0000000000000000       0x80 /home6/daewon2/Release/glibc/SP/SP_Linux/LP_Linux_Prj/REL/VDLinux.3.x.2012/toolchain/src/arm-mips-src-20121018/build.arm.cortex-a15/obj/glibc_0_final/libc_pic.a(divdi3.os)
                0x0000000000000000                __divdi3@GLIBC_2.4
                0x0000000000000000                __divdi3_internal

.text.__moddi3  0x0000000000000000       0x88
 .text.__moddi3
                0x0000000000000000       0x88 /home6/daewon2/Release/glibc/SP/SP_Linux/LP_Linux_Prj/REL/VDLinux.3.x.2012/toolchain/src/arm-mips-src-20121018/build.arm.cortex-a15/obj/glibc_0_final/libc_pic.a(divdi3.os)
                0x0000000000000000                __moddi3@GLIBC_2.4
                0x0000000000000000                __moddi3_internal

.text.__udivdi3
                0x0000000000000000       0x1c
 .text.__udivdi3
                0x0000000000000000       0x1c /home6/daewon2/Release/glibc/SP/SP_Linux/LP_Linux_Prj/REL/VDLinux.3.x.2012/toolchain/src/arm-mips-src-20121018/build.arm.cortex-a15/obj/glibc_0_final/libc_pic.a(divdi3.os)
                0x0000000000000000                __udivdi3@GLIBC_2.4
                0x0000000000000000                __udivdi3_internal

.text.__umoddi3
                0x0000000000000000       0x24
 .text.__umoddi3
                0x0000000000000000       0x24 /home6/daewon2/Release/glibc/SP/SP_Linux/LP_Linux_Prj/REL/VDLinux.3.x.2012/toolchain/src/arm-mips-src-20121018/build.arm.cortex-a15/obj/glibc_0_final/libc_pic.a(divdi3.os)
                0x0000000000000000                __umoddi3_internal
                0x0000000000000000                __umoddi3@GLIBC_2.4

.text.__GI_strchr
                0x0000000000000000      0x13c
 .text.__GI_strchr
                0x0000000000000000      0x13c /home6/daewon2/Release/glibc/SP/SP_Linux/LP_Linux_Prj/REL/VDLinux.3.x.2012/toolchain/src/arm-mips-src-20121018/build.arm.cortex-a15/obj/glibc_0_final/libc_pic.a(strchr.os)
                0x0000000000000000                __GI_strchr
                0x0000000000000000                index
                0x0000000000000000                strchr

.text.__GI_strcmp
                0x0000000000000000       0x28
 .text.__GI_strcmp
                0x0000000000000000       0x28 /home6/daewon2/Release/glibc/SP/SP_Linux/LP_Linux_Prj/REL/VDLinux.3.x.2012/toolchain/src/arm-mips-src-20121018/build.arm.cortex-a15/obj/glibc_0_final/libc_pic.a(strcmp.os)
                0x0000000000000000                __GI_strcmp
                0x0000000000000000                strcmp

.text.__GI_strcpy
                0x0000000000000000       0x1c
 .text.__GI_strcpy
                0x0000000000000000       0x1c /home6/daewon2/Release/glibc/SP/SP_Linux/LP_Linux_Prj/REL/VDLinux.3.x.2012/toolchain/src/arm-mips-src-20121018/build.arm.cortex-a15/obj/glibc_0_final/libc_pic.a(strcpy.os)
                0x0000000000000000                strcpy
                0x0000000000000000                __GI_strcpy

.text.__strnlen
                0x0000000000000000       0xfc
 .text.__strnlen
                0x0000000000000000       0xfc /home6/daewon2/Release/glibc/SP/SP_Linux/LP_Linux_Prj/REL/VDLinux.3.x.2012/toolchain/src/arm-mips-src-20121018/build.arm.cortex-a15/obj/glibc_0_final/libc_pic.a(strnlen.os)
                0x0000000000000000                __strnlen
                0x0000000000000000                strnlen
                0x0000000000000000                __GI_strnlen

.text.__memchr  0x0000000000000000      0x144
 .text.__memchr
                0x0000000000000000      0x144 /home6/daewon2/Release/glibc/SP/SP_Linux/LP_Linux_Prj/REL/VDLinux.3.x.2012/toolchain/src/arm-mips-src-20121018/build.arm.cortex-a15/obj/glibc_0_final/libc_pic.a(memchr.os)
                0x0000000000000000                __GI_memchr
                0x0000000000000000                memchr
                0x0000000000000000                __memchr

.text.__GI_memcmp
                0x0000000000000000      0x46c
 .text.__GI_memcmp
                0x0000000000000000      0x46c /home6/daewon2/Release/glibc/SP/SP_Linux/LP_Linux_Prj/REL/VDLinux.3.x.2012/toolchain/src/arm-mips-src-20121018/build.arm.cortex-a15/obj/glibc_0_final/libc_pic.a(memcmp.os)
                0x0000000000000000                bcmp
                0x0000000000000000                __GI_memcmp
                0x0000000000000000                memcmp

.text.__GI___mempcpy
                0x0000000000000000       0xac
 .text.__GI___mempcpy
                0x0000000000000000       0xac /home6/daewon2/Release/glibc/SP/SP_Linux/LP_Linux_Prj/REL/VDLinux.3.x.2012/toolchain/src/arm-mips-src-20121018/build.arm.cortex-a15/obj/glibc_0_final/libc_pic.a(mempcpy.os)
                0x0000000000000000                mempcpy
                0x0000000000000000                __GI_mempcpy
                0x0000000000000000                __mempcpy
                0x0000000000000000                __GI___mempcpy

.text.__GI___stpcpy
                0x0000000000000000       0x24
 .text.__GI___stpcpy
                0x0000000000000000       0x24 /home6/daewon2/Release/glibc/SP/SP_Linux/LP_Linux_Prj/REL/VDLinux.3.x.2012/toolchain/src/arm-mips-src-20121018/build.arm.cortex-a15/obj/glibc_0_final/libc_pic.a(stpcpy.os)
                0x0000000000000000                stpcpy
                0x0000000000000000                __GI_stpcpy
                0x0000000000000000                __stpcpy
                0x0000000000000000                __GI___stpcpy

.text._wordcopy_fwd_aligned
                0x0000000000000000      0x114
 .text._wordcopy_fwd_aligned
                0x0000000000000000      0x114 /home6/daewon2/Release/glibc/SP/SP_Linux/LP_Linux_Prj/REL/VDLinux.3.x.2012/toolchain/src/arm-mips-src-20121018/build.arm.cortex-a15/obj/glibc_0_final/libc_pic.a(wordcopy.os)
                0x0000000000000000                _wordcopy_fwd_aligned

.text._wordcopy_fwd_dest_aligned
                0x0000000000000000       0xec
 .text._wordcopy_fwd_dest_aligned
                0x0000000000000000       0xec /home6/daewon2/Release/glibc/SP/SP_Linux/LP_Linux_Prj/REL/VDLinux.3.x.2012/toolchain/src/arm-mips-src-20121018/build.arm.cortex-a15/obj/glibc_0_final/libc_pic.a(wordcopy.os)
                0x0000000000000000                _wordcopy_fwd_dest_aligned

.text._wordcopy_bwd_aligned
                0x0000000000000000      0x134
 .text._wordcopy_bwd_aligned
                0x0000000000000000      0x134 /home6/daewon2/Release/glibc/SP/SP_Linux/LP_Linux_Prj/REL/VDLinux.3.x.2012/toolchain/src/arm-mips-src-20121018/build.arm.cortex-a15/obj/glibc_0_final/libc_pic.a(wordcopy.os)
                0x0000000000000000                _wordcopy_bwd_aligned

.text._wordcopy_bwd_dest_aligned
                0x0000000000000000      0x100
 .text._wordcopy_bwd_dest_aligned
                0x0000000000000000      0x100 /home6/daewon2/Release/glibc/SP/SP_Linux/LP_Linux_Prj/REL/VDLinux.3.x.2012/toolchain/src/arm-mips-src-20121018/build.arm.cortex-a15/obj/glibc_0_final/libc_pic.a(wordcopy.os)
                0x0000000000000000                _wordcopy_bwd_dest_aligned

.text.__GI___rawmemchr
                0x0000000000000000       0xdc
 .text.__GI___rawmemchr
                0x0000000000000000       0xdc /home6/daewon2/Release/glibc/SP/SP_Linux/LP_Linux_Prj/REL/VDLinux.3.x.2012/toolchain/src/arm-mips-src-20121018/build.arm.cortex-a15/obj/glibc_0_final/libc_pic.a(rawmemchr.os)
                0x0000000000000000                __GI___rawmemchr
                0x0000000000000000                __rawmemchr
                0x0000000000000000                rawmemchr

.text.__closedir
                0x0000000000000000       0x68
 .text.__closedir
                0x0000000000000000       0x68 /home6/daewon2/Release/glibc/SP/SP_Linux/LP_Linux_Prj/REL/VDLinux.3.x.2012/toolchain/src/arm-mips-src-20121018/build.arm.cortex-a15/obj/glibc_0_final/libc_pic.a(closedir.os)
                0x0000000000000000                __closedir
                0x0000000000000000                closedir

.text.__readdir
                0x0000000000000000      0x15c
 .text.__readdir
                0x0000000000000000      0x15c /home6/daewon2/Release/glibc/SP/SP_Linux/LP_Linux_Prj/REL/VDLinux.3.x.2012/toolchain/src/arm-mips-src-20121018/build.arm.cortex-a15/obj/glibc_0_final/libc_pic.a(readdir.os)
                0x0000000000000000                readdir
                0x0000000000000000                __readdir

.text.__GI_rewinddir
                0x0000000000000000       0xcc
 .text.__GI_rewinddir
                0x0000000000000000       0xcc /home6/daewon2/Release/glibc/SP/SP_Linux/LP_Linux_Prj/REL/VDLinux.3.x.2012/toolchain/src/arm-mips-src-20121018/build.arm.cortex-a15/obj/glibc_0_final/libc_pic.a(rewinddir.os)
                0x0000000000000000                rewinddir
                0x0000000000000000                __GI_rewinddir

.text.__getdents
                0x0000000000000000       0x8c
 .text.__getdents
                0x0000000000000000       0x8c /home6/daewon2/Release/glibc/SP/SP_Linux/LP_Linux_Prj/REL/VDLinux.3.x.2012/toolchain/src/arm-mips-src-20121018/build.arm.cortex-a15/obj/glibc_0_final/libc_pic.a(getdents.os)
                0x0000000000000000                __getdents

.text.__fdopendir
                0x0000000000000000       0xb8
 .text.__fdopendir
                0x0000000000000000       0xb8 /home6/daewon2/Release/glibc/SP/SP_Linux/LP_Linux_Prj/REL/VDLinux.3.x.2012/toolchain/src/arm-mips-src-20121018/build.arm.cortex-a15/obj/glibc_0_final/libc_pic.a(fdopendir.os)
                0x0000000000000000                fdopendir
                0x0000000000000000                __fdopendir

.text.__GI__exit
                0x0000000000000000       0x5c
 .text.__GI__exit
                0x0000000000000000       0x5c /home6/daewon2/Release/glibc/SP/SP_Linux/LP_Linux_Prj/REL/VDLinux.3.x.2012/toolchain/src/arm-mips-src-20121018/build.arm.cortex-a15/obj/glibc_0_final/libc_pic.a(_exit.os)
                0x0000000000000000                _Exit
                0x0000000000000000                __GI__exit
                0x0000000000000000                _exit

.text.__GI___getpid
                0x0000000000000000       0x4c
 .text.__GI___getpid
                0x0000000000000000       0x4c /home6/daewon2/Release/glibc/SP/SP_Linux/LP_Linux_Prj/REL/VDLinux.3.x.2012/toolchain/src/arm-mips-src-20121018/build.arm.cortex-a15/obj/glibc_0_final/libc_pic.a(getpid.os)
                0x0000000000000000                __getpid
                0x0000000000000000                getpid
                0x0000000000000000                __GI_getpid
                0x0000000000000000                __GI___getpid

.text.___xstat64
                0x0000000000000000       0x44
 .text.___xstat64
                0x0000000000000000       0x44 /home6/daewon2/Release/glibc/SP/SP_Linux/LP_Linux_Prj/REL/VDLinux.3.x.2012/toolchain/src/arm-mips-src-20121018/build.arm.cortex-a15/obj/glibc_0_final/libc_pic.a(xstat64.os)
                0x0000000000000000                ___xstat64
                0x0000000000000000                __xstat64
                0x0000000000000000                __GI___xstat64

.text.___fxstat64
                0x0000000000000000       0x44
 .text.___fxstat64
                0x0000000000000000       0x44 /home6/daewon2/Release/glibc/SP/SP_Linux/LP_Linux_Prj/REL/VDLinux.3.x.2012/toolchain/src/arm-mips-src-20121018/build.arm.cortex-a15/obj/glibc_0_final/libc_pic.a(fxstat64.os)
                0x0000000000000000                ___fxstat64
                0x0000000000000000                __GI___fxstat64
                0x0000000000000000                __fxstat64

.text.___lxstat64
                0x0000000000000000       0x44
 .text.___lxstat64
                0x0000000000000000       0x44 /home6/daewon2/Release/glibc/SP/SP_Linux/LP_Linux_Prj/REL/VDLinux.3.x.2012/toolchain/src/arm-mips-src-20121018/build.arm.cortex-a15/obj/glibc_0_final/libc_pic.a(lxstat64.os)
                0x0000000000000000                ___lxstat64
                0x0000000000000000                __lxstat64
                0x0000000000000000                __GI___lxstat64

.text.__fcntl_nocancel
                0x0000000000000000       0x5c
 .text.__fcntl_nocancel
                0x0000000000000000       0x5c /home6/daewon2/Release/glibc/SP/SP_Linux/LP_Linux_Prj/REL/VDLinux.3.x.2012/toolchain/src/arm-mips-src-20121018/build.arm.cortex-a15/obj/glibc_0_final/libc_pic.a(fcntl.os)
                0x0000000000000000                __fcntl_nocancel

.text.__GI___libc_fcntl
                0x0000000000000000       0xe4
 .text.__GI___libc_fcntl
                0x0000000000000000       0xe4 /home6/daewon2/Release/glibc/SP/SP_Linux/LP_Linux_Prj/REL/VDLinux.3.x.2012/toolchain/src/arm-mips-src-20121018/build.arm.cortex-a15/obj/glibc_0_final/libc_pic.a(fcntl.os)
                0x0000000000000000                __libc_fcntl
                0x0000000000000000                __GI___libc_fcntl
                0x0000000000000000                __GI___fcntl
                0x0000000000000000                __fcntl
                0x0000000000000000                fcntl

.text.__GI___getpagesize
                0x0000000000000000       0x28
 .text.__GI___getpagesize
                0x0000000000000000       0x28 /home6/daewon2/Release/glibc/SP/SP_Linux/LP_Linux_Prj/REL/VDLinux.3.x.2012/toolchain/src/arm-mips-src-20121018/build.arm.cortex-a15/obj/glibc_0_final/libc_pic.a(getpagesize.os)
                0x0000000000000000                getpagesize
                0x0000000000000000                __GI___getpagesize
                0x0000000000000000                __getpagesize

.text.profil_counter
                0x0000000000000000       0x4c
 .text.profil_counter
                0x0000000000000000       0x4c /home6/daewon2/Release/glibc/SP/SP_Linux/LP_Linux_Prj/REL/VDLinux.3.x.2012/toolchain/src/arm-mips-src-20121018/build.arm.cortex-a15/obj/glibc_0_final/libc_pic.a(profil.os)

.text.__profil  0x0000000000000000      0x180
 .text.__profil
                0x0000000000000000      0x180 /home6/daewon2/Release/glibc/SP/SP_Linux/LP_Linux_Prj/REL/VDLinux.3.x.2012/toolchain/src/arm-mips-src-20121018/build.arm.cortex-a15/obj/glibc_0_final/libc_pic.a(profil.os)
                0x0000000000000000                __profil
                0x0000000000000000                profil

.text.__GI___profile_frequency
                0x0000000000000000       0x20
 .text.__GI___profile_frequency
                0x0000000000000000       0x20 /home6/daewon2/Release/glibc/SP/SP_Linux/LP_Linux_Prj/REL/VDLinux.3.x.2012/toolchain/src/arm-mips-src-20121018/build.arm.cortex-a15/obj/glibc_0_final/libc_pic.a(prof-freq.os)
                0x0000000000000000                __GI___profile_frequency
                0x0000000000000000                __profile_frequency

.text.__lll_lock_wait_private
                0x0000000000000000       0x9c
 .text.__lll_lock_wait_private
                0x0000000000000000       0x9c /home6/daewon2/Release/glibc/SP/SP_Linux/LP_Linux_Prj/REL/VDLinux.3.x.2012/toolchain/src/arm-mips-src-20121018/build.arm.cortex-a15/obj/glibc_0_final/libc_pic.a(libc-lowlevellock.os)
                0x0000000000000000                __lll_lock_wait_private

.text.__libc_enable_asynccancel
                0x0000000000000000       0xa4
 .text.__libc_enable_asynccancel
                0x0000000000000000       0xa4 /home6/daewon2/Release/glibc/SP/SP_Linux/LP_Linux_Prj/REL/VDLinux.3.x.2012/toolchain/src/arm-mips-src-20121018/build.arm.cortex-a15/obj/glibc_0_final/libc_pic.a(libc-cancellation.os)
                0x0000000000000000                __libc_enable_asynccancel

.text.__libc_disable_asynccancel
                0x0000000000000000       0x90
 .text.__libc_disable_asynccancel
                0x0000000000000000       0x90 /home6/daewon2/Release/glibc/SP/SP_Linux/LP_Linux_Prj/REL/VDLinux.3.x.2012/toolchain/src/arm-mips-src-20121018/build.arm.cortex-a15/obj/glibc_0_final/libc_pic.a(libc-cancellation.os)
                0x0000000000000000                __libc_disable_asynccancel

.text.__GI___libc_sigaction
                0x0000000000000000      0x17c
 .text.__GI___libc_sigaction
                0x0000000000000000      0x17c /home6/daewon2/Release/glibc/SP/SP_Linux/LP_Linux_Prj/REL/VDLinux.3.x.2012/toolchain/src/arm-mips-src-20121018/build.arm.cortex-a15/obj/glibc_0_final/libc_pic.a(sigaction.os)
                0x0000000000000000                __libc_sigaction
                0x0000000000000000                __GI___libc_sigaction

.text.__GI___sigaction
                0x0000000000000000       0x30
 .text.__GI___sigaction
                0x0000000000000000       0x30 /home6/daewon2/Release/glibc/SP/SP_Linux/LP_Linux_Prj/REL/VDLinux.3.x.2012/toolchain/src/arm-mips-src-20121018/build.arm.cortex-a15/obj/glibc_0_final/libc_pic.a(sigaction.os)
                0x0000000000000000                sigaction
                0x0000000000000000                __GI___sigaction
                0x0000000000000000                __sigaction

.text.pthread_equal
                0x0000000000000000       0x3c
 .text.pthread_equal
                0x0000000000000000       0x3c /home6/daewon2/Release/glibc/SP/SP_Linux/LP_Linux_Prj/REL/VDLinux.3.x.2012/toolchain/src/arm-mips-src-20121018/build.arm.cortex-a15/obj/glibc_0_final/libc_pic.a(forward.os)
                0x0000000000000000                pthread_equal

.text.pthread_attr_destroy
                0x0000000000000000       0x3c
 .text.pthread_attr_destroy
                0x0000000000000000       0x3c /home6/daewon2/Release/glibc/SP/SP_Linux/LP_Linux_Prj/REL/VDLinux.3.x.2012/toolchain/src/arm-mips-src-20121018/build.arm.cortex-a15/obj/glibc_0_final/libc_pic.a(forward.os)
                0x0000000000000000                pthread_attr_destroy

.text.__pthread_attr_init_2_1
                0x0000000000000000       0x3c
 .text.__pthread_attr_init_2_1
                0x0000000000000000       0x3c /home6/daewon2/Release/glibc/SP/SP_Linux/LP_Linux_Prj/REL/VDLinux.3.x.2012/toolchain/src/arm-mips-src-20121018/build.arm.cortex-a15/obj/glibc_0_final/libc_pic.a(forward.os)
                0x0000000000000000                pthread_attr_init@@GLIBC_2.4
                0x0000000000000000                __pthread_attr_init_2_1

.text.pthread_attr_getdetachstate
                0x0000000000000000       0x3c
 .text.pthread_attr_getdetachstate
                0x0000000000000000       0x3c /home6/daewon2/Release/glibc/SP/SP_Linux/LP_Linux_Prj/REL/VDLinux.3.x.2012/toolchain/src/arm-mips-src-20121018/build.arm.cortex-a15/obj/glibc_0_final/libc_pic.a(forward.os)
                0x0000000000000000                pthread_attr_getdetachstate

.text.pthread_attr_setdetachstate
                0x0000000000000000       0x3c
 .text.pthread_attr_setdetachstate
                0x0000000000000000       0x3c /home6/daewon2/Release/glibc/SP/SP_Linux/LP_Linux_Prj/REL/VDLinux.3.x.2012/toolchain/src/arm-mips-src-20121018/build.arm.cortex-a15/obj/glibc_0_final/libc_pic.a(forward.os)
                0x0000000000000000                pthread_attr_setdetachstate

.text.pthread_attr_getinheritsched
                0x0000000000000000       0x3c
 .text.pthread_attr_getinheritsched
                0x0000000000000000       0x3c /home6/daewon2/Release/glibc/SP/SP_Linux/LP_Linux_Prj/REL/VDLinux.3.x.2012/toolchain/src/arm-mips-src-20121018/build.arm.cortex-a15/obj/glibc_0_final/libc_pic.a(forward.os)
                0x0000000000000000                pthread_attr_getinheritsched

.text.pthread_attr_setinheritsched
                0x0000000000000000       0x3c
 .text.pthread_attr_setinheritsched
                0x0000000000000000       0x3c /home6/daewon2/Release/glibc/SP/SP_Linux/LP_Linux_Prj/REL/VDLinux.3.x.2012/toolchain/src/arm-mips-src-20121018/build.arm.cortex-a15/obj/glibc_0_final/libc_pic.a(forward.os)
                0x0000000000000000                pthread_attr_setinheritsched

.text.pthread_attr_getschedparam
                0x0000000000000000       0x3c
 .text.pthread_attr_getschedparam
                0x0000000000000000       0x3c /home6/daewon2/Release/glibc/SP/SP_Linux/LP_Linux_Prj/REL/VDLinux.3.x.2012/toolchain/src/arm-mips-src-20121018/build.arm.cortex-a15/obj/glibc_0_final/libc_pic.a(forward.os)
                0x0000000000000000                pthread_attr_getschedparam

.text.pthread_attr_setschedparam
                0x0000000000000000       0x3c
 .text.pthread_attr_setschedparam
                0x0000000000000000       0x3c /home6/daewon2/Release/glibc/SP/SP_Linux/LP_Linux_Prj/REL/VDLinux.3.x.2012/toolchain/src/arm-mips-src-20121018/build.arm.cortex-a15/obj/glibc_0_final/libc_pic.a(forward.os)
                0x0000000000000000                pthread_attr_setschedparam

.text.pthread_attr_getschedpolicy
                0x0000000000000000       0x3c
 .text.pthread_attr_getschedpolicy
                0x0000000000000000       0x3c /home6/daewon2/Release/glibc/SP/SP_Linux/LP_Linux_Prj/REL/VDLinux.3.x.2012/toolchain/src/arm-mips-src-20121018/build.arm.cortex-a15/obj/glibc_0_final/libc_pic.a(forward.os)
                0x0000000000000000                pthread_attr_getschedpolicy

.text.pthread_attr_setschedpolicy
                0x0000000000000000       0x3c
 .text.pthread_attr_setschedpolicy
                0x0000000000000000       0x3c /home6/daewon2/Release/glibc/SP/SP_Linux/LP_Linux_Prj/REL/VDLinux.3.x.2012/toolchain/src/arm-mips-src-20121018/build.arm.cortex-a15/obj/glibc_0_final/libc_pic.a(forward.os)
                0x0000000000000000                pthread_attr_setschedpolicy

.text.pthread_attr_getscope
                0x0000000000000000       0x3c
 .text.pthread_attr_getscope
                0x0000000000000000       0x3c /home6/daewon2/Release/glibc/SP/SP_Linux/LP_Linux_Prj/REL/VDLinux.3.x.2012/toolchain/src/arm-mips-src-20121018/build.arm.cortex-a15/obj/glibc_0_final/libc_pic.a(forward.os)
                0x0000000000000000                pthread_attr_getscope

.text.pthread_attr_setscope
                0x0000000000000000       0x3c
 .text.pthread_attr_setscope
                0x0000000000000000       0x3c /home6/daewon2/Release/glibc/SP/SP_Linux/LP_Linux_Prj/REL/VDLinux.3.x.2012/toolchain/src/arm-mips-src-20121018/build.arm.cortex-a15/obj/glibc_0_final/libc_pic.a(forward.os)
                0x0000000000000000                pthread_attr_setscope

.text.pthread_condattr_destroy
                0x0000000000000000       0x3c
 .text.pthread_condattr_destroy
                0x0000000000000000       0x3c /home6/daewon2/Release/glibc/SP/SP_Linux/LP_Linux_Prj/REL/VDLinux.3.x.2012/toolchain/src/arm-mips-src-20121018/build.arm.cortex-a15/obj/glibc_0_final/libc_pic.a(forward.os)
                0x0000000000000000                pthread_condattr_destroy

.text.pthread_condattr_init
                0x0000000000000000       0x3c
 .text.pthread_condattr_init
                0x0000000000000000       0x3c /home6/daewon2/Release/glibc/SP/SP_Linux/LP_Linux_Prj/REL/VDLinux.3.x.2012/toolchain/src/arm-mips-src-20121018/build.arm.cortex-a15/obj/glibc_0_final/libc_pic.a(forward.os)
                0x0000000000000000                pthread_condattr_init

.text.__pthread_cond_broadcast
                0x0000000000000000       0x3c
 .text.__pthread_cond_broadcast
                0x0000000000000000       0x3c /home6/daewon2/Release/glibc/SP/SP_Linux/LP_Linux_Prj/REL/VDLinux.3.x.2012/toolchain/src/arm-mips-src-20121018/build.arm.cortex-a15/obj/glibc_0_final/libc_pic.a(forward.os)
                0x0000000000000000                pthread_cond_broadcast@@GLIBC_2.4
                0x0000000000000000                __pthread_cond_broadcast

.text.__pthread_cond_destroy
                0x0000000000000000       0x3c
 .text.__pthread_cond_destroy
                0x0000000000000000       0x3c /home6/daewon2/Release/glibc/SP/SP_Linux/LP_Linux_Prj/REL/VDLinux.3.x.2012/toolchain/src/arm-mips-src-20121018/build.arm.cortex-a15/obj/glibc_0_final/libc_pic.a(forward.os)
                0x0000000000000000                __pthread_cond_destroy
                0x0000000000000000                pthread_cond_destroy@@GLIBC_2.4

.text.__pthread_cond_init
                0x0000000000000000       0x3c
 .text.__pthread_cond_init
                0x0000000000000000       0x3c /home6/daewon2/Release/glibc/SP/SP_Linux/LP_Linux_Prj/REL/VDLinux.3.x.2012/toolchain/src/arm-mips-src-20121018/build.arm.cortex-a15/obj/glibc_0_final/libc_pic.a(forward.os)
                0x0000000000000000                pthread_cond_init@@GLIBC_2.4
                0x0000000000000000                __pthread_cond_init

.text.__pthread_cond_signal
                0x0000000000000000       0x3c
 .text.__pthread_cond_signal
                0x0000000000000000       0x3c /home6/daewon2/Release/glibc/SP/SP_Linux/LP_Linux_Prj/REL/VDLinux.3.x.2012/toolchain/src/arm-mips-src-20121018/build.arm.cortex-a15/obj/glibc_0_final/libc_pic.a(forward.os)
                0x0000000000000000                pthread_cond_signal@@GLIBC_2.4
                0x0000000000000000                __pthread_cond_signal

.text.__pthread_cond_wait
                0x0000000000000000       0x3c
 .text.__pthread_cond_wait
                0x0000000000000000       0x3c /home6/daewon2/Release/glibc/SP/SP_Linux/LP_Linux_Prj/REL/VDLinux.3.x.2012/toolchain/src/arm-mips-src-20121018/build.arm.cortex-a15/obj/glibc_0_final/libc_pic.a(forward.os)
                0x0000000000000000                pthread_cond_wait@@GLIBC_2.4
                0x0000000000000000                __pthread_cond_wait

.text.__pthread_cond_timedwait
                0x0000000000000000       0x3c
 .text.__pthread_cond_timedwait
                0x0000000000000000       0x3c /home6/daewon2/Release/glibc/SP/SP_Linux/LP_Linux_Prj/REL/VDLinux.3.x.2012/toolchain/src/arm-mips-src-20121018/build.arm.cortex-a15/obj/glibc_0_final/libc_pic.a(forward.os)
                0x0000000000000000                pthread_cond_timedwait@@GLIBC_2.4
                0x0000000000000000                __pthread_cond_timedwait

.text.__pthread_exit
                0x0000000000000000       0x3c
 .text.__pthread_exit
                0x0000000000000000       0x3c /home6/daewon2/Release/glibc/SP/SP_Linux/LP_Linux_Prj/REL/VDLinux.3.x.2012/toolchain/src/arm-mips-src-20121018/build.arm.cortex-a15/obj/glibc_0_final/libc_pic.a(forward.os)
                0x0000000000000000                pthread_exit
                0x0000000000000000                __pthread_exit

.text.pthread_getschedparam
                0x0000000000000000       0x3c
 .text.pthread_getschedparam
                0x0000000000000000       0x3c /home6/daewon2/Release/glibc/SP/SP_Linux/LP_Linux_Prj/REL/VDLinux.3.x.2012/toolchain/src/arm-mips-src-20121018/build.arm.cortex-a15/obj/glibc_0_final/libc_pic.a(forward.os)
                0x0000000000000000                pthread_getschedparam

.text.pthread_setschedparam
                0x0000000000000000       0x3c
 .text.pthread_setschedparam
                0x0000000000000000       0x3c /home6/daewon2/Release/glibc/SP/SP_Linux/LP_Linux_Prj/REL/VDLinux.3.x.2012/toolchain/src/arm-mips-src-20121018/build.arm.cortex-a15/obj/glibc_0_final/libc_pic.a(forward.os)
                0x0000000000000000                pthread_setschedparam

.text.pthread_mutex_destroy
                0x0000000000000000       0x3c
 .text.pthread_mutex_destroy
                0x0000000000000000       0x3c /home6/daewon2/Release/glibc/SP/SP_Linux/LP_Linux_Prj/REL/VDLinux.3.x.2012/toolchain/src/arm-mips-src-20121018/build.arm.cortex-a15/obj/glibc_0_final/libc_pic.a(forward.os)
                0x0000000000000000                pthread_mutex_destroy

.text.pthread_mutex_init
                0x0000000000000000       0x3c
 .text.pthread_mutex_init
                0x0000000000000000       0x3c /home6/daewon2/Release/glibc/SP/SP_Linux/LP_Linux_Prj/REL/VDLinux.3.x.2012/toolchain/src/arm-mips-src-20121018/build.arm.cortex-a15/obj/glibc_0_final/libc_pic.a(forward.os)
                0x0000000000000000                pthread_mutex_init

.text.pthread_mutex_lock
                0x0000000000000000       0x3c
 .text.pthread_mutex_lock
                0x0000000000000000       0x3c /home6/daewon2/Release/glibc/SP/SP_Linux/LP_Linux_Prj/REL/VDLinux.3.x.2012/toolchain/src/arm-mips-src-20121018/build.arm.cortex-a15/obj/glibc_0_final/libc_pic.a(forward.os)
                0x0000000000000000                pthread_mutex_lock

.text.pthread_mutex_unlock
                0x0000000000000000       0x3c
 .text.pthread_mutex_unlock
                0x0000000000000000       0x3c /home6/daewon2/Release/glibc/SP/SP_Linux/LP_Linux_Prj/REL/VDLinux.3.x.2012/toolchain/src/arm-mips-src-20121018/build.arm.cortex-a15/obj/glibc_0_final/libc_pic.a(forward.os)
                0x0000000000000000                pthread_mutex_unlock

.text.pthread_self
                0x0000000000000000       0x30
 .text.pthread_self
                0x0000000000000000       0x30 /home6/daewon2/Release/glibc/SP/SP_Linux/LP_Linux_Prj/REL/VDLinux.3.x.2012/toolchain/src/arm-mips-src-20121018/build.arm.cortex-a15/obj/glibc_0_final/libc_pic.a(forward.os)
                0x0000000000000000                pthread_self

.text.pthread_setcancelstate
                0x0000000000000000       0x3c
 .text.pthread_setcancelstate
                0x0000000000000000       0x3c /home6/daewon2/Release/glibc/SP/SP_Linux/LP_Linux_Prj/REL/VDLinux.3.x.2012/toolchain/src/arm-mips-src-20121018/build.arm.cortex-a15/obj/glibc_0_final/libc_pic.a(forward.os)
                0x0000000000000000                pthread_setcancelstate

.text.pthread_setcanceltype
                0x0000000000000000       0x3c
 .text.pthread_setcanceltype
                0x0000000000000000       0x3c /home6/daewon2/Release/glibc/SP/SP_Linux/LP_Linux_Prj/REL/VDLinux.3.x.2012/toolchain/src/arm-mips-src-20121018/build.arm.cortex-a15/obj/glibc_0_final/libc_pic.a(forward.os)
                0x0000000000000000                pthread_setcanceltype

.text.compat    0x0000000000000000       0x44
 .text.compat   0x0000000000000000       0x44 /home6/daewon2/Release/glibc/SP/SP_Linux/LP_Linux_Prj/REL/VDLinux.3.x.2012/toolchain/src/arm-mips-src-20121018/build.arm.cortex-a15/obj/glibc_0_final/libc_pic.a(forward.os)
                0x0000000000000000                __pthread_unwind

.text.__run_exit_handlers
                0x0000000000000000       0xe8
 .text.__run_exit_handlers
                0x0000000000000000       0xe8 /home6/daewon2/Release/glibc/SP/SP_Linux/LP_Linux_Prj/REL/VDLinux.3.x.2012/toolchain/src/arm-mips-src-20121018/build.arm.cortex-a15/obj/glibc_0_final/libc_pic.a(exit.os)
                0x0000000000000000                __run_exit_handlers

.text.__GI_exit
                0x0000000000000000       0x18
 .text.__GI_exit
                0x0000000000000000       0x18 /home6/daewon2/Release/glibc/SP/SP_Linux/LP_Linux_Prj/REL/VDLinux.3.x.2012/toolchain/src/arm-mips-src-20121018/build.arm.cortex-a15/obj/glibc_0_final/libc_pic.a(exit.os)
                0x0000000000000000                __GI_exit
                0x0000000000000000                exit

.text.__new_exitfn
                0x0000000000000000      0x208
 .text.__new_exitfn
                0x0000000000000000      0x208 /home6/daewon2/Release/glibc/SP/SP_Linux/LP_Linux_Prj/REL/VDLinux.3.x.2012/toolchain/src/arm-mips-src-20121018/build.arm.cortex-a15/obj/glibc_0_final/libc_pic.a(cxa_atexit.os)
                0x0000000000000000                __new_exitfn

.text.__internal_atexit
                0x0000000000000000       0x48
 .text.__internal_atexit
                0x0000000000000000       0x48 /home6/daewon2/Release/glibc/SP/SP_Linux/LP_Linux_Prj/REL/VDLinux.3.x.2012/toolchain/src/arm-mips-src-20121018/build.arm.cortex-a15/obj/glibc_0_final/libc_pic.a(cxa_atexit.os)
                0x0000000000000000                __internal_atexit

.text.__cxa_atexit
                0x0000000000000000       0x10
 .text.__cxa_atexit
                0x0000000000000000       0x10 /home6/daewon2/Release/glibc/SP/SP_Linux/LP_Linux_Prj/REL/VDLinux.3.x.2012/toolchain/src/arm-mips-src-20121018/build.arm.cortex-a15/obj/glibc_0_final/libc_pic.a(cxa_atexit.os)
                0x0000000000000000                __cxa_atexit_internal
                0x0000000000000000                __cxa_atexit

.text.__gnu_ldivmod_helper
                0x0000000000000000       0x3c
 .text.__gnu_ldivmod_helper
                0x0000000000000000       0x3c /home6/daewon2/Release/glibc/SP/SP_Linux/LP_Linux_Prj/REL/VDLinux.3.x.2012/toolchain/src/arm-mips-src-20121018/scripts/arm-v7a15v3r1/lib/gcc/arm-v7a15v3r1-linux-gnueabi/4.6.4/libgcc.a(bpabi.o)
                0x0000000000000000                __gnu_ldivmod_helper

.text.__gnu_uldivmod_helper
                0x0000000000000000       0x3c
 .text.__gnu_uldivmod_helper
                0x0000000000000000       0x3c /home6/daewon2/Release/glibc/SP/SP_Linux/LP_Linux_Prj/REL/VDLinux.3.x.2012/toolchain/src/arm-mips-src-20121018/scripts/arm-v7a15v3r1/lib/gcc/arm-v7a15v3r1-linux-gnueabi/4.6.4/libgcc.a(bpabi.o)
                0x0000000000000000                __gnu_uldivmod_helper

.text.__GI_raise
                0x0000000000000000       0xb8
 .text.__GI_raise
                0x0000000000000000       0xb8 /home6/daewon2/Release/glibc/SP/SP_Linux/LP_Linux_Prj/REL/VDLinux.3.x.2012/toolchain/src/arm-mips-src-20121018/build.arm.cortex-a15/obj/glibc_0_final/libc_pic.a(raise.os)
                0x0000000000000000                gsignal
                0x0000000000000000                __GI_raise
                0x0000000000000000                raise

.fini
 *(.fini)

.rodata         0x0000000000000000      0x790
 *(.rodata)
 .rodata        0x0000000000000000      0x790 /home6/daewon2/Release/glibc/SP/SP_Linux/LP_Linux_Prj/REL/VDLinux.3.x.2012/toolchain/src/arm-mips-src-20121018/build.arm.cortex-a15/obj/glibc_0_final/elf/dl-allobjs.os
                0x0000000000000780                _itoa_lower_digits_internal

.ARM.extab.text._dl_initial_error_catch_tsd
                0x0000000000000000        0x0
 .ARM.extab.text._dl_initial_error_catch_tsd
                0x0000000000000000        0x0 /home6/daewon2/Release/glibc/SP/SP_Linux/LP_Linux_Prj/REL/VDLinux.3.x.2012/toolchain/src/arm-mips-src-20121018/build.arm.cortex-a15/obj/glibc_0_final/elf/dl-allobjs.os

.ARM.exidx.text._dl_initial_error_catch_tsd
                0x0000000000000000        0x8
 .ARM.exidx.text._dl_initial_error_catch_tsd
                0x0000000000000000        0x8 /home6/daewon2/Release/glibc/SP/SP_Linux/LP_Linux_Prj/REL/VDLinux.3.x.2012/toolchain/src/arm-mips-src-20121018/build.arm.cortex-a15/obj/glibc_0_final/elf/dl-allobjs.os

.ARM.extab.text.rtld_lock_default_lock_recursive
                0x0000000000000000        0x0
 .ARM.extab.text.rtld_lock_default_lock_recursive
                0x0000000000000000        0x0 /home6/daewon2/Release/glibc/SP/SP_Linux/LP_Linux_Prj/REL/VDLinux.3.x.2012/toolchain/src/arm-mips-src-20121018/build.arm.cortex-a15/obj/glibc_0_final/elf/dl-allobjs.os

.ARM.exidx.text.rtld_lock_default_lock_recursive
                0x0000000000000000        0x8
 .ARM.exidx.text.rtld_lock_default_lock_recursive
                0x0000000000000000        0x8 /home6/daewon2/Release/glibc/SP/SP_Linux/LP_Linux_Prj/REL/VDLinux.3.x.2012/toolchain/src/arm-mips-src-20121018/build.arm.cortex-a15/obj/glibc_0_final/elf/dl-allobjs.os

.ARM.extab.text.rtld_lock_default_unlock_recursive
                0x0000000000000000        0x0
 .ARM.extab.text.rtld_lock_default_unlock_recursive
                0x0000000000000000        0x0 /home6/daewon2/Release/glibc/SP/SP_Linux/LP_Linux_Prj/REL/VDLinux.3.x.2012/toolchain/src/arm-mips-src-20121018/build.arm.cortex-a15/obj/glibc_0_final/elf/dl-allobjs.os

.ARM.exidx.text.rtld_lock_default_unlock_recursive
                0x0000000000000000        0x8
 .ARM.exidx.text.rtld_lock_default_unlock_recursive
                0x0000000000000000        0x8 /home6/daewon2/Release/glibc/SP/SP_Linux/LP_Linux_Prj/REL/VDLinux.3.x.2012/toolchain/src/arm-mips-src-20121018/build.arm.cortex-a15/obj/glibc_0_final/elf/dl-allobjs.os

.ARM.extab.text.lookup_doit
                0x0000000000000000        0x0
 .ARM.extab.text.lookup_doit
                0x0000000000000000        0x0 /home6/daewon2/Release/glibc/SP/SP_Linux/LP_Linux_Prj/REL/VDLinux.3.x.2012/toolchain/src/arm-mips-src-20121018/build.arm.cortex-a15/obj/glibc_0_final/elf/dl-allobjs.os

.ARM.exidx.text.lookup_doit
                0x0000000000000000        0x8
 .ARM.exidx.text.lookup_doit
                0x0000000000000000        0x8 /home6/daewon2/Release/glibc/SP/SP_Linux/LP_Linux_Prj/REL/VDLinux.3.x.2012/toolchain/src/arm-mips-src-20121018/build.arm.cortex-a15/obj/glibc_0_final/elf/dl-allobjs.os

.ARM.extab.text.dlmopen_doit
                0x0000000000000000        0x0
 .ARM.extab.text.dlmopen_doit
                0x0000000000000000        0x0 /home6/daewon2/Release/glibc/SP/SP_Linux/LP_Linux_Prj/REL/VDLinux.3.x.2012/toolchain/src/arm-mips-src-20121018/build.arm.cortex-a15/obj/glibc_0_final/elf/dl-allobjs.os

.ARM.exidx.text.dlmopen_doit
                0x0000000000000000        0x8
 .ARM.exidx.text.dlmopen_doit
                0x0000000000000000        0x8 /home6/daewon2/Release/glibc/SP/SP_Linux/LP_Linux_Prj/REL/VDLinux.3.x.2012/toolchain/src/arm-mips-src-20121018/build.arm.cortex-a15/obj/glibc_0_final/elf/dl-allobjs.os

.ARM.extab.text.unlikely.do_preload
                0x0000000000000000        0x0
 .ARM.extab.text.unlikely.do_preload
                0x0000000000000000        0x0 /home6/daewon2/Release/glibc/SP/SP_Linux/LP_Linux_Prj/REL/VDLinux.3.x.2012/toolchain/src/arm-mips-src-20121018/build.arm.cortex-a15/obj/glibc_0_final/elf/dl-allobjs.os

.ARM.exidx.text.unlikely.do_preload
                0x0000000000000000        0x8
 .ARM.exidx.text.unlikely.do_preload
                0x0000000000000000        0x8 /home6/daewon2/Release/glibc/SP/SP_Linux/LP_Linux_Prj/REL/VDLinux.3.x.2012/toolchain/src/arm-mips-src-20121018/build.arm.cortex-a15/obj/glibc_0_final/elf/dl-allobjs.os

.ARM.extab.text.print_unresolved
                0x0000000000000000        0x0
 .ARM.extab.text.print_unresolved
                0x0000000000000000        0x0 /home6/daewon2/Release/glibc/SP/SP_Linux/LP_Linux_Prj/REL/VDLinux.3.x.2012/toolchain/src/arm-mips-src-20121018/build.arm.cortex-a15/obj/glibc_0_final/elf/dl-allobjs.os

.ARM.exidx.text.print_unresolved
                0x0000000000000000        0x8
 .ARM.exidx.text.print_unresolved
                0x0000000000000000        0x8 /home6/daewon2/Release/glibc/SP/SP_Linux/LP_Linux_Prj/REL/VDLinux.3.x.2012/toolchain/src/arm-mips-src-20121018/build.arm.cortex-a15/obj/glibc_0_final/elf/dl-allobjs.os

.ARM.extab.text.print_missing_version
                0x0000000000000000        0x0
 .ARM.extab.text.print_missing_version
                0x0000000000000000        0x0 /home6/daewon2/Release/glibc/SP/SP_Linux/LP_Linux_Prj/REL/VDLinux.3.x.2012/toolchain/src/arm-mips-src-20121018/build.arm.cortex-a15/obj/glibc_0_final/elf/dl-allobjs.os

.ARM.exidx.text.print_missing_version
                0x0000000000000000        0x8
 .ARM.exidx.text.print_missing_version
                0x0000000000000000        0x8 /home6/daewon2/Release/glibc/SP/SP_Linux/LP_Linux_Prj/REL/VDLinux.3.x.2012/toolchain/src/arm-mips-src-20121018/build.arm.cortex-a15/obj/glibc_0_final/elf/dl-allobjs.os

.ARM.extab.text.security_init
                0x0000000000000000        0x0
 .ARM.extab.text.security_init
                0x0000000000000000        0x0 /home6/daewon2/Release/glibc/SP/SP_Linux/LP_Linux_Prj/REL/VDLinux.3.x.2012/toolchain/src/arm-mips-src-20121018/build.arm.cortex-a15/obj/glibc_0_final/elf/dl-allobjs.os

.ARM.exidx.text.security_init
                0x0000000000000000        0x8
 .ARM.exidx.text.security_init
                0x0000000000000000        0x8 /home6/daewon2/Release/glibc/SP/SP_Linux/LP_Linux_Prj/REL/VDLinux.3.x.2012/toolchain/src/arm-mips-src-20121018/build.arm.cortex-a15/obj/glibc_0_final/elf/dl-allobjs.os

.ARM.extab.text.map_doit
                0x0000000000000000        0x0
 .ARM.extab.text.map_doit
                0x0000000000000000        0x0 /home6/daewon2/Release/glibc/SP/SP_Linux/LP_Linux_Prj/REL/VDLinux.3.x.2012/toolchain/src/arm-mips-src-20121018/build.arm.cortex-a15/obj/glibc_0_final/elf/dl-allobjs.os

.ARM.exidx.text.map_doit
                0x0000000000000000        0x8
 .ARM.exidx.text.map_doit
                0x0000000000000000        0x8 /home6/daewon2/Release/glibc/SP/SP_Linux/LP_Linux_Prj/REL/VDLinux.3.x.2012/toolchain/src/arm-mips-src-20121018/build.arm.cortex-a15/obj/glibc_0_final/elf/dl-allobjs.os

.ARM.extab.text.process_dl_audit
                0x0000000000000000        0x0
 .ARM.extab.text.process_dl_audit
                0x0000000000000000        0x0 /home6/daewon2/Release/glibc/SP/SP_Linux/LP_Linux_Prj/REL/VDLinux.3.x.2012/toolchain/src/arm-mips-src-20121018/build.arm.cortex-a15/obj/glibc_0_final/elf/dl-allobjs.os

.ARM.exidx.text.process_dl_audit
                0x0000000000000000        0x8
 .ARM.exidx.text.process_dl_audit
                0x0000000000000000        0x8 /home6/daewon2/Release/glibc/SP/SP_Linux/LP_Linux_Prj/REL/VDLinux.3.x.2012/toolchain/src/arm-mips-src-20121018/build.arm.cortex-a15/obj/glibc_0_final/elf/dl-allobjs.os

.ARM.extab.text.relocate_doit
                0x0000000000000000        0x0
 .ARM.extab.text.relocate_doit
                0x0000000000000000        0x0 /home6/daewon2/Release/glibc/SP/SP_Linux/LP_Linux_Prj/REL/VDLinux.3.x.2012/toolchain/src/arm-mips-src-20121018/build.arm.cortex-a15/obj/glibc_0_final/elf/dl-allobjs.os

.ARM.exidx.text.relocate_doit
                0x0000000000000000        0x8
 .ARM.exidx.text.relocate_doit
                0x0000000000000000        0x8 /home6/daewon2/Release/glibc/SP/SP_Linux/LP_Linux_Prj/REL/VDLinux.3.x.2012/toolchain/src/arm-mips-src-20121018/build.arm.cortex-a15/obj/glibc_0_final/elf/dl-allobjs.os

.ARM.extab.text.process_dl_debug
                0x0000000000000000        0x0
 .ARM.extab.text.process_dl_debug
                0x0000000000000000        0x0 /home6/daewon2/Release/glibc/SP/SP_Linux/LP_Linux_Prj/REL/VDLinux.3.x.2012/toolchain/src/arm-mips-src-20121018/build.arm.cortex-a15/obj/glibc_0_final/elf/dl-allobjs.os

.ARM.exidx.text.process_dl_debug
                0x0000000000000000        0x8
 .ARM.exidx.text.process_dl_debug
                0x0000000000000000        0x8 /home6/daewon2/Release/glibc/SP/SP_Linux/LP_Linux_Prj/REL/VDLinux.3.x.2012/toolchain/src/arm-mips-src-20121018/build.arm.cortex-a15/obj/glibc_0_final/elf/dl-allobjs.os

.ARM.extab.text.process_envvars
                0x0000000000000000        0x0
 .ARM.extab.text.process_envvars
                0x0000000000000000        0x0 /home6/daewon2/Release/glibc/SP/SP_Linux/LP_Linux_Prj/REL/VDLinux.3.x.2012/toolchain/src/arm-mips-src-20121018/build.arm.cortex-a15/obj/glibc_0_final/elf/dl-allobjs.os

.ARM.exidx.text.process_envvars
                0x0000000000000000        0x8
 .ARM.exidx.text.process_envvars
                0x0000000000000000        0x8 /home6/daewon2/Release/glibc/SP/SP_Linux/LP_Linux_Prj/REL/VDLinux.3.x.2012/toolchain/src/arm-mips-src-20121018/build.arm.cortex-a15/obj/glibc_0_final/elf/dl-allobjs.os

.ARM.extab.text.unlikely.print_statistics.isra.3
                0x0000000000000000        0x0
 .ARM.extab.text.unlikely.print_statistics.isra.3
                0x0000000000000000        0x0 /home6/daewon2/Release/glibc/SP/SP_Linux/LP_Linux_Prj/REL/VDLinux.3.x.2012/toolchain/src/arm-mips-src-20121018/build.arm.cortex-a15/obj/glibc_0_final/elf/dl-allobjs.os

.ARM.exidx.text.unlikely.print_statistics.isra.3
                0x0000000000000000        0x8
 .ARM.exidx.text.unlikely.print_statistics.isra.3
                0x0000000000000000        0x8 /home6/daewon2/Release/glibc/SP/SP_Linux/LP_Linux_Prj/REL/VDLinux.3.x.2012/toolchain/src/arm-mips-src-20121018/build.arm.cortex-a15/obj/glibc_0_final/elf/dl-allobjs.os

.ARM.extab.text._dl_start_final
                0x0000000000000000        0xc
 .ARM.extab.text._dl_start_final
                0x0000000000000000        0xc /home6/daewon2/Release/glibc/SP/SP_Linux/LP_Linux_Prj/REL/VDLinux.3.x.2012/toolchain/src/arm-mips-src-20121018/build.arm.cortex-a15/obj/glibc_0_final/elf/dl-allobjs.os

.ARM.exidx.text._dl_start_final
                0x0000000000000000        0x8
 .ARM.exidx.text._dl_start_final
                0x0000000000000000        0x8 /home6/daewon2/Release/glibc/SP/SP_Linux/LP_Linux_Prj/REL/VDLinux.3.x.2012/toolchain/src/arm-mips-src-20121018/build.arm.cortex-a15/obj/glibc_0_final/elf/dl-allobjs.os

.ARM.extab.text.unlikely.init_tls.part.6
                0x0000000000000000        0x0
 .ARM.extab.text.unlikely.init_tls.part.6
                0x0000000000000000        0x0 /home6/daewon2/Release/glibc/SP/SP_Linux/LP_Linux_Prj/REL/VDLinux.3.x.2012/toolchain/src/arm-mips-src-20121018/build.arm.cortex-a15/obj/glibc_0_final/elf/dl-allobjs.os

.ARM.exidx.text.unlikely.init_tls.part.6
                0x0000000000000000        0x8
 .ARM.exidx.text.unlikely.init_tls.part.6
                0x0000000000000000        0x8 /home6/daewon2/Release/glibc/SP/SP_Linux/LP_Linux_Prj/REL/VDLinux.3.x.2012/toolchain/src/arm-mips-src-20121018/build.arm.cortex-a15/obj/glibc_0_final/elf/dl-allobjs.os

.ARM.extab.text.dl_main
                0x0000000000000000        0x0
 .ARM.extab.text.dl_main
                0x0000000000000000        0x0 /home6/daewon2/Release/glibc/SP/SP_Linux/LP_Linux_Prj/REL/VDLinux.3.x.2012/toolchain/src/arm-mips-src-20121018/build.arm.cortex-a15/obj/glibc_0_final/elf/dl-allobjs.os

.ARM.exidx.text.dl_main
                0x0000000000000000        0x8
 .ARM.exidx.text.dl_main
                0x0000000000000000        0x8 /home6/daewon2/Release/glibc/SP/SP_Linux/LP_Linux_Prj/REL/VDLinux.3.x.2012/toolchain/src/arm-mips-src-20121018/build.arm.cortex-a15/obj/glibc_0_final/elf/dl-allobjs.os

.ARM.extab.text.version_check_doit
                0x0000000000000000        0x0
 .ARM.extab.text.version_check_doit
                0x0000000000000000        0x0 /home6/daewon2/Release/glibc/SP/SP_Linux/LP_Linux_Prj/REL/VDLinux.3.x.2012/toolchain/src/arm-mips-src-20121018/build.arm.cortex-a15/obj/glibc_0_final/elf/dl-allobjs.os

.ARM.exidx.text.version_check_doit
                0x0000000000000000        0x8
 .ARM.exidx.text.version_check_doit
                0x0000000000000000        0x8 /home6/daewon2/Release/glibc/SP/SP_Linux/LP_Linux_Prj/REL/VDLinux.3.x.2012/toolchain/src/arm-mips-src-20121018/build.arm.cortex-a15/obj/glibc_0_final/elf/dl-allobjs.os

.ARM.extab.text._dl_start
                0x0000000000000000        0x0
 .ARM.extab.text._dl_start
                0x0000000000000000        0x0 /home6/daewon2/Release/glibc/SP/SP_Linux/LP_Linux_Prj/REL/VDLinux.3.x.2012/toolchain/src/arm-mips-src-20121018/build.arm.cortex-a15/obj/glibc_0_final/elf/dl-allobjs.os

.ARM.exidx.text._dl_start
                0x0000000000000000        0x8
 .ARM.exidx.text._dl_start
                0x0000000000000000        0x8 /home6/daewon2/Release/glibc/SP/SP_Linux/LP_Linux_Prj/REL/VDLinux.3.x.2012/toolchain/src/arm-mips-src-20121018/build.arm.cortex-a15/obj/glibc_0_final/elf/dl-allobjs.os

.rodata.str1.4  0x0000000000000000     0x3758
 .rodata.str1.4
                0x0000000000000000     0x370c /home6/daewon2/Release/glibc/SP/SP_Linux/LP_Linux_Prj/REL/VDLinux.3.x.2012/toolchain/src/arm-mips-src-20121018/build.arm.cortex-a15/obj/glibc_0_final/elf/dl-allobjs.os
 .rodata.str1.4
                0x000000000000370c       0x18 /home6/daewon2/Release/glibc/SP/SP_Linux/LP_Linux_Prj/REL/VDLinux.3.x.2012/toolchain/src/arm-mips-src-20121018/build.arm.cortex-a15/obj/glibc_0_final/libc_pic.a(check_fds.os)
 .rodata.str1.4
                0x0000000000003724       0x34 /home6/daewon2/Release/glibc/SP/SP_Linux/LP_Linux_Prj/REL/VDLinux.3.x.2012/toolchain/src/arm-mips-src-20121018/build.arm.cortex-a15/obj/glibc_0_final/libc_pic.a(cxa_atexit.os)

.ARM.extab.text.is_dst
                0x0000000000000000        0x0
 .ARM.extab.text.is_dst
                0x0000000000000000        0x0 /home6/daewon2/Release/glibc/SP/SP_Linux/LP_Linux_Prj/REL/VDLinux.3.x.2012/toolchain/src/arm-mips-src-20121018/build.arm.cortex-a15/obj/glibc_0_final/elf/dl-allobjs.os

.ARM.exidx.text.is_dst
                0x0000000000000000        0x8
 .ARM.exidx.text.is_dst
                0x0000000000000000        0x8 /home6/daewon2/Release/glibc/SP/SP_Linux/LP_Linux_Prj/REL/VDLinux.3.x.2012/toolchain/src/arm-mips-src-20121018/build.arm.cortex-a15/obj/glibc_0_final/elf/dl-allobjs.os

.ARM.extab.text.local_strdup
                0x0000000000000000        0x0
 .ARM.extab.text.local_strdup
                0x0000000000000000        0x0 /home6/daewon2/Release/glibc/SP/SP_Linux/LP_Linux_Prj/REL/VDLinux.3.x.2012/toolchain/src/arm-mips-src-20121018/build.arm.cortex-a15/obj/glibc_0_final/elf/dl-allobjs.os

.ARM.exidx.text.local_strdup
                0x0000000000000000        0x8
 .ARM.exidx.text.local_strdup
                0x0000000000000000        0x8 /home6/daewon2/Release/glibc/SP/SP_Linux/LP_Linux_Prj/REL/VDLinux.3.x.2012/toolchain/src/arm-mips-src-20121018/build.arm.cortex-a15/obj/glibc_0_final/elf/dl-allobjs.os

.ARM.extab.text.fillin_rpath
                0x0000000000000000        0x0
 .ARM.extab.text.fillin_rpath
                0x0000000000000000        0x0 /home6/daewon2/Release/glibc/SP/SP_Linux/LP_Linux_Prj/REL/VDLinux.3.x.2012/toolchain/src/arm-mips-src-20121018/build.arm.cortex-a15/obj/glibc_0_final/elf/dl-allobjs.os

.ARM.exidx.text.fillin_rpath
                0x0000000000000000        0x8
 .ARM.exidx.text.fillin_rpath
                0x0000000000000000        0x8 /home6/daewon2/Release/glibc/SP/SP_Linux/LP_Linux_Prj/REL/VDLinux.3.x.2012/toolchain/src/arm-mips-src-20121018/build.arm.cortex-a15/obj/glibc_0_final/elf/dl-allobjs.os

.ARM.extab.text.add_name_to_object
                0x0000000000000000        0x0
 .ARM.extab.text.add_name_to_object
                0x0000000000000000        0x0 /home6/daewon2/Release/glibc/SP/SP_Linux/LP_Linux_Prj/REL/VDLinux.3.x.2012/toolchain/src/arm-mips-src-20121018/build.arm.cortex-a15/obj/glibc_0_final/elf/dl-allobjs.os

.ARM.exidx.text.add_name_to_object
                0x0000000000000000        0x8
 .ARM.exidx.text.add_name_to_object
                0x0000000000000000        0x8 /home6/daewon2/Release/glibc/SP/SP_Linux/LP_Linux_Prj/REL/VDLinux.3.x.2012/toolchain/src/arm-mips-src-20121018/build.arm.cortex-a15/obj/glibc_0_final/elf/dl-allobjs.os

.ARM.extab.text.unlikely.is_trusted_path_normalize
                0x0000000000000000        0xc
 .ARM.extab.text.unlikely.is_trusted_path_normalize
                0x0000000000000000        0xc /home6/daewon2/Release/glibc/SP/SP_Linux/LP_Linux_Prj/REL/VDLinux.3.x.2012/toolchain/src/arm-mips-src-20121018/build.arm.cortex-a15/obj/glibc_0_final/elf/dl-allobjs.os

.ARM.exidx.text.unlikely.is_trusted_path_normalize
                0x0000000000000000        0x8
 .ARM.exidx.text.unlikely.is_trusted_path_normalize
                0x0000000000000000        0x8 /home6/daewon2/Release/glibc/SP/SP_Linux/LP_Linux_Prj/REL/VDLinux.3.x.2012/toolchain/src/arm-mips-src-20121018/build.arm.cortex-a15/obj/glibc_0_final/elf/dl-allobjs.os

.ARM.extab.text.unlikely.print_search_path
                0x0000000000000000        0x0
 .ARM.extab.text.unlikely.print_search_path
                0x0000000000000000        0x0 /home6/daewon2/Release/glibc/SP/SP_Linux/LP_Linux_Prj/REL/VDLinux.3.x.2012/toolchain/src/arm-mips-src-20121018/build.arm.cortex-a15/obj/glibc_0_final/elf/dl-allobjs.os

.ARM.exidx.text.unlikely.print_search_path
                0x0000000000000000        0x8
 .ARM.exidx.text.unlikely.print_search_path
                0x0000000000000000        0x8 /home6/daewon2/Release/glibc/SP/SP_Linux/LP_Linux_Prj/REL/VDLinux.3.x.2012/toolchain/src/arm-mips-src-20121018/build.arm.cortex-a15/obj/glibc_0_final/elf/dl-allobjs.os

.ARM.extab.text.lose
                0x0000000000000000        0x0
 .ARM.extab.text.lose
                0x0000000000000000        0x0 /home6/daewon2/Release/glibc/SP/SP_Linux/LP_Linux_Prj/REL/VDLinux.3.x.2012/toolchain/src/arm-mips-src-20121018/build.arm.cortex-a15/obj/glibc_0_final/elf/dl-allobjs.os

.ARM.exidx.text.lose
                0x0000000000000000        0x8
 .ARM.exidx.text.lose
                0x0000000000000000        0x8 /home6/daewon2/Release/glibc/SP/SP_Linux/LP_Linux_Prj/REL/VDLinux.3.x.2012/toolchain/src/arm-mips-src-20121018/build.arm.cortex-a15/obj/glibc_0_final/elf/dl-allobjs.os

.ARM.extab.text.open_verify
                0x0000000000000000        0x0
 .ARM.extab.text.open_verify
                0x0000000000000000        0x0 /home6/daewon2/Release/glibc/SP/SP_Linux/LP_Linux_Prj/REL/VDLinux.3.x.2012/toolchain/src/arm-mips-src-20121018/build.arm.cortex-a15/obj/glibc_0_final/elf/dl-allobjs.os

.ARM.exidx.text.open_verify
                0x0000000000000000        0x8
 .ARM.exidx.text.open_verify
                0x0000000000000000        0x8 /home6/daewon2/Release/glibc/SP/SP_Linux/LP_Linux_Prj/REL/VDLinux.3.x.2012/toolchain/src/arm-mips-src-20121018/build.arm.cortex-a15/obj/glibc_0_final/elf/dl-allobjs.os

.ARM.extab.text.open_path
                0x0000000000000000        0x0
 .ARM.extab.text.open_path
                0x0000000000000000        0x0 /home6/daewon2/Release/glibc/SP/SP_Linux/LP_Linux_Prj/REL/VDLinux.3.x.2012/toolchain/src/arm-mips-src-20121018/build.arm.cortex-a15/obj/glibc_0_final/elf/dl-allobjs.os

.ARM.exidx.text.open_path
                0x0000000000000000        0x8
 .ARM.exidx.text.open_path
                0x0000000000000000        0x8 /home6/daewon2/Release/glibc/SP/SP_Linux/LP_Linux_Prj/REL/VDLinux.3.x.2012/toolchain/src/arm-mips-src-20121018/build.arm.cortex-a15/obj/glibc_0_final/elf/dl-allobjs.os

.ARM.extab.text._dl_map_object_from_fd
                0x0000000000000000        0x0
 .ARM.extab.text._dl_map_object_from_fd
                0x0000000000000000        0x0 /home6/daewon2/Release/glibc/SP/SP_Linux/LP_Linux_Prj/REL/VDLinux.3.x.2012/toolchain/src/arm-mips-src-20121018/build.arm.cortex-a15/obj/glibc_0_final/elf/dl-allobjs.os

.ARM.exidx.text._dl_map_object_from_fd
                0x0000000000000000        0x8
 .ARM.exidx.text._dl_map_object_from_fd
                0x0000000000000000        0x8 /home6/daewon2/Release/glibc/SP/SP_Linux/LP_Linux_Prj/REL/VDLinux.3.x.2012/toolchain/src/arm-mips-src-20121018/build.arm.cortex-a15/obj/glibc_0_final/elf/dl-allobjs.os

.ARM.extab.text.add_path.8779.constprop.1
                0x0000000000000000        0xc
 .ARM.extab.text.add_path.8779.constprop.1
                0x0000000000000000        0xc /home6/daewon2/Release/glibc/SP/SP_Linux/LP_Linux_Prj/REL/VDLinux.3.x.2012/toolchain/src/arm-mips-src-20121018/build.arm.cortex-a15/obj/glibc_0_final/elf/dl-allobjs.os

.ARM.exidx.text.add_path.8779.constprop.1
                0x0000000000000000        0x8
 .ARM.exidx.text.add_path.8779.constprop.1
                0x0000000000000000        0x8 /home6/daewon2/Release/glibc/SP/SP_Linux/LP_Linux_Prj/REL/VDLinux.3.x.2012/toolchain/src/arm-mips-src-20121018/build.arm.cortex-a15/obj/glibc_0_final/elf/dl-allobjs.os

.ARM.extab.text._dl_dst_count
                0x0000000000000000        0x0
 .ARM.extab.text._dl_dst_count
                0x0000000000000000        0x0 /home6/daewon2/Release/glibc/SP/SP_Linux/LP_Linux_Prj/REL/VDLinux.3.x.2012/toolchain/src/arm-mips-src-20121018/build.arm.cortex-a15/obj/glibc_0_final/elf/dl-allobjs.os

.ARM.exidx.text._dl_dst_count
                0x0000000000000000        0x8
 .ARM.exidx.text._dl_dst_count
                0x0000000000000000        0x8 /home6/daewon2/Release/glibc/SP/SP_Linux/LP_Linux_Prj/REL/VDLinux.3.x.2012/toolchain/src/arm-mips-src-20121018/build.arm.cortex-a15/obj/glibc_0_final/elf/dl-allobjs.os

.ARM.extab.text._dl_dst_substitute
                0x0000000000000000        0x0
 .ARM.extab.text._dl_dst_substitute
                0x0000000000000000        0x0 /home6/daewon2/Release/glibc/SP/SP_Linux/LP_Linux_Prj/REL/VDLinux.3.x.2012/toolchain/src/arm-mips-src-20121018/build.arm.cortex-a15/obj/glibc_0_final/elf/dl-allobjs.os

.ARM.exidx.text._dl_dst_substitute
                0x0000000000000000        0x8
 .ARM.exidx.text._dl_dst_substitute
                0x0000000000000000        0x8 /home6/daewon2/Release/glibc/SP/SP_Linux/LP_Linux_Prj/REL/VDLinux.3.x.2012/toolchain/src/arm-mips-src-20121018/build.arm.cortex-a15/obj/glibc_0_final/elf/dl-allobjs.os

.ARM.extab.text.expand_dynamic_string_token
                0x0000000000000000        0x0
 .ARM.extab.text.expand_dynamic_string_token
                0x0000000000000000        0x0 /home6/daewon2/Release/glibc/SP/SP_Linux/LP_Linux_Prj/REL/VDLinux.3.x.2012/toolchain/src/arm-mips-src-20121018/build.arm.cortex-a15/obj/glibc_0_final/elf/dl-allobjs.os

.ARM.exidx.text.expand_dynamic_string_token
                0x0000000000000000        0x8
 .ARM.exidx.text.expand_dynamic_string_token
                0x0000000000000000        0x8 /home6/daewon2/Release/glibc/SP/SP_Linux/LP_Linux_Prj/REL/VDLinux.3.x.2012/toolchain/src/arm-mips-src-20121018/build.arm.cortex-a15/obj/glibc_0_final/elf/dl-allobjs.os

.ARM.extab.text.decompose_rpath
                0x0000000000000000        0x0
 .ARM.extab.text.decompose_rpath
                0x0000000000000000        0x0 /home6/daewon2/Release/glibc/SP/SP_Linux/LP_Linux_Prj/REL/VDLinux.3.x.2012/toolchain/src/arm-mips-src-20121018/build.arm.cortex-a15/obj/glibc_0_final/elf/dl-allobjs.os

.ARM.exidx.text.decompose_rpath
                0x0000000000000000        0x8
 .ARM.exidx.text.decompose_rpath
                0x0000000000000000        0x8 /home6/daewon2/Release/glibc/SP/SP_Linux/LP_Linux_Prj/REL/VDLinux.3.x.2012/toolchain/src/arm-mips-src-20121018/build.arm.cortex-a15/obj/glibc_0_final/elf/dl-allobjs.os

.ARM.extab.text.cache_rpath
                0x0000000000000000        0x0
 .ARM.extab.text.cache_rpath
                0x0000000000000000        0x0 /home6/daewon2/Release/glibc/SP/SP_Linux/LP_Linux_Prj/REL/VDLinux.3.x.2012/toolchain/src/arm-mips-src-20121018/build.arm.cortex-a15/obj/glibc_0_final/elf/dl-allobjs.os

.ARM.exidx.text.cache_rpath
                0x0000000000000000        0x8
 .ARM.exidx.text.cache_rpath
                0x0000000000000000        0x8 /home6/daewon2/Release/glibc/SP/SP_Linux/LP_Linux_Prj/REL/VDLinux.3.x.2012/toolchain/src/arm-mips-src-20121018/build.arm.cortex-a15/obj/glibc_0_final/elf/dl-allobjs.os

.ARM.extab.text._dl_init_paths
                0x0000000000000000        0x0
 .ARM.extab.text._dl_init_paths
                0x0000000000000000        0x0 /home6/daewon2/Release/glibc/SP/SP_Linux/LP_Linux_Prj/REL/VDLinux.3.x.2012/toolchain/src/arm-mips-src-20121018/build.arm.cortex-a15/obj/glibc_0_final/elf/dl-allobjs.os

.ARM.exidx.text._dl_init_paths
                0x0000000000000000        0x8
 .ARM.exidx.text._dl_init_paths
                0x0000000000000000        0x8 /home6/daewon2/Release/glibc/SP/SP_Linux/LP_Linux_Prj/REL/VDLinux.3.x.2012/toolchain/src/arm-mips-src-20121018/build.arm.cortex-a15/obj/glibc_0_final/elf/dl-allobjs.os

.ARM.extab.text._dl_map_object
                0x0000000000000000        0x0
 .ARM.extab.text._dl_map_object
                0x0000000000000000        0x0 /home6/daewon2/Release/glibc/SP/SP_Linux/LP_Linux_Prj/REL/VDLinux.3.x.2012/toolchain/src/arm-mips-src-20121018/build.arm.cortex-a15/obj/glibc_0_final/elf/dl-allobjs.os

.ARM.exidx.text._dl_map_object
                0x0000000000000000        0x8
 .ARM.exidx.text._dl_map_object
                0x0000000000000000        0x8 /home6/daewon2/Release/glibc/SP/SP_Linux/LP_Linux_Prj/REL/VDLinux.3.x.2012/toolchain/src/arm-mips-src-20121018/build.arm.cortex-a15/obj/glibc_0_final/elf/dl-allobjs.os

.ARM.extab.text._dl_rtld_di_serinfo
                0x0000000000000000        0x0
 .ARM.extab.text._dl_rtld_di_serinfo
                0x0000000000000000        0x0 /home6/daewon2/Release/glibc/SP/SP_Linux/LP_Linux_Prj/REL/VDLinux.3.x.2012/toolchain/src/arm-mips-src-20121018/build.arm.cortex-a15/obj/glibc_0_final/elf/dl-allobjs.os

.ARM.exidx.text._dl_rtld_di_serinfo
                0x0000000000000000        0x8
 .ARM.exidx.text._dl_rtld_di_serinfo
                0x0000000000000000        0x8 /home6/daewon2/Release/glibc/SP/SP_Linux/LP_Linux_Prj/REL/VDLinux.3.x.2012/toolchain/src/arm-mips-src-20121018/build.arm.cortex-a15/obj/glibc_0_final/elf/dl-allobjs.os

.rodata.cst4    0x0000000000000000        0x4
 .rodata.cst4   0x0000000000000000        0x4 /home6/daewon2/Release/glibc/SP/SP_Linux/LP_Linux_Prj/REL/VDLinux.3.x.2012/toolchain/src/arm-mips-src-20121018/build.arm.cortex-a15/obj/glibc_0_final/elf/dl-allobjs.os

.ARM.extab.text._dl_cache_libcmp
                0x0000000000000000        0x0
 .ARM.extab.text._dl_cache_libcmp
                0x0000000000000000        0x0 /home6/daewon2/Release/glibc/SP/SP_Linux/LP_Linux_Prj/REL/VDLinux.3.x.2012/toolchain/src/arm-mips-src-20121018/build.arm.cortex-a15/obj/glibc_0_final/elf/dl-allobjs.os

.ARM.exidx.text._dl_cache_libcmp
                0x0000000000000000        0x8
 .ARM.exidx.text._dl_cache_libcmp
                0x0000000000000000        0x8 /home6/daewon2/Release/glibc/SP/SP_Linux/LP_Linux_Prj/REL/VDLinux.3.x.2012/toolchain/src/arm-mips-src-20121018/build.arm.cortex-a15/obj/glibc_0_final/elf/dl-allobjs.os

.ARM.extab.text._dl_load_cache_lookup
                0x0000000000000000        0x0
 .ARM.extab.text._dl_load_cache_lookup
                0x0000000000000000        0x0 /home6/daewon2/Release/glibc/SP/SP_Linux/LP_Linux_Prj/REL/VDLinux.3.x.2012/toolchain/src/arm-mips-src-20121018/build.arm.cortex-a15/obj/glibc_0_final/elf/dl-allobjs.os

.ARM.exidx.text._dl_load_cache_lookup
                0x0000000000000000        0x8
 .ARM.exidx.text._dl_load_cache_lookup
                0x0000000000000000        0x8 /home6/daewon2/Release/glibc/SP/SP_Linux/LP_Linux_Prj/REL/VDLinux.3.x.2012/toolchain/src/arm-mips-src-20121018/build.arm.cortex-a15/obj/glibc_0_final/elf/dl-allobjs.os

.ARM.extab.text._dl_unload_cache
                0x0000000000000000        0x0
 .ARM.extab.text._dl_unload_cache
                0x0000000000000000        0x0 /home6/daewon2/Release/glibc/SP/SP_Linux/LP_Linux_Prj/REL/VDLinux.3.x.2012/toolchain/src/arm-mips-src-20121018/build.arm.cortex-a15/obj/glibc_0_final/elf/dl-allobjs.os

.ARM.exidx.text._dl_unload_cache
                0x0000000000000000        0x8
 .ARM.exidx.text._dl_unload_cache
                0x0000000000000000        0x8 /home6/daewon2/Release/glibc/SP/SP_Linux/LP_Linux_Prj/REL/VDLinux.3.x.2012/toolchain/src/arm-mips-src-20121018/build.arm.cortex-a15/obj/glibc_0_final/elf/dl-allobjs.os

.ARM.extab.text.enter.8587
                0x0000000000000000        0x0
 .ARM.extab.text.enter.8587
                0x0000000000000000        0x0 /home6/daewon2/Release/glibc/SP/SP_Linux/LP_Linux_Prj/REL/VDLinux.3.x.2012/toolchain/src/arm-mips-src-20121018/build.arm.cortex-a15/obj/glibc_0_final/elf/dl-allobjs.os

.ARM.exidx.text.enter.8587
                0x0000000000000000        0x8
 .ARM.exidx.text.enter.8587
                0x0000000000000000        0x8 /home6/daewon2/Release/glibc/SP/SP_Linux/LP_Linux_Prj/REL/VDLinux.3.x.2012/toolchain/src/arm-mips-src-20121018/build.arm.cortex-a15/obj/glibc_0_final/elf/dl-allobjs.os

.ARM.extab.text.check_match.8539
                0x0000000000000000        0x0
 .ARM.extab.text.check_match.8539
                0x0000000000000000        0x0 /home6/daewon2/Release/glibc/SP/SP_Linux/LP_Linux_Prj/REL/VDLinux.3.x.2012/toolchain/src/arm-mips-src-20121018/build.arm.cortex-a15/obj/glibc_0_final/elf/dl-allobjs.os

.ARM.exidx.text.check_match.8539
                0x0000000000000000        0x8
 .ARM.exidx.text.check_match.8539
                0x0000000000000000        0x8 /home6/daewon2/Release/glibc/SP/SP_Linux/LP_Linux_Prj/REL/VDLinux.3.x.2012/toolchain/src/arm-mips-src-20121018/build.arm.cortex-a15/obj/glibc_0_final/elf/dl-allobjs.os

.ARM.extab.text.do_lookup_x
                0x0000000000000000        0x0
 .ARM.extab.text.do_lookup_x
                0x0000000000000000        0x0 /home6/daewon2/Release/glibc/SP/SP_Linux/LP_Linux_Prj/REL/VDLinux.3.x.2012/toolchain/src/arm-mips-src-20121018/build.arm.cortex-a15/obj/glibc_0_final/elf/dl-allobjs.os

.ARM.exidx.text.do_lookup_x
                0x0000000000000000        0x8
 .ARM.exidx.text.do_lookup_x
                0x0000000000000000        0x8 /home6/daewon2/Release/glibc/SP/SP_Linux/LP_Linux_Prj/REL/VDLinux.3.x.2012/toolchain/src/arm-mips-src-20121018/build.arm.cortex-a15/obj/glibc_0_final/elf/dl-allobjs.os

.ARM.extab.text._dl_lookup_symbol_x
                0x0000000000000000        0x0
 .ARM.extab.text._dl_lookup_symbol_x
                0x0000000000000000        0x0 /home6/daewon2/Release/glibc/SP/SP_Linux/LP_Linux_Prj/REL/VDLinux.3.x.2012/toolchain/src/arm-mips-src-20121018/build.arm.cortex-a15/obj/glibc_0_final/elf/dl-allobjs.os

.ARM.exidx.text._dl_lookup_symbol_x
                0x0000000000000000        0x8
 .ARM.exidx.text._dl_lookup_symbol_x
                0x0000000000000000        0x8 /home6/daewon2/Release/glibc/SP/SP_Linux/LP_Linux_Prj/REL/VDLinux.3.x.2012/toolchain/src/arm-mips-src-20121018/build.arm.cortex-a15/obj/glibc_0_final/elf/dl-allobjs.os

.ARM.extab.text._dl_setup_hash
                0x0000000000000000        0x0
 .ARM.extab.text._dl_setup_hash
                0x0000000000000000        0x0 /home6/daewon2/Release/glibc/SP/SP_Linux/LP_Linux_Prj/REL/VDLinux.3.x.2012/toolchain/src/arm-mips-src-20121018/build.arm.cortex-a15/obj/glibc_0_final/elf/dl-allobjs.os

.ARM.exidx.text._dl_setup_hash
                0x0000000000000000        0x8
 .ARM.exidx.text._dl_setup_hash
                0x0000000000000000        0x8 /home6/daewon2/Release/glibc/SP/SP_Linux/LP_Linux_Prj/REL/VDLinux.3.x.2012/toolchain/src/arm-mips-src-20121018/build.arm.cortex-a15/obj/glibc_0_final/elf/dl-allobjs.os

.ARM.extab.text._dl_add_to_namespace_list
                0x0000000000000000        0x0
 .ARM.extab.text._dl_add_to_namespace_list
                0x0000000000000000        0x0 /home6/daewon2/Release/glibc/SP/SP_Linux/LP_Linux_Prj/REL/VDLinux.3.x.2012/toolchain/src/arm-mips-src-20121018/build.arm.cortex-a15/obj/glibc_0_final/elf/dl-allobjs.os

.ARM.exidx.text._dl_add_to_namespace_list
                0x0000000000000000        0x8
 .ARM.exidx.text._dl_add_to_namespace_list
                0x0000000000000000        0x8 /home6/daewon2/Release/glibc/SP/SP_Linux/LP_Linux_Prj/REL/VDLinux.3.x.2012/toolchain/src/arm-mips-src-20121018/build.arm.cortex-a15/obj/glibc_0_final/elf/dl-allobjs.os

.ARM.extab.text._dl_new_object
                0x0000000000000000        0x0
 .ARM.extab.text._dl_new_object
                0x0000000000000000        0x0 /home6/daewon2/Release/glibc/SP/SP_Linux/LP_Linux_Prj/REL/VDLinux.3.x.2012/toolchain/src/arm-mips-src-20121018/build.arm.cortex-a15/obj/glibc_0_final/elf/dl-allobjs.os

.ARM.exidx.text._dl_new_object
                0x0000000000000000        0x8
 .ARM.exidx.text._dl_new_object
                0x0000000000000000        0x8 /home6/daewon2/Release/glibc/SP/SP_Linux/LP_Linux_Prj/REL/VDLinux.3.x.2012/toolchain/src/arm-mips-src-20121018/build.arm.cortex-a15/obj/glibc_0_final/elf/dl-allobjs.os

.ARM.extab.text.fix_bad_pc24.8238.isra.2
                0x0000000000000000        0x0
 .ARM.extab.text.fix_bad_pc24.8238.isra.2
                0x0000000000000000        0x0 /home6/daewon2/Release/glibc/SP/SP_Linux/LP_Linux_Prj/REL/VDLinux.3.x.2012/toolchain/src/arm-mips-src-20121018/build.arm.cortex-a15/obj/glibc_0_final/elf/dl-allobjs.os

.ARM.exidx.text.fix_bad_pc24.8238.isra.2
                0x0000000000000000        0x8
 .ARM.exidx.text.fix_bad_pc24.8238.isra.2
                0x0000000000000000        0x8 /home6/daewon2/Release/glibc/SP/SP_Linux/LP_Linux_Prj/REL/VDLinux.3.x.2012/toolchain/src/arm-mips-src-20121018/build.arm.cortex-a15/obj/glibc_0_final/elf/dl-allobjs.os

.ARM.extab.text._dl_try_allocate_static_tls
                0x0000000000000000        0x0
 .ARM.extab.text._dl_try_allocate_static_tls
                0x0000000000000000        0x0 /home6/daewon2/Release/glibc/SP/SP_Linux/LP_Linux_Prj/REL/VDLinux.3.x.2012/toolchain/src/arm-mips-src-20121018/build.arm.cortex-a15/obj/glibc_0_final/elf/dl-allobjs.os

.ARM.exidx.text._dl_try_allocate_static_tls
                0x0000000000000000        0x8
 .ARM.exidx.text._dl_try_allocate_static_tls
                0x0000000000000000        0x8 /home6/daewon2/Release/glibc/SP/SP_Linux/LP_Linux_Prj/REL/VDLinux.3.x.2012/toolchain/src/arm-mips-src-20121018/build.arm.cortex-a15/obj/glibc_0_final/elf/dl-allobjs.os

.ARM.extab.text._dl_allocate_static_tls
                0x0000000000000000        0x0
 .ARM.extab.text._dl_allocate_static_tls
                0x0000000000000000        0x0 /home6/daewon2/Release/glibc/SP/SP_Linux/LP_Linux_Prj/REL/VDLinux.3.x.2012/toolchain/src/arm-mips-src-20121018/build.arm.cortex-a15/obj/glibc_0_final/elf/dl-allobjs.os

.ARM.exidx.text._dl_allocate_static_tls
                0x0000000000000000        0x8
 .ARM.exidx.text._dl_allocate_static_tls
                0x0000000000000000        0x8 /home6/daewon2/Release/glibc/SP/SP_Linux/LP_Linux_Prj/REL/VDLinux.3.x.2012/toolchain/src/arm-mips-src-20121018/build.arm.cortex-a15/obj/glibc_0_final/elf/dl-allobjs.os

.ARM.extab.text._dl_nothread_init_static_tls
                0x0000000000000000        0x0
 .ARM.extab.text._dl_nothread_init_static_tls
                0x0000000000000000        0x0 /home6/daewon2/Release/glibc/SP/SP_Linux/LP_Linux_Prj/REL/VDLinux.3.x.2012/toolchain/src/arm-mips-src-20121018/build.arm.cortex-a15/obj/glibc_0_final/elf/dl-allobjs.os

.ARM.exidx.text._dl_nothread_init_static_tls
                0x0000000000000000        0x8
 .ARM.exidx.text._dl_nothread_init_static_tls
                0x0000000000000000        0x8 /home6/daewon2/Release/glibc/SP/SP_Linux/LP_Linux_Prj/REL/VDLinux.3.x.2012/toolchain/src/arm-mips-src-20121018/build.arm.cortex-a15/obj/glibc_0_final/elf/dl-allobjs.os

.ARM.extab.text._dl_protect_relro
                0x0000000000000000        0x0
 .ARM.extab.text._dl_protect_relro
                0x0000000000000000        0x0 /home6/daewon2/Release/glibc/SP/SP_Linux/LP_Linux_Prj/REL/VDLinux.3.x.2012/toolchain/src/arm-mips-src-20121018/build.arm.cortex-a15/obj/glibc_0_final/elf/dl-allobjs.os

.ARM.exidx.text._dl_protect_relro
                0x0000000000000000        0x8
 .ARM.exidx.text._dl_protect_relro
                0x0000000000000000        0x8 /home6/daewon2/Release/glibc/SP/SP_Linux/LP_Linux_Prj/REL/VDLinux.3.x.2012/toolchain/src/arm-mips-src-20121018/build.arm.cortex-a15/obj/glibc_0_final/elf/dl-allobjs.os

.ARM.extab.text._dl_reloc_bad_type
                0x0000000000000000        0x0
 .ARM.extab.text._dl_reloc_bad_type
                0x0000000000000000        0x0 /home6/daewon2/Release/glibc/SP/SP_Linux/LP_Linux_Prj/REL/VDLinux.3.x.2012/toolchain/src/arm-mips-src-20121018/build.arm.cortex-a15/obj/glibc_0_final/elf/dl-allobjs.os

.ARM.exidx.text._dl_reloc_bad_type
                0x0000000000000000        0x8
 .ARM.exidx.text._dl_reloc_bad_type
                0x0000000000000000        0x8 /home6/daewon2/Release/glibc/SP/SP_Linux/LP_Linux_Prj/REL/VDLinux.3.x.2012/toolchain/src/arm-mips-src-20121018/build.arm.cortex-a15/obj/glibc_0_final/elf/dl-allobjs.os

.ARM.extab.text._dl_relocate_object
                0x0000000000000000        0x0
 .ARM.extab.text._dl_relocate_object
                0x0000000000000000        0x0 /home6/daewon2/Release/glibc/SP/SP_Linux/LP_Linux_Prj/REL/VDLinux.3.x.2012/toolchain/src/arm-mips-src-20121018/build.arm.cortex-a15/obj/glibc_0_final/elf/dl-allobjs.os

.ARM.exidx.text._dl_relocate_object
                0x0000000000000000        0x8
 .ARM.exidx.text._dl_relocate_object
                0x0000000000000000        0x8 /home6/daewon2/Release/glibc/SP/SP_Linux/LP_Linux_Prj/REL/VDLinux.3.x.2012/toolchain/src/arm-mips-src-20121018/build.arm.cortex-a15/obj/glibc_0_final/elf/dl-allobjs.os

.ARM.extab.text._dl_build_local_scope
                0x0000000000000000        0x0
 .ARM.extab.text._dl_build_local_scope
                0x0000000000000000        0x0 /home6/daewon2/Release/glibc/SP/SP_Linux/LP_Linux_Prj/REL/VDLinux.3.x.2012/toolchain/src/arm-mips-src-20121018/build.arm.cortex-a15/obj/glibc_0_final/elf/dl-allobjs.os

.ARM.exidx.text._dl_build_local_scope
                0x0000000000000000        0x8
 .ARM.exidx.text._dl_build_local_scope
                0x0000000000000000        0x8 /home6/daewon2/Release/glibc/SP/SP_Linux/LP_Linux_Prj/REL/VDLinux.3.x.2012/toolchain/src/arm-mips-src-20121018/build.arm.cortex-a15/obj/glibc_0_final/elf/dl-allobjs.os

.ARM.extab.text.openaux
                0x0000000000000000        0x0
 .ARM.extab.text.openaux
                0x0000000000000000        0x0 /home6/daewon2/Release/glibc/SP/SP_Linux/LP_Linux_Prj/REL/VDLinux.3.x.2012/toolchain/src/arm-mips-src-20121018/build.arm.cortex-a15/obj/glibc_0_final/elf/dl-allobjs.os

.ARM.exidx.text.openaux
                0x0000000000000000        0x8
 .ARM.exidx.text.openaux
                0x0000000000000000        0x8 /home6/daewon2/Release/glibc/SP/SP_Linux/LP_Linux_Prj/REL/VDLinux.3.x.2012/toolchain/src/arm-mips-src-20121018/build.arm.cortex-a15/obj/glibc_0_final/elf/dl-allobjs.os

.ARM.extab.text._dl_map_object_deps
                0x0000000000000000        0x0
 .ARM.extab.text._dl_map_object_deps
                0x0000000000000000        0x0 /home6/daewon2/Release/glibc/SP/SP_Linux/LP_Linux_Prj/REL/VDLinux.3.x.2012/toolchain/src/arm-mips-src-20121018/build.arm.cortex-a15/obj/glibc_0_final/elf/dl-allobjs.os

.ARM.exidx.text._dl_map_object_deps
                0x0000000000000000        0x8
 .ARM.exidx.text._dl_map_object_deps
                0x0000000000000000        0x8 /home6/daewon2/Release/glibc/SP/SP_Linux/LP_Linux_Prj/REL/VDLinux.3.x.2012/toolchain/src/arm-mips-src-20121018/build.arm.cortex-a15/obj/glibc_0_final/elf/dl-allobjs.os

.ARM.extab.text._dl_fixup
                0x0000000000000000        0x0
 .ARM.extab.text._dl_fixup
                0x0000000000000000        0x0 /home6/daewon2/Release/glibc/SP/SP_Linux/LP_Linux_Prj/REL/VDLinux.3.x.2012/toolchain/src/arm-mips-src-20121018/build.arm.cortex-a15/obj/glibc_0_final/elf/dl-allobjs.os

.ARM.exidx.text._dl_fixup
                0x0000000000000000        0x8
 .ARM.exidx.text._dl_fixup
                0x0000000000000000        0x8 /home6/daewon2/Release/glibc/SP/SP_Linux/LP_Linux_Prj/REL/VDLinux.3.x.2012/toolchain/src/arm-mips-src-20121018/build.arm.cortex-a15/obj/glibc_0_final/elf/dl-allobjs.os

.ARM.extab.text._dl_profile_fixup
                0x0000000000000000        0x0
 .ARM.extab.text._dl_profile_fixup
                0x0000000000000000        0x0 /home6/daewon2/Release/glibc/SP/SP_Linux/LP_Linux_Prj/REL/VDLinux.3.x.2012/toolchain/src/arm-mips-src-20121018/build.arm.cortex-a15/obj/glibc_0_final/elf/dl-allobjs.os

.ARM.exidx.text._dl_profile_fixup
                0x0000000000000000        0x8
 .ARM.exidx.text._dl_profile_fixup
                0x0000000000000000        0x8 /home6/daewon2/Release/glibc/SP/SP_Linux/LP_Linux_Prj/REL/VDLinux.3.x.2012/toolchain/src/arm-mips-src-20121018/build.arm.cortex-a15/obj/glibc_0_final/elf/dl-allobjs.os

.ARM.extab.text._dl_call_pltexit
                0x0000000000000000        0x0
 .ARM.extab.text._dl_call_pltexit
                0x0000000000000000        0x0 /home6/daewon2/Release/glibc/SP/SP_Linux/LP_Linux_Prj/REL/VDLinux.3.x.2012/toolchain/src/arm-mips-src-20121018/build.arm.cortex-a15/obj/glibc_0_final/elf/dl-allobjs.os

.ARM.exidx.text._dl_call_pltexit
                0x0000000000000000        0x8
 .ARM.exidx.text._dl_call_pltexit
                0x0000000000000000        0x8 /home6/daewon2/Release/glibc/SP/SP_Linux/LP_Linux_Prj/REL/VDLinux.3.x.2012/toolchain/src/arm-mips-src-20121018/build.arm.cortex-a15/obj/glibc_0_final/elf/dl-allobjs.os

.ARM.extab.text._dl_signal_error
                0x0000000000000000        0xc
 .ARM.extab.text._dl_signal_error
                0x0000000000000000        0xc /home6/daewon2/Release/glibc/SP/SP_Linux/LP_Linux_Prj/REL/VDLinux.3.x.2012/toolchain/src/arm-mips-src-20121018/build.arm.cortex-a15/obj/glibc_0_final/elf/dl-allobjs.os

.ARM.exidx.text._dl_signal_error
                0x0000000000000000        0x8
 .ARM.exidx.text._dl_signal_error
                0x0000000000000000        0x8 /home6/daewon2/Release/glibc/SP/SP_Linux/LP_Linux_Prj/REL/VDLinux.3.x.2012/toolchain/src/arm-mips-src-20121018/build.arm.cortex-a15/obj/glibc_0_final/elf/dl-allobjs.os

.ARM.extab.text._dl_signal_cerror
                0x0000000000000000        0x0
 .ARM.extab.text._dl_signal_cerror
                0x0000000000000000        0x0 /home6/daewon2/Release/glibc/SP/SP_Linux/LP_Linux_Prj/REL/VDLinux.3.x.2012/toolchain/src/arm-mips-src-20121018/build.arm.cortex-a15/obj/glibc_0_final/elf/dl-allobjs.os

.ARM.exidx.text._dl_signal_cerror
                0x0000000000000000        0x8
 .ARM.exidx.text._dl_signal_cerror
                0x0000000000000000        0x8 /home6/daewon2/Release/glibc/SP/SP_Linux/LP_Linux_Prj/REL/VDLinux.3.x.2012/toolchain/src/arm-mips-src-20121018/build.arm.cortex-a15/obj/glibc_0_final/elf/dl-allobjs.os

.ARM.extab.text._dl_catch_error
                0x0000000000000000        0x0
 .ARM.extab.text._dl_catch_error
                0x0000000000000000        0x0 /home6/daewon2/Release/glibc/SP/SP_Linux/LP_Linux_Prj/REL/VDLinux.3.x.2012/toolchain/src/arm-mips-src-20121018/build.arm.cortex-a15/obj/glibc_0_final/elf/dl-allobjs.os

.ARM.exidx.text._dl_catch_error
                0x0000000000000000        0x8
 .ARM.exidx.text._dl_catch_error
                0x0000000000000000        0x8 /home6/daewon2/Release/glibc/SP/SP_Linux/LP_Linux_Prj/REL/VDLinux.3.x.2012/toolchain/src/arm-mips-src-20121018/build.arm.cortex-a15/obj/glibc_0_final/elf/dl-allobjs.os

.ARM.extab.text._dl_receive_error
                0x0000000000000000        0x0
 .ARM.extab.text._dl_receive_error
                0x0000000000000000        0x0 /home6/daewon2/Release/glibc/SP/SP_Linux/LP_Linux_Prj/REL/VDLinux.3.x.2012/toolchain/src/arm-mips-src-20121018/build.arm.cortex-a15/obj/glibc_0_final/elf/dl-allobjs.os

.ARM.exidx.text._dl_receive_error
                0x0000000000000000        0x8
 .ARM.exidx.text._dl_receive_error
                0x0000000000000000        0x8 /home6/daewon2/Release/glibc/SP/SP_Linux/LP_Linux_Prj/REL/VDLinux.3.x.2012/toolchain/src/arm-mips-src-20121018/build.arm.cortex-a15/obj/glibc_0_final/elf/dl-allobjs.os

.ARM.extab.text.call_init
                0x0000000000000000        0xc
 .ARM.extab.text.call_init
                0x0000000000000000        0xc /home6/daewon2/Release/glibc/SP/SP_Linux/LP_Linux_Prj/REL/VDLinux.3.x.2012/toolchain/src/arm-mips-src-20121018/build.arm.cortex-a15/obj/glibc_0_final/elf/dl-allobjs.os

.ARM.exidx.text.call_init
                0x0000000000000000        0x8
 .ARM.exidx.text.call_init
                0x0000000000000000        0x8 /home6/daewon2/Release/glibc/SP/SP_Linux/LP_Linux_Prj/REL/VDLinux.3.x.2012/toolchain/src/arm-mips-src-20121018/build.arm.cortex-a15/obj/glibc_0_final/elf/dl-allobjs.os

.ARM.extab.text._dl_init
                0x0000000000000000        0x0
 .ARM.extab.text._dl_init
                0x0000000000000000        0x0 /home6/daewon2/Release/glibc/SP/SP_Linux/LP_Linux_Prj/REL/VDLinux.3.x.2012/toolchain/src/arm-mips-src-20121018/build.arm.cortex-a15/obj/glibc_0_final/elf/dl-allobjs.os

.ARM.exidx.text._dl_init
                0x0000000000000000        0x8
 .ARM.exidx.text._dl_init
                0x0000000000000000        0x8 /home6/daewon2/Release/glibc/SP/SP_Linux/LP_Linux_Prj/REL/VDLinux.3.x.2012/toolchain/src/arm-mips-src-20121018/build.arm.cortex-a15/obj/glibc_0_final/elf/dl-allobjs.os

.ARM.extab.text._dl_sort_fini
                0x0000000000000000        0x0
 .ARM.extab.text._dl_sort_fini
                0x0000000000000000        0x0 /home6/daewon2/Release/glibc/SP/SP_Linux/LP_Linux_Prj/REL/VDLinux.3.x.2012/toolchain/src/arm-mips-src-20121018/build.arm.cortex-a15/obj/glibc_0_final/elf/dl-allobjs.os

.ARM.exidx.text._dl_sort_fini
                0x0000000000000000        0x8
 .ARM.exidx.text._dl_sort_fini
                0x0000000000000000        0x8 /home6/daewon2/Release/glibc/SP/SP_Linux/LP_Linux_Prj/REL/VDLinux.3.x.2012/toolchain/src/arm-mips-src-20121018/build.arm.cortex-a15/obj/glibc_0_final/elf/dl-allobjs.os

.ARM.extab.text._dl_fini
                0x0000000000000000        0x0
 .ARM.extab.text._dl_fini
                0x0000000000000000        0x0 /home6/daewon2/Release/glibc/SP/SP_Linux/LP_Linux_Prj/REL/VDLinux.3.x.2012/toolchain/src/arm-mips-src-20121018/build.arm.cortex-a15/obj/glibc_0_final/elf/dl-allobjs.os

.ARM.exidx.text._dl_fini
                0x0000000000000000        0x8
 .ARM.exidx.text._dl_fini
                0x0000000000000000        0x8 /home6/daewon2/Release/glibc/SP/SP_Linux/LP_Linux_Prj/REL/VDLinux.3.x.2012/toolchain/src/arm-mips-src-20121018/build.arm.cortex-a15/obj/glibc_0_final/elf/dl-allobjs.os

.ARM.extab.text.__GI__dl_debug_state
                0x0000000000000000        0x0
 .ARM.extab.text.__GI__dl_debug_state
                0x0000000000000000        0x0 /home6/daewon2/Release/glibc/SP/SP_Linux/LP_Linux_Prj/REL/VDLinux.3.x.2012/toolchain/src/arm-mips-src-20121018/build.arm.cortex-a15/obj/glibc_0_final/elf/dl-allobjs.os

.ARM.exidx.text.__GI__dl_debug_state
                0x0000000000000000        0x8
 .ARM.exidx.text.__GI__dl_debug_state
                0x0000000000000000        0x8 /home6/daewon2/Release/glibc/SP/SP_Linux/LP_Linux_Prj/REL/VDLinux.3.x.2012/toolchain/src/arm-mips-src-20121018/build.arm.cortex-a15/obj/glibc_0_final/elf/dl-allobjs.os

.ARM.extab.text._dl_debug_initialize
                0x0000000000000000        0x0
 .ARM.extab.text._dl_debug_initialize
                0x0000000000000000        0x0 /home6/daewon2/Release/glibc/SP/SP_Linux/LP_Linux_Prj/REL/VDLinux.3.x.2012/toolchain/src/arm-mips-src-20121018/build.arm.cortex-a15/obj/glibc_0_final/elf/dl-allobjs.os

.ARM.exidx.text._dl_debug_initialize
                0x0000000000000000        0x8
 .ARM.exidx.text._dl_debug_initialize
                0x0000000000000000        0x8 /home6/daewon2/Release/glibc/SP/SP_Linux/LP_Linux_Prj/REL/VDLinux.3.x.2012/toolchain/src/arm-mips-src-20121018/build.arm.cortex-a15/obj/glibc_0_final/elf/dl-allobjs.os

.ARM.extab.text._dl_debug_vdprintf
                0x0000000000000000        0x0
 .ARM.extab.text._dl_debug_vdprintf
                0x0000000000000000        0x0 /home6/daewon2/Release/glibc/SP/SP_Linux/LP_Linux_Prj/REL/VDLinux.3.x.2012/toolchain/src/arm-mips-src-20121018/build.arm.cortex-a15/obj/glibc_0_final/elf/dl-allobjs.os

.ARM.exidx.text._dl_debug_vdprintf
                0x0000000000000000        0x8
 .ARM.exidx.text._dl_debug_vdprintf
                0x0000000000000000        0x8 /home6/daewon2/Release/glibc/SP/SP_Linux/LP_Linux_Prj/REL/VDLinux.3.x.2012/toolchain/src/arm-mips-src-20121018/build.arm.cortex-a15/obj/glibc_0_final/elf/dl-allobjs.os

.ARM.extab.text._dl_sysdep_read_whole_file
                0x0000000000000000        0x0
 .ARM.extab.text._dl_sysdep_read_whole_file
                0x0000000000000000        0x0 /home6/daewon2/Release/glibc/SP/SP_Linux/LP_Linux_Prj/REL/VDLinux.3.x.2012/toolchain/src/arm-mips-src-20121018/build.arm.cortex-a15/obj/glibc_0_final/elf/dl-allobjs.os

.ARM.exidx.text._dl_sysdep_read_whole_file
                0x0000000000000000        0x8
 .ARM.exidx.text._dl_sysdep_read_whole_file
                0x0000000000000000        0x8 /home6/daewon2/Release/glibc/SP/SP_Linux/LP_Linux_Prj/REL/VDLinux.3.x.2012/toolchain/src/arm-mips-src-20121018/build.arm.cortex-a15/obj/glibc_0_final/elf/dl-allobjs.os

.ARM.extab.text._dl_debug_printf
                0x0000000000000000        0xc
 .ARM.extab.text._dl_debug_printf
                0x0000000000000000        0xc /home6/daewon2/Release/glibc/SP/SP_Linux/LP_Linux_Prj/REL/VDLinux.3.x.2012/toolchain/src/arm-mips-src-20121018/build.arm.cortex-a15/obj/glibc_0_final/elf/dl-allobjs.os

.ARM.exidx.text._dl_debug_printf
                0x0000000000000000        0x8
 .ARM.exidx.text._dl_debug_printf
                0x0000000000000000        0x8 /home6/daewon2/Release/glibc/SP/SP_Linux/LP_Linux_Prj/REL/VDLinux.3.x.2012/toolchain/src/arm-mips-src-20121018/build.arm.cortex-a15/obj/glibc_0_final/elf/dl-allobjs.os

.ARM.extab.text._dl_debug_printf_c
                0x0000000000000000        0xc
 .ARM.extab.text._dl_debug_printf_c
                0x0000000000000000        0xc /home6/daewon2/Release/glibc/SP/SP_Linux/LP_Linux_Prj/REL/VDLinux.3.x.2012/toolchain/src/arm-mips-src-20121018/build.arm.cortex-a15/obj/glibc_0_final/elf/dl-allobjs.os

.ARM.exidx.text._dl_debug_printf_c
                0x0000000000000000        0x8
 .ARM.exidx.text._dl_debug_printf_c
                0x0000000000000000        0x8 /home6/daewon2/Release/glibc/SP/SP_Linux/LP_Linux_Prj/REL/VDLinux.3.x.2012/toolchain/src/arm-mips-src-20121018/build.arm.cortex-a15/obj/glibc_0_final/elf/dl-allobjs.os

.ARM.extab.text._dl_dprintf
                0x0000000000000000        0xc
 .ARM.extab.text._dl_dprintf
                0x0000000000000000        0xc /home6/daewon2/Release/glibc/SP/SP_Linux/LP_Linux_Prj/REL/VDLinux.3.x.2012/toolchain/src/arm-mips-src-20121018/build.arm.cortex-a15/obj/glibc_0_final/elf/dl-allobjs.os

.ARM.exidx.text._dl_dprintf
                0x0000000000000000        0x8
 .ARM.exidx.text._dl_dprintf
                0x0000000000000000        0x8 /home6/daewon2/Release/glibc/SP/SP_Linux/LP_Linux_Prj/REL/VDLinux.3.x.2012/toolchain/src/arm-mips-src-20121018/build.arm.cortex-a15/obj/glibc_0_final/elf/dl-allobjs.os

.ARM.extab.text._dl_name_match_p
                0x0000000000000000        0x0
 .ARM.extab.text._dl_name_match_p
                0x0000000000000000        0x0 /home6/daewon2/Release/glibc/SP/SP_Linux/LP_Linux_Prj/REL/VDLinux.3.x.2012/toolchain/src/arm-mips-src-20121018/build.arm.cortex-a15/obj/glibc_0_final/elf/dl-allobjs.os

.ARM.exidx.text._dl_name_match_p
                0x0000000000000000        0x8
 .ARM.exidx.text._dl_name_match_p
                0x0000000000000000        0x8 /home6/daewon2/Release/glibc/SP/SP_Linux/LP_Linux_Prj/REL/VDLinux.3.x.2012/toolchain/src/arm-mips-src-20121018/build.arm.cortex-a15/obj/glibc_0_final/elf/dl-allobjs.os

.ARM.extab.text._dl_higher_prime_number
                0x0000000000000000        0x0
 .ARM.extab.text._dl_higher_prime_number
                0x0000000000000000        0x0 /home6/daewon2/Release/glibc/SP/SP_Linux/LP_Linux_Prj/REL/VDLinux.3.x.2012/toolchain/src/arm-mips-src-20121018/build.arm.cortex-a15/obj/glibc_0_final/elf/dl-allobjs.os

.ARM.exidx.text._dl_higher_prime_number
                0x0000000000000000        0x8
 .ARM.exidx.text._dl_higher_prime_number
                0x0000000000000000        0x8 /home6/daewon2/Release/glibc/SP/SP_Linux/LP_Linux_Prj/REL/VDLinux.3.x.2012/toolchain/src/arm-mips-src-20121018/build.arm.cortex-a15/obj/glibc_0_final/elf/dl-allobjs.os

.ARM.extab.text.match_symbol
                0x0000000000000000        0x0
 .ARM.extab.text.match_symbol
                0x0000000000000000        0x0 /home6/daewon2/Release/glibc/SP/SP_Linux/LP_Linux_Prj/REL/VDLinux.3.x.2012/toolchain/src/arm-mips-src-20121018/build.arm.cortex-a15/obj/glibc_0_final/elf/dl-allobjs.os

.ARM.exidx.text.match_symbol
                0x0000000000000000        0x8
 .ARM.exidx.text.match_symbol
                0x0000000000000000        0x8 /home6/daewon2/Release/glibc/SP/SP_Linux/LP_Linux_Prj/REL/VDLinux.3.x.2012/toolchain/src/arm-mips-src-20121018/build.arm.cortex-a15/obj/glibc_0_final/elf/dl-allobjs.os

.ARM.extab.text._dl_check_map_versions
                0x0000000000000000        0x0
 .ARM.extab.text._dl_check_map_versions
                0x0000000000000000        0x0 /home6/daewon2/Release/glibc/SP/SP_Linux/LP_Linux_Prj/REL/VDLinux.3.x.2012/toolchain/src/arm-mips-src-20121018/build.arm.cortex-a15/obj/glibc_0_final/elf/dl-allobjs.os

.ARM.exidx.text._dl_check_map_versions
                0x0000000000000000        0x8
 .ARM.exidx.text._dl_check_map_versions
                0x0000000000000000        0x8 /home6/daewon2/Release/glibc/SP/SP_Linux/LP_Linux_Prj/REL/VDLinux.3.x.2012/toolchain/src/arm-mips-src-20121018/build.arm.cortex-a15/obj/glibc_0_final/elf/dl-allobjs.os

.ARM.extab.text._dl_check_all_versions
                0x0000000000000000        0x0
 .ARM.extab.text._dl_check_all_versions
                0x0000000000000000        0x0 /home6/daewon2/Release/glibc/SP/SP_Linux/LP_Linux_Prj/REL/VDLinux.3.x.2012/toolchain/src/arm-mips-src-20121018/build.arm.cortex-a15/obj/glibc_0_final/elf/dl-allobjs.os

.ARM.exidx.text._dl_check_all_versions
                0x0000000000000000        0x8
 .ARM.exidx.text._dl_check_all_versions
                0x0000000000000000        0x8 /home6/daewon2/Release/glibc/SP/SP_Linux/LP_Linux_Prj/REL/VDLinux.3.x.2012/toolchain/src/arm-mips-src-20121018/build.arm.cortex-a15/obj/glibc_0_final/elf/dl-allobjs.os

.ARM.extab.text._dl_start_profile
                0x0000000000000000        0x0
 .ARM.extab.text._dl_start_profile
                0x0000000000000000        0x0 /home6/daewon2/Release/glibc/SP/SP_Linux/LP_Linux_Prj/REL/VDLinux.3.x.2012/toolchain/src/arm-mips-src-20121018/build.arm.cortex-a15/obj/glibc_0_final/elf/dl-allobjs.os

.ARM.exidx.text._dl_start_profile
                0x0000000000000000        0x8
 .ARM.exidx.text._dl_start_profile
                0x0000000000000000        0x8 /home6/daewon2/Release/glibc/SP/SP_Linux/LP_Linux_Prj/REL/VDLinux.3.x.2012/toolchain/src/arm-mips-src-20121018/build.arm.cortex-a15/obj/glibc_0_final/elf/dl-allobjs.os

.ARM.extab.text._dl_mcount
                0x0000000000000000        0x0
 .ARM.extab.text._dl_mcount
                0x0000000000000000        0x0 /home6/daewon2/Release/glibc/SP/SP_Linux/LP_Linux_Prj/REL/VDLinux.3.x.2012/toolchain/src/arm-mips-src-20121018/build.arm.cortex-a15/obj/glibc_0_final/elf/dl-allobjs.os

.ARM.exidx.text._dl_mcount
                0x0000000000000000        0x8
 .ARM.exidx.text._dl_mcount
                0x0000000000000000        0x8 /home6/daewon2/Release/glibc/SP/SP_Linux/LP_Linux_Prj/REL/VDLinux.3.x.2012/toolchain/src/arm-mips-src-20121018/build.arm.cortex-a15/obj/glibc_0_final/elf/dl-allobjs.os

.ARM.extab.text._dl_resolve_conflicts
                0x0000000000000000        0x0
 .ARM.extab.text._dl_resolve_conflicts
                0x0000000000000000        0x0 /home6/daewon2/Release/glibc/SP/SP_Linux/LP_Linux_Prj/REL/VDLinux.3.x.2012/toolchain/src/arm-mips-src-20121018/build.arm.cortex-a15/obj/glibc_0_final/elf/dl-allobjs.os

.ARM.exidx.text._dl_resolve_conflicts
                0x0000000000000000        0x8
 .ARM.exidx.text._dl_resolve_conflicts
                0x0000000000000000        0x8 /home6/daewon2/Release/glibc/SP/SP_Linux/LP_Linux_Prj/REL/VDLinux.3.x.2012/toolchain/src/arm-mips-src-20121018/build.arm.cortex-a15/obj/glibc_0_final/elf/dl-allobjs.os

.ARM.extab.text.unlikely.oom
                0x0000000000000000        0xc
 .ARM.extab.text.unlikely.oom
                0x0000000000000000        0xc /home6/daewon2/Release/glibc/SP/SP_Linux/LP_Linux_Prj/REL/VDLinux.3.x.2012/toolchain/src/arm-mips-src-20121018/build.arm.cortex-a15/obj/glibc_0_final/elf/dl-allobjs.os

.ARM.exidx.text.unlikely.oom
                0x0000000000000000        0x8
 .ARM.exidx.text.unlikely.oom
                0x0000000000000000        0x8 /home6/daewon2/Release/glibc/SP/SP_Linux/LP_Linux_Prj/REL/VDLinux.3.x.2012/toolchain/src/arm-mips-src-20121018/build.arm.cortex-a15/obj/glibc_0_final/elf/dl-allobjs.os

.ARM.extab.text.unlikely.tls_get_addr_tail
                0x0000000000000000        0x0
 .ARM.extab.text.unlikely.tls_get_addr_tail
                0x0000000000000000        0x0 /home6/daewon2/Release/glibc/SP/SP_Linux/LP_Linux_Prj/REL/VDLinux.3.x.2012/toolchain/src/arm-mips-src-20121018/build.arm.cortex-a15/obj/glibc_0_final/elf/dl-allobjs.os

.ARM.exidx.text.unlikely.tls_get_addr_tail
                0x0000000000000000        0x8
 .ARM.exidx.text.unlikely.tls_get_addr_tail
                0x0000000000000000        0x8 /home6/daewon2/Release/glibc/SP/SP_Linux/LP_Linux_Prj/REL/VDLinux.3.x.2012/toolchain/src/arm-mips-src-20121018/build.arm.cortex-a15/obj/glibc_0_final/elf/dl-allobjs.os

.ARM.extab.text.allocate_dtv
                0x0000000000000000        0x0
 .ARM.extab.text.allocate_dtv
                0x0000000000000000        0x0 /home6/daewon2/Release/glibc/SP/SP_Linux/LP_Linux_Prj/REL/VDLinux.3.x.2012/toolchain/src/arm-mips-src-20121018/build.arm.cortex-a15/obj/glibc_0_final/elf/dl-allobjs.os

.ARM.exidx.text.allocate_dtv
                0x0000000000000000        0x8
 .ARM.exidx.text.allocate_dtv
                0x0000000000000000        0x8 /home6/daewon2/Release/glibc/SP/SP_Linux/LP_Linux_Prj/REL/VDLinux.3.x.2012/toolchain/src/arm-mips-src-20121018/build.arm.cortex-a15/obj/glibc_0_final/elf/dl-allobjs.os

.ARM.extab.text._dl_next_tls_modid
                0x0000000000000000        0x0
 .ARM.extab.text._dl_next_tls_modid
                0x0000000000000000        0x0 /home6/daewon2/Release/glibc/SP/SP_Linux/LP_Linux_Prj/REL/VDLinux.3.x.2012/toolchain/src/arm-mips-src-20121018/build.arm.cortex-a15/obj/glibc_0_final/elf/dl-allobjs.os

.ARM.exidx.text._dl_next_tls_modid
                0x0000000000000000        0x8
 .ARM.exidx.text._dl_next_tls_modid
                0x0000000000000000        0x8 /home6/daewon2/Release/glibc/SP/SP_Linux/LP_Linux_Prj/REL/VDLinux.3.x.2012/toolchain/src/arm-mips-src-20121018/build.arm.cortex-a15/obj/glibc_0_final/elf/dl-allobjs.os

.ARM.extab.text._dl_determine_tlsoffset
                0x0000000000000000        0x0
 .ARM.extab.text._dl_determine_tlsoffset
                0x0000000000000000        0x0 /home6/daewon2/Release/glibc/SP/SP_Linux/LP_Linux_Prj/REL/VDLinux.3.x.2012/toolchain/src/arm-mips-src-20121018/build.arm.cortex-a15/obj/glibc_0_final/elf/dl-allobjs.os

.ARM.exidx.text._dl_determine_tlsoffset
                0x0000000000000000        0x8
 .ARM.exidx.text._dl_determine_tlsoffset
                0x0000000000000000        0x8 /home6/daewon2/Release/glibc/SP/SP_Linux/LP_Linux_Prj/REL/VDLinux.3.x.2012/toolchain/src/arm-mips-src-20121018/build.arm.cortex-a15/obj/glibc_0_final/elf/dl-allobjs.os

.ARM.extab.text.__GI__dl_tls_setup
                0x0000000000000000        0x0
 .ARM.extab.text.__GI__dl_tls_setup
                0x0000000000000000        0x0 /home6/daewon2/Release/glibc/SP/SP_Linux/LP_Linux_Prj/REL/VDLinux.3.x.2012/toolchain/src/arm-mips-src-20121018/build.arm.cortex-a15/obj/glibc_0_final/elf/dl-allobjs.os

.ARM.exidx.text.__GI__dl_tls_setup
                0x0000000000000000        0x8
 .ARM.exidx.text.__GI__dl_tls_setup
                0x0000000000000000        0x8 /home6/daewon2/Release/glibc/SP/SP_Linux/LP_Linux_Prj/REL/VDLinux.3.x.2012/toolchain/src/arm-mips-src-20121018/build.arm.cortex-a15/obj/glibc_0_final/elf/dl-allobjs.os

.ARM.extab.text._dl_get_tls_static_info
                0x0000000000000000        0x0
 .ARM.extab.text._dl_get_tls_static_info
                0x0000000000000000        0x0 /home6/daewon2/Release/glibc/SP/SP_Linux/LP_Linux_Prj/REL/VDLinux.3.x.2012/toolchain/src/arm-mips-src-20121018/build.arm.cortex-a15/obj/glibc_0_final/elf/dl-allobjs.os

.ARM.exidx.text._dl_get_tls_static_info
                0x0000000000000000        0x8
 .ARM.exidx.text._dl_get_tls_static_info
                0x0000000000000000        0x8 /home6/daewon2/Release/glibc/SP/SP_Linux/LP_Linux_Prj/REL/VDLinux.3.x.2012/toolchain/src/arm-mips-src-20121018/build.arm.cortex-a15/obj/glibc_0_final/elf/dl-allobjs.os

.ARM.extab.text._dl_allocate_tls_storage
                0x0000000000000000        0x0
 .ARM.extab.text._dl_allocate_tls_storage
                0x0000000000000000        0x0 /home6/daewon2/Release/glibc/SP/SP_Linux/LP_Linux_Prj/REL/VDLinux.3.x.2012/toolchain/src/arm-mips-src-20121018/build.arm.cortex-a15/obj/glibc_0_final/elf/dl-allobjs.os

.ARM.exidx.text._dl_allocate_tls_storage
                0x0000000000000000        0x8
 .ARM.exidx.text._dl_allocate_tls_storage
                0x0000000000000000        0x8 /home6/daewon2/Release/glibc/SP/SP_Linux/LP_Linux_Prj/REL/VDLinux.3.x.2012/toolchain/src/arm-mips-src-20121018/build.arm.cortex-a15/obj/glibc_0_final/elf/dl-allobjs.os

.ARM.extab.text.__GI__dl_allocate_tls_init
                0x0000000000000000        0x0
 .ARM.extab.text.__GI__dl_allocate_tls_init
                0x0000000000000000        0x0 /home6/daewon2/Release/glibc/SP/SP_Linux/LP_Linux_Prj/REL/VDLinux.3.x.2012/toolchain/src/arm-mips-src-20121018/build.arm.cortex-a15/obj/glibc_0_final/elf/dl-allobjs.os

.ARM.exidx.text.__GI__dl_allocate_tls_init
                0x0000000000000000        0x8
 .ARM.exidx.text.__GI__dl_allocate_tls_init
                0x0000000000000000        0x8 /home6/daewon2/Release/glibc/SP/SP_Linux/LP_Linux_Prj/REL/VDLinux.3.x.2012/toolchain/src/arm-mips-src-20121018/build.arm.cortex-a15/obj/glibc_0_final/elf/dl-allobjs.os

.ARM.extab.text.__GI__dl_allocate_tls
                0x0000000000000000        0xc
 .ARM.extab.text.__GI__dl_allocate_tls
                0x0000000000000000        0xc /home6/daewon2/Release/glibc/SP/SP_Linux/LP_Linux_Prj/REL/VDLinux.3.x.2012/toolchain/src/arm-mips-src-20121018/build.arm.cortex-a15/obj/glibc_0_final/elf/dl-allobjs.os

.ARM.exidx.text.__GI__dl_allocate_tls
                0x0000000000000000        0x8
 .ARM.exidx.text.__GI__dl_allocate_tls
                0x0000000000000000        0x8 /home6/daewon2/Release/glibc/SP/SP_Linux/LP_Linux_Prj/REL/VDLinux.3.x.2012/toolchain/src/arm-mips-src-20121018/build.arm.cortex-a15/obj/glibc_0_final/elf/dl-allobjs.os

.ARM.extab.text.__GI__dl_deallocate_tls
                0x0000000000000000        0x0
 .ARM.extab.text.__GI__dl_deallocate_tls
                0x0000000000000000        0x0 /home6/daewon2/Release/glibc/SP/SP_Linux/LP_Linux_Prj/REL/VDLinux.3.x.2012/toolchain/src/arm-mips-src-20121018/build.arm.cortex-a15/obj/glibc_0_final/elf/dl-allobjs.os

.ARM.exidx.text.__GI__dl_deallocate_tls
                0x0000000000000000        0x8
 .ARM.exidx.text.__GI__dl_deallocate_tls
                0x0000000000000000        0x8 /home6/daewon2/Release/glibc/SP/SP_Linux/LP_Linux_Prj/REL/VDLinux.3.x.2012/toolchain/src/arm-mips-src-20121018/build.arm.cortex-a15/obj/glibc_0_final/elf/dl-allobjs.os

.ARM.extab.text._dl_update_slotinfo
                0x0000000000000000        0x0
 .ARM.extab.text._dl_update_slotinfo
                0x0000000000000000        0x0 /home6/daewon2/Release/glibc/SP/SP_Linux/LP_Linux_Prj/REL/VDLinux.3.x.2012/toolchain/src/arm-mips-src-20121018/build.arm.cortex-a15/obj/glibc_0_final/elf/dl-allobjs.os

.ARM.exidx.text._dl_update_slotinfo
                0x0000000000000000        0x8
 .ARM.exidx.text._dl_update_slotinfo
                0x0000000000000000        0x8 /home6/daewon2/Release/glibc/SP/SP_Linux/LP_Linux_Prj/REL/VDLinux.3.x.2012/toolchain/src/arm-mips-src-20121018/build.arm.cortex-a15/obj/glibc_0_final/elf/dl-allobjs.os

.ARM.extab.text.__tls_get_addr
                0x0000000000000000        0x0
 .ARM.extab.text.__tls_get_addr
                0x0000000000000000        0x0 /home6/daewon2/Release/glibc/SP/SP_Linux/LP_Linux_Prj/REL/VDLinux.3.x.2012/toolchain/src/arm-mips-src-20121018/build.arm.cortex-a15/obj/glibc_0_final/elf/dl-allobjs.os

.ARM.exidx.text.__tls_get_addr
                0x0000000000000000        0x8
 .ARM.exidx.text.__tls_get_addr
                0x0000000000000000        0x8 /home6/daewon2/Release/glibc/SP/SP_Linux/LP_Linux_Prj/REL/VDLinux.3.x.2012/toolchain/src/arm-mips-src-20121018/build.arm.cortex-a15/obj/glibc_0_final/elf/dl-allobjs.os

.ARM.extab.text._dl_tls_get_addr_soft
                0x0000000000000000        0x0
 .ARM.extab.text._dl_tls_get_addr_soft
                0x0000000000000000        0x0 /home6/daewon2/Release/glibc/SP/SP_Linux/LP_Linux_Prj/REL/VDLinux.3.x.2012/toolchain/src/arm-mips-src-20121018/build.arm.cortex-a15/obj/glibc_0_final/elf/dl-allobjs.os

.ARM.exidx.text._dl_tls_get_addr_soft
                0x0000000000000000        0x8
 .ARM.exidx.text._dl_tls_get_addr_soft
                0x0000000000000000        0x8 /home6/daewon2/Release/glibc/SP/SP_Linux/LP_Linux_Prj/REL/VDLinux.3.x.2012/toolchain/src/arm-mips-src-20121018/build.arm.cortex-a15/obj/glibc_0_final/elf/dl-allobjs.os

.ARM.extab.text._dl_add_to_slotinfo
                0x0000000000000000        0x0
 .ARM.extab.text._dl_add_to_slotinfo
                0x0000000000000000        0x0 /home6/daewon2/Release/glibc/SP/SP_Linux/LP_Linux_Prj/REL/VDLinux.3.x.2012/toolchain/src/arm-mips-src-20121018/build.arm.cortex-a15/obj/glibc_0_final/elf/dl-allobjs.os

.ARM.exidx.text._dl_add_to_slotinfo
                0x0000000000000000        0x8
 .ARM.exidx.text._dl_add_to_slotinfo
                0x0000000000000000        0x8 /home6/daewon2/Release/glibc/SP/SP_Linux/LP_Linux_Prj/REL/VDLinux.3.x.2012/toolchain/src/arm-mips-src-20121018/build.arm.cortex-a15/obj/glibc_0_final/elf/dl-allobjs.os

.ARM.extab.text._dl_get_origin
                0x0000000000000000        0xc
 .ARM.extab.text._dl_get_origin
                0x0000000000000000        0xc /home6/daewon2/Release/glibc/SP/SP_Linux/LP_Linux_Prj/REL/VDLinux.3.x.2012/toolchain/src/arm-mips-src-20121018/build.arm.cortex-a15/obj/glibc_0_final/elf/dl-allobjs.os

.ARM.exidx.text._dl_get_origin
                0x0000000000000000        0x8
 .ARM.exidx.text._dl_get_origin
                0x0000000000000000        0x8 /home6/daewon2/Release/glibc/SP/SP_Linux/LP_Linux_Prj/REL/VDLinux.3.x.2012/toolchain/src/arm-mips-src-20121018/build.arm.cortex-a15/obj/glibc_0_final/elf/dl-allobjs.os

.ARM.extab.text._dl_scope_free
                0x0000000000000000        0x0
 .ARM.extab.text._dl_scope_free
                0x0000000000000000        0x0 /home6/daewon2/Release/glibc/SP/SP_Linux/LP_Linux_Prj/REL/VDLinux.3.x.2012/toolchain/src/arm-mips-src-20121018/build.arm.cortex-a15/obj/glibc_0_final/elf/dl-allobjs.os

.ARM.exidx.text._dl_scope_free
                0x0000000000000000        0x8
 .ARM.exidx.text._dl_scope_free
                0x0000000000000000        0x8 /home6/daewon2/Release/glibc/SP/SP_Linux/LP_Linux_Prj/REL/VDLinux.3.x.2012/toolchain/src/arm-mips-src-20121018/build.arm.cortex-a15/obj/glibc_0_final/elf/dl-allobjs.os

.ARM.extab.text.__GI__dl_make_stack_executable
                0x0000000000000000        0x0
 .ARM.extab.text.__GI__dl_make_stack_executable
                0x0000000000000000        0x0 /home6/daewon2/Release/glibc/SP/SP_Linux/LP_Linux_Prj/REL/VDLinux.3.x.2012/toolchain/src/arm-mips-src-20121018/build.arm.cortex-a15/obj/glibc_0_final/elf/dl-allobjs.os

.ARM.exidx.text.__GI__dl_make_stack_executable
                0x0000000000000000        0x8
 .ARM.exidx.text.__GI__dl_make_stack_executable
                0x0000000000000000        0x8 /home6/daewon2/Release/glibc/SP/SP_Linux/LP_Linux_Prj/REL/VDLinux.3.x.2012/toolchain/src/arm-mips-src-20121018/build.arm.cortex-a15/obj/glibc_0_final/elf/dl-allobjs.os

.ARM.extab.text._dl_check_caller
                0x0000000000000000        0x0
 .ARM.extab.text._dl_check_caller
                0x0000000000000000        0x0 /home6/daewon2/Release/glibc/SP/SP_Linux/LP_Linux_Prj/REL/VDLinux.3.x.2012/toolchain/src/arm-mips-src-20121018/build.arm.cortex-a15/obj/glibc_0_final/elf/dl-allobjs.os

.ARM.exidx.text._dl_check_caller
                0x0000000000000000        0x8
 .ARM.exidx.text._dl_check_caller
                0x0000000000000000        0x8 /home6/daewon2/Release/glibc/SP/SP_Linux/LP_Linux_Prj/REL/VDLinux.3.x.2012/toolchain/src/arm-mips-src-20121018/build.arm.cortex-a15/obj/glibc_0_final/elf/dl-allobjs.os

.ARM.extab.text.add_to_global
                0x0000000000000000        0x0
 .ARM.extab.text.add_to_global
                0x0000000000000000        0x0 /home6/daewon2/Release/glibc/SP/SP_Linux/LP_Linux_Prj/REL/VDLinux.3.x.2012/toolchain/src/arm-mips-src-20121018/build.arm.cortex-a15/obj/glibc_0_final/elf/dl-allobjs.os

.ARM.exidx.text.add_to_global
                0x0000000000000000        0x8
 .ARM.exidx.text.add_to_global
                0x0000000000000000        0x8 /home6/daewon2/Release/glibc/SP/SP_Linux/LP_Linux_Prj/REL/VDLinux.3.x.2012/toolchain/src/arm-mips-src-20121018/build.arm.cortex-a15/obj/glibc_0_final/elf/dl-allobjs.os

.ARM.extab.text._dl_open
                0x0000000000000000        0x0
 .ARM.extab.text._dl_open
                0x0000000000000000        0x0 /home6/daewon2/Release/glibc/SP/SP_Linux/LP_Linux_Prj/REL/VDLinux.3.x.2012/toolchain/src/arm-mips-src-20121018/build.arm.cortex-a15/obj/glibc_0_final/elf/dl-allobjs.os

.ARM.exidx.text._dl_open
                0x0000000000000000        0x8
 .ARM.exidx.text._dl_open
                0x0000000000000000        0x8 /home6/daewon2/Release/glibc/SP/SP_Linux/LP_Linux_Prj/REL/VDLinux.3.x.2012/toolchain/src/arm-mips-src-20121018/build.arm.cortex-a15/obj/glibc_0_final/elf/dl-allobjs.os

.ARM.extab.text._dl_addr_inside_object
                0x0000000000000000        0x0
 .ARM.extab.text._dl_addr_inside_object
                0x0000000000000000        0x0 /home6/daewon2/Release/glibc/SP/SP_Linux/LP_Linux_Prj/REL/VDLinux.3.x.2012/toolchain/src/arm-mips-src-20121018/build.arm.cortex-a15/obj/glibc_0_final/elf/dl-allobjs.os

.ARM.exidx.text._dl_addr_inside_object
                0x0000000000000000        0x8
 .ARM.exidx.text._dl_addr_inside_object
                0x0000000000000000        0x8 /home6/daewon2/Release/glibc/SP/SP_Linux/LP_Linux_Prj/REL/VDLinux.3.x.2012/toolchain/src/arm-mips-src-20121018/build.arm.cortex-a15/obj/glibc_0_final/elf/dl-allobjs.os

.ARM.extab.text.dl_open_worker
                0x0000000000000000        0x0
 .ARM.extab.text.dl_open_worker
                0x0000000000000000        0x0 /home6/daewon2/Release/glibc/SP/SP_Linux/LP_Linux_Prj/REL/VDLinux.3.x.2012/toolchain/src/arm-mips-src-20121018/build.arm.cortex-a15/obj/glibc_0_final/elf/dl-allobjs.os

.ARM.exidx.text.dl_open_worker
                0x0000000000000000        0x8
 .ARM.exidx.text.dl_open_worker
                0x0000000000000000        0x8 /home6/daewon2/Release/glibc/SP/SP_Linux/LP_Linux_Prj/REL/VDLinux.3.x.2012/toolchain/src/arm-mips-src-20121018/build.arm.cortex-a15/obj/glibc_0_final/elf/dl-allobjs.os

.ARM.extab.text.remove_slotinfo
                0x0000000000000000        0x0
 .ARM.extab.text.remove_slotinfo
                0x0000000000000000        0x0 /home6/daewon2/Release/glibc/SP/SP_Linux/LP_Linux_Prj/REL/VDLinux.3.x.2012/toolchain/src/arm-mips-src-20121018/build.arm.cortex-a15/obj/glibc_0_final/elf/dl-allobjs.os

.ARM.exidx.text.remove_slotinfo
                0x0000000000000000        0x8
 .ARM.exidx.text.remove_slotinfo
                0x0000000000000000        0x8 /home6/daewon2/Release/glibc/SP/SP_Linux/LP_Linux_Prj/REL/VDLinux.3.x.2012/toolchain/src/arm-mips-src-20121018/build.arm.cortex-a15/obj/glibc_0_final/elf/dl-allobjs.os

.ARM.extab.text._dl_close_worker
                0x0000000000000000        0x0
 .ARM.extab.text._dl_close_worker
                0x0000000000000000        0x0 /home6/daewon2/Release/glibc/SP/SP_Linux/LP_Linux_Prj/REL/VDLinux.3.x.2012/toolchain/src/arm-mips-src-20121018/build.arm.cortex-a15/obj/glibc_0_final/elf/dl-allobjs.os

.ARM.exidx.text._dl_close_worker
                0x0000000000000000        0x8
 .ARM.exidx.text._dl_close_worker
                0x0000000000000000        0x8 /home6/daewon2/Release/glibc/SP/SP_Linux/LP_Linux_Prj/REL/VDLinux.3.x.2012/toolchain/src/arm-mips-src-20121018/build.arm.cortex-a15/obj/glibc_0_final/elf/dl-allobjs.os

.ARM.extab.text._dl_close
                0x0000000000000000        0x0
 .ARM.extab.text._dl_close
                0x0000000000000000        0x0 /home6/daewon2/Release/glibc/SP/SP_Linux/LP_Linux_Prj/REL/VDLinux.3.x.2012/toolchain/src/arm-mips-src-20121018/build.arm.cortex-a15/obj/glibc_0_final/elf/dl-allobjs.os

.ARM.exidx.text._dl_close
                0x0000000000000000        0x8
 .ARM.exidx.text._dl_close
                0x0000000000000000        0x8 /home6/daewon2/Release/glibc/SP/SP_Linux/LP_Linux_Prj/REL/VDLinux.3.x.2012/toolchain/src/arm-mips-src-20121018/build.arm.cortex-a15/obj/glibc_0_final/elf/dl-allobjs.os

.ARM.extab.text._dl_sysdep_start
                0x0000000000000000        0x0
 .ARM.extab.text._dl_sysdep_start
                0x0000000000000000        0x0 /home6/daewon2/Release/glibc/SP/SP_Linux/LP_Linux_Prj/REL/VDLinux.3.x.2012/toolchain/src/arm-mips-src-20121018/build.arm.cortex-a15/obj/glibc_0_final/elf/dl-allobjs.os

.ARM.exidx.text._dl_sysdep_start
                0x0000000000000000        0x8
 .ARM.exidx.text._dl_sysdep_start
                0x0000000000000000        0x8 /home6/daewon2/Release/glibc/SP/SP_Linux/LP_Linux_Prj/REL/VDLinux.3.x.2012/toolchain/src/arm-mips-src-20121018/build.arm.cortex-a15/obj/glibc_0_final/elf/dl-allobjs.os

.ARM.extab.text._dl_sysdep_start_cleanup
                0x0000000000000000        0x0
 .ARM.extab.text._dl_sysdep_start_cleanup
                0x0000000000000000        0x0 /home6/daewon2/Release/glibc/SP/SP_Linux/LP_Linux_Prj/REL/VDLinux.3.x.2012/toolchain/src/arm-mips-src-20121018/build.arm.cortex-a15/obj/glibc_0_final/elf/dl-allobjs.os

.ARM.exidx.text._dl_sysdep_start_cleanup
                0x0000000000000000        0x8
 .ARM.exidx.text._dl_sysdep_start_cleanup
                0x0000000000000000        0x8 /home6/daewon2/Release/glibc/SP/SP_Linux/LP_Linux_Prj/REL/VDLinux.3.x.2012/toolchain/src/arm-mips-src-20121018/build.arm.cortex-a15/obj/glibc_0_final/elf/dl-allobjs.os

.ARM.extab.text._dl_show_auxv
                0x0000000000000000        0x0
 .ARM.extab.text._dl_show_auxv
                0x0000000000000000        0x0 /home6/daewon2/Release/glibc/SP/SP_Linux/LP_Linux_Prj/REL/VDLinux.3.x.2012/toolchain/src/arm-mips-src-20121018/build.arm.cortex-a15/obj/glibc_0_final/elf/dl-allobjs.os

.ARM.exidx.text._dl_show_auxv
                0x0000000000000000        0x8
 .ARM.exidx.text._dl_show_auxv
                0x0000000000000000        0x8 /home6/daewon2/Release/glibc/SP/SP_Linux/LP_Linux_Prj/REL/VDLinux.3.x.2012/toolchain/src/arm-mips-src-20121018/build.arm.cortex-a15/obj/glibc_0_final/elf/dl-allobjs.os

.ARM.extab.text._dl_important_hwcaps
                0x0000000000000000        0x0
 .ARM.extab.text._dl_important_hwcaps
                0x0000000000000000        0x0 /home6/daewon2/Release/glibc/SP/SP_Linux/LP_Linux_Prj/REL/VDLinux.3.x.2012/toolchain/src/arm-mips-src-20121018/build.arm.cortex-a15/obj/glibc_0_final/elf/dl-allobjs.os

.ARM.exidx.text._dl_important_hwcaps
                0x0000000000000000        0x8
 .ARM.exidx.text._dl_important_hwcaps
                0x0000000000000000        0x8 /home6/daewon2/Release/glibc/SP/SP_Linux/LP_Linux_Prj/REL/VDLinux.3.x.2012/toolchain/src/arm-mips-src-20121018/build.arm.cortex-a15/obj/glibc_0_final/elf/dl-allobjs.os

.ARM.extab.text._dl_discover_osversion
                0x0000000000000000        0x0
 .ARM.extab.text._dl_discover_osversion
                0x0000000000000000        0x0 /home6/daewon2/Release/glibc/SP/SP_Linux/LP_Linux_Prj/REL/VDLinux.3.x.2012/toolchain/src/arm-mips-src-20121018/build.arm.cortex-a15/obj/glibc_0_final/elf/dl-allobjs.os

.ARM.exidx.text._dl_discover_osversion
                0x0000000000000000        0x8
 .ARM.exidx.text._dl_discover_osversion
                0x0000000000000000        0x8 /home6/daewon2/Release/glibc/SP/SP_Linux/LP_Linux_Prj/REL/VDLinux.3.x.2012/toolchain/src/arm-mips-src-20121018/build.arm.cortex-a15/obj/glibc_0_final/elf/dl-allobjs.os

.ARM.extab.text._dl_next_ld_env_entry
                0x0000000000000000        0x0
 .ARM.extab.text._dl_next_ld_env_entry
                0x0000000000000000        0x0 /home6/daewon2/Release/glibc/SP/SP_Linux/LP_Linux_Prj/REL/VDLinux.3.x.2012/toolchain/src/arm-mips-src-20121018/build.arm.cortex-a15/obj/glibc_0_final/elf/dl-allobjs.os

.ARM.exidx.text._dl_next_ld_env_entry
                0x0000000000000000        0x8
 .ARM.exidx.text._dl_next_ld_env_entry
                0x0000000000000000        0x8 /home6/daewon2/Release/glibc/SP/SP_Linux/LP_Linux_Prj/REL/VDLinux.3.x.2012/toolchain/src/arm-mips-src-20121018/build.arm.cortex-a15/obj/glibc_0_final/elf/dl-allobjs.os

.ARM.extab.text.unsetenv
                0x0000000000000000        0x0
 .ARM.extab.text.unsetenv
                0x0000000000000000        0x0 /home6/daewon2/Release/glibc/SP/SP_Linux/LP_Linux_Prj/REL/VDLinux.3.x.2012/toolchain/src/arm-mips-src-20121018/build.arm.cortex-a15/obj/glibc_0_final/elf/dl-allobjs.os

.ARM.exidx.text.unsetenv
                0x0000000000000000        0x8
 .ARM.exidx.text.unsetenv
                0x0000000000000000        0x8 /home6/daewon2/Release/glibc/SP/SP_Linux/LP_Linux_Prj/REL/VDLinux.3.x.2012/toolchain/src/arm-mips-src-20121018/build.arm.cortex-a15/obj/glibc_0_final/elf/dl-allobjs.os

.ARM.extab.text.__libc_memalign
                0x0000000000000000        0x0
 .ARM.extab.text.__libc_memalign
                0x0000000000000000        0x0 /home6/daewon2/Release/glibc/SP/SP_Linux/LP_Linux_Prj/REL/VDLinux.3.x.2012/toolchain/src/arm-mips-src-20121018/build.arm.cortex-a15/obj/glibc_0_final/elf/dl-allobjs.os

.ARM.exidx.text.__libc_memalign
                0x0000000000000000        0x8
 .ARM.exidx.text.__libc_memalign
                0x0000000000000000        0x8 /home6/daewon2/Release/glibc/SP/SP_Linux/LP_Linux_Prj/REL/VDLinux.3.x.2012/toolchain/src/arm-mips-src-20121018/build.arm.cortex-a15/obj/glibc_0_final/elf/dl-allobjs.os

.ARM.extab.text.malloc
                0x0000000000000000        0x0
 .ARM.extab.text.malloc
                0x0000000000000000        0x0 /home6/daewon2/Release/glibc/SP/SP_Linux/LP_Linux_Prj/REL/VDLinux.3.x.2012/toolchain/src/arm-mips-src-20121018/build.arm.cortex-a15/obj/glibc_0_final/elf/dl-allobjs.os

.ARM.exidx.text.malloc
                0x0000000000000000        0x8
 .ARM.exidx.text.malloc
                0x0000000000000000        0x8 /home6/daewon2/Release/glibc/SP/SP_Linux/LP_Linux_Prj/REL/VDLinux.3.x.2012/toolchain/src/arm-mips-src-20121018/build.arm.cortex-a15/obj/glibc_0_final/elf/dl-allobjs.os

.ARM.extab.text.calloc
                0x0000000000000000        0x0
 .ARM.extab.text.calloc
                0x0000000000000000        0x0 /home6/daewon2/Release/glibc/SP/SP_Linux/LP_Linux_Prj/REL/VDLinux.3.x.2012/toolchain/src/arm-mips-src-20121018/build.arm.cortex-a15/obj/glibc_0_final/elf/dl-allobjs.os

.ARM.exidx.text.calloc
                0x0000000000000000        0x8
 .ARM.exidx.text.calloc
                0x0000000000000000        0x8 /home6/daewon2/Release/glibc/SP/SP_Linux/LP_Linux_Prj/REL/VDLinux.3.x.2012/toolchain/src/arm-mips-src-20121018/build.arm.cortex-a15/obj/glibc_0_final/elf/dl-allobjs.os

.ARM.extab.text.free
                0x0000000000000000        0x0
 .ARM.extab.text.free
                0x0000000000000000        0x0 /home6/daewon2/Release/glibc/SP/SP_Linux/LP_Linux_Prj/REL/VDLinux.3.x.2012/toolchain/src/arm-mips-src-20121018/build.arm.cortex-a15/obj/glibc_0_final/elf/dl-allobjs.os

.ARM.exidx.text.free
                0x0000000000000000        0x8
 .ARM.exidx.text.free
                0x0000000000000000        0x8 /home6/daewon2/Release/glibc/SP/SP_Linux/LP_Linux_Prj/REL/VDLinux.3.x.2012/toolchain/src/arm-mips-src-20121018/build.arm.cortex-a15/obj/glibc_0_final/elf/dl-allobjs.os

.ARM.extab.text.__sigjmp_save
                0x0000000000000000        0x0
 .ARM.extab.text.__sigjmp_save
                0x0000000000000000        0x0 /home6/daewon2/Release/glibc/SP/SP_Linux/LP_Linux_Prj/REL/VDLinux.3.x.2012/toolchain/src/arm-mips-src-20121018/build.arm.cortex-a15/obj/glibc_0_final/elf/dl-allobjs.os

.ARM.exidx.text.__sigjmp_save
                0x0000000000000000        0x8
 .ARM.exidx.text.__sigjmp_save
                0x0000000000000000        0x8 /home6/daewon2/Release/glibc/SP/SP_Linux/LP_Linux_Prj/REL/VDLinux.3.x.2012/toolchain/src/arm-mips-src-20121018/build.arm.cortex-a15/obj/glibc_0_final/elf/dl-allobjs.os

.ARM.extab.text.__GI___assert_fail
                0x0000000000000000        0x0
 .ARM.extab.text.__GI___assert_fail
                0x0000000000000000        0x0 /home6/daewon2/Release/glibc/SP/SP_Linux/LP_Linux_Prj/REL/VDLinux.3.x.2012/toolchain/src/arm-mips-src-20121018/build.arm.cortex-a15/obj/glibc_0_final/elf/dl-allobjs.os

.ARM.exidx.text.__GI___assert_fail
                0x0000000000000000        0x8
 .ARM.exidx.text.__GI___assert_fail
                0x0000000000000000        0x8 /home6/daewon2/Release/glibc/SP/SP_Linux/LP_Linux_Prj/REL/VDLinux.3.x.2012/toolchain/src/arm-mips-src-20121018/build.arm.cortex-a15/obj/glibc_0_final/elf/dl-allobjs.os

.ARM.extab.text.realloc
                0x0000000000000000        0x0
 .ARM.extab.text.realloc
                0x0000000000000000        0x0 /home6/daewon2/Release/glibc/SP/SP_Linux/LP_Linux_Prj/REL/VDLinux.3.x.2012/toolchain/src/arm-mips-src-20121018/build.arm.cortex-a15/obj/glibc_0_final/elf/dl-allobjs.os

.ARM.exidx.text.realloc
                0x0000000000000000        0x8
 .ARM.exidx.text.realloc
                0x0000000000000000        0x8 /home6/daewon2/Release/glibc/SP/SP_Linux/LP_Linux_Prj/REL/VDLinux.3.x.2012/toolchain/src/arm-mips-src-20121018/build.arm.cortex-a15/obj/glibc_0_final/elf/dl-allobjs.os

.ARM.extab.text.__strtoul_internal
                0x0000000000000000        0x0
 .ARM.extab.text.__strtoul_internal
                0x0000000000000000        0x0 /home6/daewon2/Release/glibc/SP/SP_Linux/LP_Linux_Prj/REL/VDLinux.3.x.2012/toolchain/src/arm-mips-src-20121018/build.arm.cortex-a15/obj/glibc_0_final/elf/dl-allobjs.os

.ARM.exidx.text.__strtoul_internal
                0x0000000000000000        0x8
 .ARM.exidx.text.__strtoul_internal
                0x0000000000000000        0x8 /home6/daewon2/Release/glibc/SP/SP_Linux/LP_Linux_Prj/REL/VDLinux.3.x.2012/toolchain/src/arm-mips-src-20121018/build.arm.cortex-a15/obj/glibc_0_final/elf/dl-allobjs.os

.ARM.extab.text._itoa
                0x0000000000000000        0xc
 .ARM.extab.text._itoa
                0x0000000000000000        0xc /home6/daewon2/Release/glibc/SP/SP_Linux/LP_Linux_Prj/REL/VDLinux.3.x.2012/toolchain/src/arm-mips-src-20121018/build.arm.cortex-a15/obj/glibc_0_final/elf/dl-allobjs.os

.ARM.exidx.text._itoa
                0x0000000000000000        0x8
 .ARM.exidx.text._itoa
                0x0000000000000000        0x8 /home6/daewon2/Release/glibc/SP/SP_Linux/LP_Linux_Prj/REL/VDLinux.3.x.2012/toolchain/src/arm-mips-src-20121018/build.arm.cortex-a15/obj/glibc_0_final/elf/dl-allobjs.os

.ARM.extab.text.__strerror_r
                0x0000000000000000        0x0
 .ARM.extab.text.__strerror_r
                0x0000000000000000        0x0 /home6/daewon2/Release/glibc/SP/SP_Linux/LP_Linux_Prj/REL/VDLinux.3.x.2012/toolchain/src/arm-mips-src-20121018/build.arm.cortex-a15/obj/glibc_0_final/elf/dl-allobjs.os

.ARM.exidx.text.__strerror_r
                0x0000000000000000        0x8
 .ARM.exidx.text.__strerror_r
                0x0000000000000000        0x8 /home6/daewon2/Release/glibc/SP/SP_Linux/LP_Linux_Prj/REL/VDLinux.3.x.2012/toolchain/src/arm-mips-src-20121018/build.arm.cortex-a15/obj/glibc_0_final/elf/dl-allobjs.os

.ARM.extab.text.__GI___assert_perror_fail
                0x0000000000000000        0xc
 .ARM.extab.text.__GI___assert_perror_fail
                0x0000000000000000        0xc /home6/daewon2/Release/glibc/SP/SP_Linux/LP_Linux_Prj/REL/VDLinux.3.x.2012/toolchain/src/arm-mips-src-20121018/build.arm.cortex-a15/obj/glibc_0_final/elf/dl-allobjs.os

.ARM.exidx.text.__GI___assert_perror_fail
                0x0000000000000000        0x8
 .ARM.exidx.text.__GI___assert_perror_fail
                0x0000000000000000        0x8 /home6/daewon2/Release/glibc/SP/SP_Linux/LP_Linux_Prj/REL/VDLinux.3.x.2012/toolchain/src/arm-mips-src-20121018/build.arm.cortex-a15/obj/glibc_0_final/elf/dl-allobjs.os

.ARM.extab.text.__strsep
                0x0000000000000000        0x0
 .ARM.extab.text.__strsep
                0x0000000000000000        0x0 /home6/daewon2/Release/glibc/SP/SP_Linux/LP_Linux_Prj/REL/VDLinux.3.x.2012/toolchain/src/arm-mips-src-20121018/build.arm.cortex-a15/obj/glibc_0_final/elf/dl-allobjs.os

.ARM.exidx.text.__strsep
                0x0000000000000000        0x8
 .ARM.exidx.text.__strsep
                0x0000000000000000        0x8 /home6/daewon2/Release/glibc/SP/SP_Linux/LP_Linux_Prj/REL/VDLinux.3.x.2012/toolchain/src/arm-mips-src-20121018/build.arm.cortex-a15/obj/glibc_0_final/elf/dl-allobjs.os

.ARM.extab.text.__GI___chk_fail
                0x0000000000000000        0xc
 .ARM.extab.text.__GI___chk_fail
                0x0000000000000000        0xc /home6/daewon2/Release/glibc/SP/SP_Linux/LP_Linux_Prj/REL/VDLinux.3.x.2012/toolchain/src/arm-mips-src-20121018/build.arm.cortex-a15/obj/glibc_0_final/elf/dl-allobjs.os

.ARM.exidx.text.__GI___chk_fail
                0x0000000000000000        0x8
 .ARM.exidx.text.__GI___chk_fail
                0x0000000000000000        0x8 /home6/daewon2/Release/glibc/SP/SP_Linux/LP_Linux_Prj/REL/VDLinux.3.x.2012/toolchain/src/arm-mips-src-20121018/build.arm.cortex-a15/obj/glibc_0_final/elf/dl-allobjs.os

.ARM.extab.text.__brk
                0x0000000000000000        0x0
 .ARM.extab.text.__brk
                0x0000000000000000        0x0 /home6/daewon2/Release/glibc/SP/SP_Linux/LP_Linux_Prj/REL/VDLinux.3.x.2012/toolchain/src/arm-mips-src-20121018/build.arm.cortex-a15/obj/glibc_0_final/elf/dl-allobjs.os

.ARM.exidx.text.__brk
                0x0000000000000000        0x8
 .ARM.exidx.text.__brk
                0x0000000000000000        0x8 /home6/daewon2/Release/glibc/SP/SP_Linux/LP_Linux_Prj/REL/VDLinux.3.x.2012/toolchain/src/arm-mips-src-20121018/build.arm.cortex-a15/obj/glibc_0_final/elf/dl-allobjs.os

.ARM.extab.text.__sbrk
                0x0000000000000000        0x0
 .ARM.extab.text.__sbrk
                0x0000000000000000        0x0 /home6/daewon2/Release/glibc/SP/SP_Linux/LP_Linux_Prj/REL/VDLinux.3.x.2012/toolchain/src/arm-mips-src-20121018/build.arm.cortex-a15/obj/glibc_0_final/elf/dl-allobjs.os

.ARM.exidx.text.__sbrk
                0x0000000000000000        0x8
 .ARM.exidx.text.__sbrk
                0x0000000000000000        0x8 /home6/daewon2/Release/glibc/SP/SP_Linux/LP_Linux_Prj/REL/VDLinux.3.x.2012/toolchain/src/arm-mips-src-20121018/build.arm.cortex-a15/obj/glibc_0_final/elf/dl-allobjs.os

.ARM.extab.text.generic_getcwd
                0x0000000000000000        0x0
 .ARM.extab.text.generic_getcwd
                0x0000000000000000        0x0 /home6/daewon2/Release/glibc/SP/SP_Linux/LP_Linux_Prj/REL/VDLinux.3.x.2012/toolchain/src/arm-mips-src-20121018/build.arm.cortex-a15/obj/glibc_0_final/elf/dl-allobjs.os

.ARM.exidx.text.generic_getcwd
                0x0000000000000000        0x8
 .ARM.exidx.text.generic_getcwd
                0x0000000000000000        0x8 /home6/daewon2/Release/glibc/SP/SP_Linux/LP_Linux_Prj/REL/VDLinux.3.x.2012/toolchain/src/arm-mips-src-20121018/build.arm.cortex-a15/obj/glibc_0_final/elf/dl-allobjs.os

.ARM.extab.text.__getcwd
                0x0000000000000000        0x0
 .ARM.extab.text.__getcwd
                0x0000000000000000        0x0 /home6/daewon2/Release/glibc/SP/SP_Linux/LP_Linux_Prj/REL/VDLinux.3.x.2012/toolchain/src/arm-mips-src-20121018/build.arm.cortex-a15/obj/glibc_0_final/elf/dl-allobjs.os

.ARM.exidx.text.__getcwd
                0x0000000000000000        0x8
 .ARM.exidx.text.__getcwd
                0x0000000000000000        0x8 /home6/daewon2/Release/glibc/SP/SP_Linux/LP_Linux_Prj/REL/VDLinux.3.x.2012/toolchain/src/arm-mips-src-20121018/build.arm.cortex-a15/obj/glibc_0_final/elf/dl-allobjs.os

.ARM.extab.text.openat64
                0x0000000000000000        0xc
 .ARM.extab.text.openat64
                0x0000000000000000        0xc /home6/daewon2/Release/glibc/SP/SP_Linux/LP_Linux_Prj/REL/VDLinux.3.x.2012/toolchain/src/arm-mips-src-20121018/build.arm.cortex-a15/obj/glibc_0_final/elf/dl-allobjs.os

.ARM.exidx.text.openat64
                0x0000000000000000        0x8
 .ARM.exidx.text.openat64
                0x0000000000000000        0x8 /home6/daewon2/Release/glibc/SP/SP_Linux/LP_Linux_Prj/REL/VDLinux.3.x.2012/toolchain/src/arm-mips-src-20121018/build.arm.cortex-a15/obj/glibc_0_final/elf/dl-allobjs.os

.ARM.extab.text.__alloc_dir
                0x0000000000000000        0x0
 .ARM.extab.text.__alloc_dir
                0x0000000000000000        0x0 /home6/daewon2/Release/glibc/SP/SP_Linux/LP_Linux_Prj/REL/VDLinux.3.x.2012/toolchain/src/arm-mips-src-20121018/build.arm.cortex-a15/obj/glibc_0_final/elf/dl-allobjs.os

.ARM.exidx.text.__alloc_dir
                0x0000000000000000        0x8
 .ARM.exidx.text.__alloc_dir
                0x0000000000000000        0x8 /home6/daewon2/Release/glibc/SP/SP_Linux/LP_Linux_Prj/REL/VDLinux.3.x.2012/toolchain/src/arm-mips-src-20121018/build.arm.cortex-a15/obj/glibc_0_final/elf/dl-allobjs.os

.ARM.extab.text.__opendir
                0x0000000000000000        0x0
 .ARM.extab.text.__opendir
                0x0000000000000000        0x0 /home6/daewon2/Release/glibc/SP/SP_Linux/LP_Linux_Prj/REL/VDLinux.3.x.2012/toolchain/src/arm-mips-src-20121018/build.arm.cortex-a15/obj/glibc_0_final/elf/dl-allobjs.os

.ARM.exidx.text.__opendir
                0x0000000000000000        0x8
 .ARM.exidx.text.__opendir
                0x0000000000000000        0x8 /home6/daewon2/Release/glibc/SP/SP_Linux/LP_Linux_Prj/REL/VDLinux.3.x.2012/toolchain/src/arm-mips-src-20121018/build.arm.cortex-a15/obj/glibc_0_final/elf/dl-allobjs.os

.ARM.extab.text.__fxstatat64
                0x0000000000000000        0x0
 .ARM.extab.text.__fxstatat64
                0x0000000000000000        0x0 /home6/daewon2/Release/glibc/SP/SP_Linux/LP_Linux_Prj/REL/VDLinux.3.x.2012/toolchain/src/arm-mips-src-20121018/build.arm.cortex-a15/obj/glibc_0_final/elf/dl-allobjs.os

.ARM.exidx.text.__fxstatat64
                0x0000000000000000        0x8
 .ARM.exidx.text.__fxstatat64
                0x0000000000000000        0x8 /home6/daewon2/Release/glibc/SP/SP_Linux/LP_Linux_Prj/REL/VDLinux.3.x.2012/toolchain/src/arm-mips-src-20121018/build.arm.cortex-a15/obj/glibc_0_final/elf/dl-allobjs.os

.ARM.extab.text.__aeabi_unwind_cpp_pr0
                0x0000000000000000        0x0
 .ARM.extab.text.__aeabi_unwind_cpp_pr0
                0x0000000000000000        0x0 /home6/daewon2/Release/glibc/SP/SP_Linux/LP_Linux_Prj/REL/VDLinux.3.x.2012/toolchain/src/arm-mips-src-20121018/build.arm.cortex-a15/obj/glibc_0_final/elf/dl-allobjs.os

.ARM.exidx.text.__aeabi_unwind_cpp_pr0
                0x0000000000000000        0x8
 .ARM.exidx.text.__aeabi_unwind_cpp_pr0
                0x0000000000000000        0x8 /home6/daewon2/Release/glibc/SP/SP_Linux/LP_Linux_Prj/REL/VDLinux.3.x.2012/toolchain/src/arm-mips-src-20121018/build.arm.cortex-a15/obj/glibc_0_final/elf/dl-allobjs.os

.ARM.extab.text.__aeabi_unwind_cpp_pr1
                0x0000000000000000        0x0
 .ARM.extab.text.__aeabi_unwind_cpp_pr1
                0x0000000000000000        0x0 /home6/daewon2/Release/glibc/SP/SP_Linux/LP_Linux_Prj/REL/VDLinux.3.x.2012/toolchain/src/arm-mips-src-20121018/build.arm.cortex-a15/obj/glibc_0_final/elf/dl-allobjs.os

.ARM.exidx.text.__aeabi_unwind_cpp_pr1
                0x0000000000000000        0x8
 .ARM.exidx.text.__aeabi_unwind_cpp_pr1
                0x0000000000000000        0x8 /home6/daewon2/Release/glibc/SP/SP_Linux/LP_Linux_Prj/REL/VDLinux.3.x.2012/toolchain/src/arm-mips-src-20121018/build.arm.cortex-a15/obj/glibc_0_final/elf/dl-allobjs.os

.ARM.extab.text.__aeabi_unwind_cpp_pr2
                0x0000000000000000        0x0
 .ARM.extab.text.__aeabi_unwind_cpp_pr2
                0x0000000000000000        0x0 /home6/daewon2/Release/glibc/SP/SP_Linux/LP_Linux_Prj/REL/VDLinux.3.x.2012/toolchain/src/arm-mips-src-20121018/build.arm.cortex-a15/obj/glibc_0_final/elf/dl-allobjs.os

.ARM.exidx.text.__aeabi_unwind_cpp_pr2
                0x0000000000000000        0x8
 .ARM.exidx.text.__aeabi_unwind_cpp_pr2
                0x0000000000000000        0x8 /home6/daewon2/Release/glibc/SP/SP_Linux/LP_Linux_Prj/REL/VDLinux.3.x.2012/toolchain/src/arm-mips-src-20121018/build.arm.cortex-a15/obj/glibc_0_final/elf/dl-allobjs.os

.ARM.extab.text._dl_make_tlsdesc_dynamic
                0x0000000000000000        0x0
 .ARM.extab.text._dl_make_tlsdesc_dynamic
                0x0000000000000000        0x0 /home6/daewon2/Release/glibc/SP/SP_Linux/LP_Linux_Prj/REL/VDLinux.3.x.2012/toolchain/src/arm-mips-src-20121018/build.arm.cortex-a15/obj/glibc_0_final/elf/dl-allobjs.os

.ARM.exidx.text._dl_make_tlsdesc_dynamic
                0x0000000000000000        0x8
 .ARM.exidx.text._dl_make_tlsdesc_dynamic
                0x0000000000000000        0x8 /home6/daewon2/Release/glibc/SP/SP_Linux/LP_Linux_Prj/REL/VDLinux.3.x.2012/toolchain/src/arm-mips-src-20121018/build.arm.cortex-a15/obj/glibc_0_final/elf/dl-allobjs.os

.ARM.extab.text._dl_tlsdesc_lazy_resolver_fixup
                0x0000000000000000        0x0
 .ARM.extab.text._dl_tlsdesc_lazy_resolver_fixup
                0x0000000000000000        0x0 /home6/daewon2/Release/glibc/SP/SP_Linux/LP_Linux_Prj/REL/VDLinux.3.x.2012/toolchain/src/arm-mips-src-20121018/build.arm.cortex-a15/obj/glibc_0_final/elf/dl-allobjs.os

.ARM.exidx.text._dl_tlsdesc_lazy_resolver_fixup
                0x0000000000000000        0x8
 .ARM.exidx.text._dl_tlsdesc_lazy_resolver_fixup
                0x0000000000000000        0x8 /home6/daewon2/Release/glibc/SP/SP_Linux/LP_Linux_Prj/REL/VDLinux.3.x.2012/toolchain/src/arm-mips-src-20121018/build.arm.cortex-a15/obj/glibc_0_final/elf/dl-allobjs.os

.ARM.extab.text._dl_tlsdesc_resolve_hold_fixup
                0x0000000000000000        0x0
 .ARM.extab.text._dl_tlsdesc_resolve_hold_fixup
                0x0000000000000000        0x0 /home6/daewon2/Release/glibc/SP/SP_Linux/LP_Linux_Prj/REL/VDLinux.3.x.2012/toolchain/src/arm-mips-src-20121018/build.arm.cortex-a15/obj/glibc_0_final/elf/dl-allobjs.os

.ARM.exidx.text._dl_tlsdesc_resolve_hold_fixup
                0x0000000000000000        0x8
 .ARM.exidx.text._dl_tlsdesc_resolve_hold_fixup
                0x0000000000000000        0x8 /home6/daewon2/Release/glibc/SP/SP_Linux/LP_Linux_Prj/REL/VDLinux.3.x.2012/toolchain/src/arm-mips-src-20121018/build.arm.cortex-a15/obj/glibc_0_final/elf/dl-allobjs.os

.ARM.extab.text._dl_unmap
                0x0000000000000000        0x0
 .ARM.extab.text._dl_unmap
                0x0000000000000000        0x0 /home6/daewon2/Release/glibc/SP/SP_Linux/LP_Linux_Prj/REL/VDLinux.3.x.2012/toolchain/src/arm-mips-src-20121018/build.arm.cortex-a15/obj/glibc_0_final/elf/dl-allobjs.os

.ARM.exidx.text._dl_unmap
                0x0000000000000000        0x8
 .ARM.exidx.text._dl_unmap
                0x0000000000000000        0x8 /home6/daewon2/Release/glibc/SP/SP_Linux/LP_Linux_Prj/REL/VDLinux.3.x.2012/toolchain/src/arm-mips-src-20121018/build.arm.cortex-a15/obj/glibc_0_final/elf/dl-allobjs.os

.ARM.extab.text.check_one_fd
                0x0000000000000000        0x0
 .ARM.extab.text.check_one_fd
                0x0000000000000000        0x0 /home6/daewon2/Release/glibc/SP/SP_Linux/LP_Linux_Prj/REL/VDLinux.3.x.2012/toolchain/src/arm-mips-src-20121018/build.arm.cortex-a15/obj/glibc_0_final/libc_pic.a(check_fds.os)

.ARM.exidx.text.check_one_fd
                0x0000000000000000        0x8
 .ARM.exidx.text.check_one_fd
                0x0000000000000000        0x8 /home6/daewon2/Release/glibc/SP/SP_Linux/LP_Linux_Prj/REL/VDLinux.3.x.2012/toolchain/src/arm-mips-src-20121018/build.arm.cortex-a15/obj/glibc_0_final/libc_pic.a(check_fds.os)

.ARM.extab.text.__libc_check_standard_fds
                0x0000000000000000        0xc
 .ARM.extab.text.__libc_check_standard_fds
                0x0000000000000000        0xc /home6/daewon2/Release/glibc/SP/SP_Linux/LP_Linux_Prj/REL/VDLinux.3.x.2012/toolchain/src/arm-mips-src-20121018/build.arm.cortex-a15/obj/glibc_0_final/libc_pic.a(check_fds.os)

.ARM.exidx.text.__libc_check_standard_fds
                0x0000000000000000        0x8
 .ARM.exidx.text.__libc_check_standard_fds
                0x0000000000000000        0x8 /home6/daewon2/Release/glibc/SP/SP_Linux/LP_Linux_Prj/REL/VDLinux.3.x.2012/toolchain/src/arm-mips-src-20121018/build.arm.cortex-a15/obj/glibc_0_final/libc_pic.a(check_fds.os)

.ARM.extab.text.__udivmoddi4
                0x0000000000000000        0x0
 .ARM.extab.text.__udivmoddi4
                0x0000000000000000        0x0 /home6/daewon2/Release/glibc/SP/SP_Linux/LP_Linux_Prj/REL/VDLinux.3.x.2012/toolchain/src/arm-mips-src-20121018/build.arm.cortex-a15/obj/glibc_0_final/libc_pic.a(divdi3.os)

.ARM.exidx.text.__udivmoddi4
                0x0000000000000000        0x8
 .ARM.exidx.text.__udivmoddi4
                0x0000000000000000        0x8 /home6/daewon2/Release/glibc/SP/SP_Linux/LP_Linux_Prj/REL/VDLinux.3.x.2012/toolchain/src/arm-mips-src-20121018/build.arm.cortex-a15/obj/glibc_0_final/libc_pic.a(divdi3.os)

.ARM.extab.text.__divdi3
                0x0000000000000000        0x0
 .ARM.extab.text.__divdi3
                0x0000000000000000        0x0 /home6/daewon2/Release/glibc/SP/SP_Linux/LP_Linux_Prj/REL/VDLinux.3.x.2012/toolchain/src/arm-mips-src-20121018/build.arm.cortex-a15/obj/glibc_0_final/libc_pic.a(divdi3.os)

.ARM.exidx.text.__divdi3
                0x0000000000000000        0x8
 .ARM.exidx.text.__divdi3
                0x0000000000000000        0x8 /home6/daewon2/Release/glibc/SP/SP_Linux/LP_Linux_Prj/REL/VDLinux.3.x.2012/toolchain/src/arm-mips-src-20121018/build.arm.cortex-a15/obj/glibc_0_final/libc_pic.a(divdi3.os)

.ARM.extab.text.__moddi3
                0x0000000000000000        0x0
 .ARM.extab.text.__moddi3
                0x0000000000000000        0x0 /home6/daewon2/Release/glibc/SP/SP_Linux/LP_Linux_Prj/REL/VDLinux.3.x.2012/toolchain/src/arm-mips-src-20121018/build.arm.cortex-a15/obj/glibc_0_final/libc_pic.a(divdi3.os)

.ARM.exidx.text.__moddi3
                0x0000000000000000        0x8
 .ARM.exidx.text.__moddi3
                0x0000000000000000        0x8 /home6/daewon2/Release/glibc/SP/SP_Linux/LP_Linux_Prj/REL/VDLinux.3.x.2012/toolchain/src/arm-mips-src-20121018/build.arm.cortex-a15/obj/glibc_0_final/libc_pic.a(divdi3.os)

.ARM.extab.text.__udivdi3
                0x0000000000000000        0x0
 .ARM.extab.text.__udivdi3
                0x0000000000000000        0x0 /home6/daewon2/Release/glibc/SP/SP_Linux/LP_Linux_Prj/REL/VDLinux.3.x.2012/toolchain/src/arm-mips-src-20121018/build.arm.cortex-a15/obj/glibc_0_final/libc_pic.a(divdi3.os)

.ARM.exidx.text.__udivdi3
                0x0000000000000000        0x8
 .ARM.exidx.text.__udivdi3
                0x0000000000000000        0x8 /home6/daewon2/Release/glibc/SP/SP_Linux/LP_Linux_Prj/REL/VDLinux.3.x.2012/toolchain/src/arm-mips-src-20121018/build.arm.cortex-a15/obj/glibc_0_final/libc_pic.a(divdi3.os)

.ARM.extab.text.__umoddi3
                0x0000000000000000        0x0
 .ARM.extab.text.__umoddi3
                0x0000000000000000        0x0 /home6/daewon2/Release/glibc/SP/SP_Linux/LP_Linux_Prj/REL/VDLinux.3.x.2012/toolchain/src/arm-mips-src-20121018/build.arm.cortex-a15/obj/glibc_0_final/libc_pic.a(divdi3.os)

.ARM.exidx.text.__umoddi3
                0x0000000000000000        0x8
 .ARM.exidx.text.__umoddi3
                0x0000000000000000        0x8 /home6/daewon2/Release/glibc/SP/SP_Linux/LP_Linux_Prj/REL/VDLinux.3.x.2012/toolchain/src/arm-mips-src-20121018/build.arm.cortex-a15/obj/glibc_0_final/libc_pic.a(divdi3.os)

.ARM.extab.text.__GI_strchr
                0x0000000000000000        0x0
 .ARM.extab.text.__GI_strchr
                0x0000000000000000        0x0 /home6/daewon2/Release/glibc/SP/SP_Linux/LP_Linux_Prj/REL/VDLinux.3.x.2012/toolchain/src/arm-mips-src-20121018/build.arm.cortex-a15/obj/glibc_0_final/libc_pic.a(strchr.os)

.ARM.exidx.text.__GI_strchr
                0x0000000000000000        0x8
 .ARM.exidx.text.__GI_strchr
                0x0000000000000000        0x8 /home6/daewon2/Release/glibc/SP/SP_Linux/LP_Linux_Prj/REL/VDLinux.3.x.2012/toolchain/src/arm-mips-src-20121018/build.arm.cortex-a15/obj/glibc_0_final/libc_pic.a(strchr.os)

.ARM.extab.text.__GI_strcmp
                0x0000000000000000        0x0
 .ARM.extab.text.__GI_strcmp
                0x0000000000000000        0x0 /home6/daewon2/Release/glibc/SP/SP_Linux/LP_Linux_Prj/REL/VDLinux.3.x.2012/toolchain/src/arm-mips-src-20121018/build.arm.cortex-a15/obj/glibc_0_final/libc_pic.a(strcmp.os)

.ARM.exidx.text.__GI_strcmp
                0x0000000000000000        0x8
 .ARM.exidx.text.__GI_strcmp
                0x0000000000000000        0x8 /home6/daewon2/Release/glibc/SP/SP_Linux/LP_Linux_Prj/REL/VDLinux.3.x.2012/toolchain/src/arm-mips-src-20121018/build.arm.cortex-a15/obj/glibc_0_final/libc_pic.a(strcmp.os)

.ARM.extab.text.__GI_strcpy
                0x0000000000000000        0x0
 .ARM.extab.text.__GI_strcpy
                0x0000000000000000        0x0 /home6/daewon2/Release/glibc/SP/SP_Linux/LP_Linux_Prj/REL/VDLinux.3.x.2012/toolchain/src/arm-mips-src-20121018/build.arm.cortex-a15/obj/glibc_0_final/libc_pic.a(strcpy.os)

.ARM.exidx.text.__GI_strcpy
                0x0000000000000000        0x8
 .ARM.exidx.text.__GI_strcpy
                0x0000000000000000        0x8 /home6/daewon2/Release/glibc/SP/SP_Linux/LP_Linux_Prj/REL/VDLinux.3.x.2012/toolchain/src/arm-mips-src-20121018/build.arm.cortex-a15/obj/glibc_0_final/libc_pic.a(strcpy.os)

.ARM.extab.text.__strnlen
                0x0000000000000000        0x0
 .ARM.extab.text.__strnlen
                0x0000000000000000        0x0 /home6/daewon2/Release/glibc/SP/SP_Linux/LP_Linux_Prj/REL/VDLinux.3.x.2012/toolchain/src/arm-mips-src-20121018/build.arm.cortex-a15/obj/glibc_0_final/libc_pic.a(strnlen.os)

.ARM.exidx.text.__strnlen
                0x0000000000000000        0x8
 .ARM.exidx.text.__strnlen
                0x0000000000000000        0x8 /home6/daewon2/Release/glibc/SP/SP_Linux/LP_Linux_Prj/REL/VDLinux.3.x.2012/toolchain/src/arm-mips-src-20121018/build.arm.cortex-a15/obj/glibc_0_final/libc_pic.a(strnlen.os)

.ARM.extab.text.__memchr
                0x0000000000000000        0x0
 .ARM.extab.text.__memchr
                0x0000000000000000        0x0 /home6/daewon2/Release/glibc/SP/SP_Linux/LP_Linux_Prj/REL/VDLinux.3.x.2012/toolchain/src/arm-mips-src-20121018/build.arm.cortex-a15/obj/glibc_0_final/libc_pic.a(memchr.os)

.ARM.exidx.text.__memchr
                0x0000000000000000        0x8
 .ARM.exidx.text.__memchr
                0x0000000000000000        0x8 /home6/daewon2/Release/glibc/SP/SP_Linux/LP_Linux_Prj/REL/VDLinux.3.x.2012/toolchain/src/arm-mips-src-20121018/build.arm.cortex-a15/obj/glibc_0_final/libc_pic.a(memchr.os)

.ARM.extab.text.__GI_memcmp
                0x0000000000000000        0x0
 .ARM.extab.text.__GI_memcmp
                0x0000000000000000        0x0 /home6/daewon2/Release/glibc/SP/SP_Linux/LP_Linux_Prj/REL/VDLinux.3.x.2012/toolchain/src/arm-mips-src-20121018/build.arm.cortex-a15/obj/glibc_0_final/libc_pic.a(memcmp.os)

.ARM.exidx.text.__GI_memcmp
                0x0000000000000000        0x8
 .ARM.exidx.text.__GI_memcmp
                0x0000000000000000        0x8 /home6/daewon2/Release/glibc/SP/SP_Linux/LP_Linux_Prj/REL/VDLinux.3.x.2012/toolchain/src/arm-mips-src-20121018/build.arm.cortex-a15/obj/glibc_0_final/libc_pic.a(memcmp.os)

.ARM.extab.text.__GI___mempcpy
                0x0000000000000000        0x0
 .ARM.extab.text.__GI___mempcpy
                0x0000000000000000        0x0 /home6/daewon2/Release/glibc/SP/SP_Linux/LP_Linux_Prj/REL/VDLinux.3.x.2012/toolchain/src/arm-mips-src-20121018/build.arm.cortex-a15/obj/glibc_0_final/libc_pic.a(mempcpy.os)

.ARM.exidx.text.__GI___mempcpy
                0x0000000000000000        0x8
 .ARM.exidx.text.__GI___mempcpy
                0x0000000000000000        0x8 /home6/daewon2/Release/glibc/SP/SP_Linux/LP_Linux_Prj/REL/VDLinux.3.x.2012/toolchain/src/arm-mips-src-20121018/build.arm.cortex-a15/obj/glibc_0_final/libc_pic.a(mempcpy.os)

.ARM.extab.text.__GI___stpcpy
                0x0000000000000000        0x0
 .ARM.extab.text.__GI___stpcpy
                0x0000000000000000        0x0 /home6/daewon2/Release/glibc/SP/SP_Linux/LP_Linux_Prj/REL/VDLinux.3.x.2012/toolchain/src/arm-mips-src-20121018/build.arm.cortex-a15/obj/glibc_0_final/libc_pic.a(stpcpy.os)

.ARM.exidx.text.__GI___stpcpy
                0x0000000000000000        0x8
 .ARM.exidx.text.__GI___stpcpy
                0x0000000000000000        0x8 /home6/daewon2/Release/glibc/SP/SP_Linux/LP_Linux_Prj/REL/VDLinux.3.x.2012/toolchain/src/arm-mips-src-20121018/build.arm.cortex-a15/obj/glibc_0_final/libc_pic.a(stpcpy.os)

.ARM.extab.text._wordcopy_fwd_aligned
                0x0000000000000000        0x0
 .ARM.extab.text._wordcopy_fwd_aligned
                0x0000000000000000        0x0 /home6/daewon2/Release/glibc/SP/SP_Linux/LP_Linux_Prj/REL/VDLinux.3.x.2012/toolchain/src/arm-mips-src-20121018/build.arm.cortex-a15/obj/glibc_0_final/libc_pic.a(wordcopy.os)

.ARM.exidx.text._wordcopy_fwd_aligned
                0x0000000000000000        0x8
 .ARM.exidx.text._wordcopy_fwd_aligned
                0x0000000000000000        0x8 /home6/daewon2/Release/glibc/SP/SP_Linux/LP_Linux_Prj/REL/VDLinux.3.x.2012/toolchain/src/arm-mips-src-20121018/build.arm.cortex-a15/obj/glibc_0_final/libc_pic.a(wordcopy.os)

.ARM.extab.text._wordcopy_fwd_dest_aligned
                0x0000000000000000        0x0
 .ARM.extab.text._wordcopy_fwd_dest_aligned
                0x0000000000000000        0x0 /home6/daewon2/Release/glibc/SP/SP_Linux/LP_Linux_Prj/REL/VDLinux.3.x.2012/toolchain/src/arm-mips-src-20121018/build.arm.cortex-a15/obj/glibc_0_final/libc_pic.a(wordcopy.os)

.ARM.exidx.text._wordcopy_fwd_dest_aligned
                0x0000000000000000        0x8
 .ARM.exidx.text._wordcopy_fwd_dest_aligned
                0x0000000000000000        0x8 /home6/daewon2/Release/glibc/SP/SP_Linux/LP_Linux_Prj/REL/VDLinux.3.x.2012/toolchain/src/arm-mips-src-20121018/build.arm.cortex-a15/obj/glibc_0_final/libc_pic.a(wordcopy.os)

.ARM.extab.text._wordcopy_bwd_aligned
                0x0000000000000000        0x0
 .ARM.extab.text._wordcopy_bwd_aligned
                0x0000000000000000        0x0 /home6/daewon2/Release/glibc/SP/SP_Linux/LP_Linux_Prj/REL/VDLinux.3.x.2012/toolchain/src/arm-mips-src-20121018/build.arm.cortex-a15/obj/glibc_0_final/libc_pic.a(wordcopy.os)

.ARM.exidx.text._wordcopy_bwd_aligned
                0x0000000000000000        0x8
 .ARM.exidx.text._wordcopy_bwd_aligned
                0x0000000000000000        0x8 /home6/daewon2/Release/glibc/SP/SP_Linux/LP_Linux_Prj/REL/VDLinux.3.x.2012/toolchain/src/arm-mips-src-20121018/build.arm.cortex-a15/obj/glibc_0_final/libc_pic.a(wordcopy.os)

.ARM.extab.text._wordcopy_bwd_dest_aligned
                0x0000000000000000        0x0
 .ARM.extab.text._wordcopy_bwd_dest_aligned
                0x0000000000000000        0x0 /home6/daewon2/Release/glibc/SP/SP_Linux/LP_Linux_Prj/REL/VDLinux.3.x.2012/toolchain/src/arm-mips-src-20121018/build.arm.cortex-a15/obj/glibc_0_final/libc_pic.a(wordcopy.os)

.ARM.exidx.text._wordcopy_bwd_dest_aligned
                0x0000000000000000        0x8
 .ARM.exidx.text._wordcopy_bwd_dest_aligned
                0x0000000000000000        0x8 /home6/daewon2/Release/glibc/SP/SP_Linux/LP_Linux_Prj/REL/VDLinux.3.x.2012/toolchain/src/arm-mips-src-20121018/build.arm.cortex-a15/obj/glibc_0_final/libc_pic.a(wordcopy.os)

.ARM.extab.text.__GI___rawmemchr
                0x0000000000000000        0x0
 .ARM.extab.text.__GI___rawmemchr
                0x0000000000000000        0x0 /home6/daewon2/Release/glibc/SP/SP_Linux/LP_Linux_Prj/REL/VDLinux.3.x.2012/toolchain/src/arm-mips-src-20121018/build.arm.cortex-a15/obj/glibc_0_final/libc_pic.a(rawmemchr.os)

.ARM.exidx.text.__GI___rawmemchr
                0x0000000000000000        0x8
 .ARM.exidx.text.__GI___rawmemchr
                0x0000000000000000        0x8 /home6/daewon2/Release/glibc/SP/SP_Linux/LP_Linux_Prj/REL/VDLinux.3.x.2012/toolchain/src/arm-mips-src-20121018/build.arm.cortex-a15/obj/glibc_0_final/libc_pic.a(rawmemchr.os)

.ARM.extab.text.__closedir
                0x0000000000000000        0xc
 .ARM.extab.text.__closedir
                0x0000000000000000        0xc /home6/daewon2/Release/glibc/SP/SP_Linux/LP_Linux_Prj/REL/VDLinux.3.x.2012/toolchain/src/arm-mips-src-20121018/build.arm.cortex-a15/obj/glibc_0_final/libc_pic.a(closedir.os)

.ARM.exidx.text.__closedir
                0x0000000000000000        0x8
 .ARM.exidx.text.__closedir
                0x0000000000000000        0x8 /home6/daewon2/Release/glibc/SP/SP_Linux/LP_Linux_Prj/REL/VDLinux.3.x.2012/toolchain/src/arm-mips-src-20121018/build.arm.cortex-a15/obj/glibc_0_final/libc_pic.a(closedir.os)

.ARM.extab.text.__readdir
                0x0000000000000000        0x0
 .ARM.extab.text.__readdir
                0x0000000000000000        0x0 /home6/daewon2/Release/glibc/SP/SP_Linux/LP_Linux_Prj/REL/VDLinux.3.x.2012/toolchain/src/arm-mips-src-20121018/build.arm.cortex-a15/obj/glibc_0_final/libc_pic.a(readdir.os)

.ARM.exidx.text.__readdir
                0x0000000000000000        0x8
 .ARM.exidx.text.__readdir
                0x0000000000000000        0x8 /home6/daewon2/Release/glibc/SP/SP_Linux/LP_Linux_Prj/REL/VDLinux.3.x.2012/toolchain/src/arm-mips-src-20121018/build.arm.cortex-a15/obj/glibc_0_final/libc_pic.a(readdir.os)

.ARM.extab.text.__GI_rewinddir
                0x0000000000000000        0x0
 .ARM.extab.text.__GI_rewinddir
                0x0000000000000000        0x0 /home6/daewon2/Release/glibc/SP/SP_Linux/LP_Linux_Prj/REL/VDLinux.3.x.2012/toolchain/src/arm-mips-src-20121018/build.arm.cortex-a15/obj/glibc_0_final/libc_pic.a(rewinddir.os)

.ARM.exidx.text.__GI_rewinddir
                0x0000000000000000        0x8
 .ARM.exidx.text.__GI_rewinddir
                0x0000000000000000        0x8 /home6/daewon2/Release/glibc/SP/SP_Linux/LP_Linux_Prj/REL/VDLinux.3.x.2012/toolchain/src/arm-mips-src-20121018/build.arm.cortex-a15/obj/glibc_0_final/libc_pic.a(rewinddir.os)

.ARM.extab.text.__getdents
                0x0000000000000000        0x0
 .ARM.extab.text.__getdents
                0x0000000000000000        0x0 /home6/daewon2/Release/glibc/SP/SP_Linux/LP_Linux_Prj/REL/VDLinux.3.x.2012/toolchain/src/arm-mips-src-20121018/build.arm.cortex-a15/obj/glibc_0_final/libc_pic.a(getdents.os)

.ARM.exidx.text.__getdents
                0x0000000000000000        0x8
 .ARM.exidx.text.__getdents
                0x0000000000000000        0x8 /home6/daewon2/Release/glibc/SP/SP_Linux/LP_Linux_Prj/REL/VDLinux.3.x.2012/toolchain/src/arm-mips-src-20121018/build.arm.cortex-a15/obj/glibc_0_final/libc_pic.a(getdents.os)

.ARM.extab.text.__fdopendir
                0x0000000000000000        0x0
 .ARM.extab.text.__fdopendir
                0x0000000000000000        0x0 /home6/daewon2/Release/glibc/SP/SP_Linux/LP_Linux_Prj/REL/VDLinux.3.x.2012/toolchain/src/arm-mips-src-20121018/build.arm.cortex-a15/obj/glibc_0_final/libc_pic.a(fdopendir.os)

.ARM.exidx.text.__fdopendir
                0x0000000000000000        0x8
 .ARM.exidx.text.__fdopendir
                0x0000000000000000        0x8 /home6/daewon2/Release/glibc/SP/SP_Linux/LP_Linux_Prj/REL/VDLinux.3.x.2012/toolchain/src/arm-mips-src-20121018/build.arm.cortex-a15/obj/glibc_0_final/libc_pic.a(fdopendir.os)

.ARM.extab.text.__GI__exit
                0x0000000000000000        0x0
 .ARM.extab.text.__GI__exit
                0x0000000000000000        0x0 /home6/daewon2/Release/glibc/SP/SP_Linux/LP_Linux_Prj/REL/VDLinux.3.x.2012/toolchain/src/arm-mips-src-20121018/build.arm.cortex-a15/obj/glibc_0_final/libc_pic.a(_exit.os)

.ARM.exidx.text.__GI__exit
                0x0000000000000000        0x8
 .ARM.exidx.text.__GI__exit
                0x0000000000000000        0x8 /home6/daewon2/Release/glibc/SP/SP_Linux/LP_Linux_Prj/REL/VDLinux.3.x.2012/toolchain/src/arm-mips-src-20121018/build.arm.cortex-a15/obj/glibc_0_final/libc_pic.a(_exit.os)

.ARM.extab.text.__GI___getpid
                0x0000000000000000        0x0
 .ARM.extab.text.__GI___getpid
                0x0000000000000000        0x0 /home6/daewon2/Release/glibc/SP/SP_Linux/LP_Linux_Prj/REL/VDLinux.3.x.2012/toolchain/src/arm-mips-src-20121018/build.arm.cortex-a15/obj/glibc_0_final/libc_pic.a(getpid.os)

.ARM.exidx.text.__GI___getpid
                0x0000000000000000        0x8
 .ARM.exidx.text.__GI___getpid
                0x0000000000000000        0x8 /home6/daewon2/Release/glibc/SP/SP_Linux/LP_Linux_Prj/REL/VDLinux.3.x.2012/toolchain/src/arm-mips-src-20121018/build.arm.cortex-a15/obj/glibc_0_final/libc_pic.a(getpid.os)

.ARM.extab.text.___xstat64
                0x0000000000000000        0x0
 .ARM.extab.text.___xstat64
                0x0000000000000000        0x0 /home6/daewon2/Release/glibc/SP/SP_Linux/LP_Linux_Prj/REL/VDLinux.3.x.2012/toolchain/src/arm-mips-src-20121018/build.arm.cortex-a15/obj/glibc_0_final/libc_pic.a(xstat64.os)

.ARM.exidx.text.___xstat64
                0x0000000000000000        0x8
 .ARM.exidx.text.___xstat64
                0x0000000000000000        0x8 /home6/daewon2/Release/glibc/SP/SP_Linux/LP_Linux_Prj/REL/VDLinux.3.x.2012/toolchain/src/arm-mips-src-20121018/build.arm.cortex-a15/obj/glibc_0_final/libc_pic.a(xstat64.os)

.ARM.extab.text.___fxstat64
                0x0000000000000000        0x0
 .ARM.extab.text.___fxstat64
                0x0000000000000000        0x0 /home6/daewon2/Release/glibc/SP/SP_Linux/LP_Linux_Prj/REL/VDLinux.3.x.2012/toolchain/src/arm-mips-src-20121018/build.arm.cortex-a15/obj/glibc_0_final/libc_pic.a(fxstat64.os)

.ARM.exidx.text.___fxstat64
                0x0000000000000000        0x8
 .ARM.exidx.text.___fxstat64
                0x0000000000000000        0x8 /home6/daewon2/Release/glibc/SP/SP_Linux/LP_Linux_Prj/REL/VDLinux.3.x.2012/toolchain/src/arm-mips-src-20121018/build.arm.cortex-a15/obj/glibc_0_final/libc_pic.a(fxstat64.os)

.ARM.extab.text.___lxstat64
                0x0000000000000000        0x0
 .ARM.extab.text.___lxstat64
                0x0000000000000000        0x0 /home6/daewon2/Release/glibc/SP/SP_Linux/LP_Linux_Prj/REL/VDLinux.3.x.2012/toolchain/src/arm-mips-src-20121018/build.arm.cortex-a15/obj/glibc_0_final/libc_pic.a(lxstat64.os)

.ARM.exidx.text.___lxstat64
                0x0000000000000000        0x8
 .ARM.exidx.text.___lxstat64
                0x0000000000000000        0x8 /home6/daewon2/Release/glibc/SP/SP_Linux/LP_Linux_Prj/REL/VDLinux.3.x.2012/toolchain/src/arm-mips-src-20121018/build.arm.cortex-a15/obj/glibc_0_final/libc_pic.a(lxstat64.os)

.ARM.extab.text.__fcntl_nocancel
                0x0000000000000000        0xc
 .ARM.extab.text.__fcntl_nocancel
                0x0000000000000000        0xc /home6/daewon2/Release/glibc/SP/SP_Linux/LP_Linux_Prj/REL/VDLinux.3.x.2012/toolchain/src/arm-mips-src-20121018/build.arm.cortex-a15/obj/glibc_0_final/libc_pic.a(fcntl.os)

.ARM.exidx.text.__fcntl_nocancel
                0x0000000000000000        0x8
 .ARM.exidx.text.__fcntl_nocancel
                0x0000000000000000        0x8 /home6/daewon2/Release/glibc/SP/SP_Linux/LP_Linux_Prj/REL/VDLinux.3.x.2012/toolchain/src/arm-mips-src-20121018/build.arm.cortex-a15/obj/glibc_0_final/libc_pic.a(fcntl.os)

.ARM.extab.text.__GI___libc_fcntl
                0x0000000000000000        0xc
 .ARM.extab.text.__GI___libc_fcntl
                0x0000000000000000        0xc /home6/daewon2/Release/glibc/SP/SP_Linux/LP_Linux_Prj/REL/VDLinux.3.x.2012/toolchain/src/arm-mips-src-20121018/build.arm.cortex-a15/obj/glibc_0_final/libc_pic.a(fcntl.os)

.ARM.exidx.text.__GI___libc_fcntl
                0x0000000000000000        0x8
 .ARM.exidx.text.__GI___libc_fcntl
                0x0000000000000000        0x8 /home6/daewon2/Release/glibc/SP/SP_Linux/LP_Linux_Prj/REL/VDLinux.3.x.2012/toolchain/src/arm-mips-src-20121018/build.arm.cortex-a15/obj/glibc_0_final/libc_pic.a(fcntl.os)

.ARM.extab.text.__GI___getpagesize
                0x0000000000000000        0x0
 .ARM.extab.text.__GI___getpagesize
                0x0000000000000000        0x0 /home6/daewon2/Release/glibc/SP/SP_Linux/LP_Linux_Prj/REL/VDLinux.3.x.2012/toolchain/src/arm-mips-src-20121018/build.arm.cortex-a15/obj/glibc_0_final/libc_pic.a(getpagesize.os)

.ARM.exidx.text.__GI___getpagesize
                0x0000000000000000        0x8
 .ARM.exidx.text.__GI___getpagesize
                0x0000000000000000        0x8 /home6/daewon2/Release/glibc/SP/SP_Linux/LP_Linux_Prj/REL/VDLinux.3.x.2012/toolchain/src/arm-mips-src-20121018/build.arm.cortex-a15/obj/glibc_0_final/libc_pic.a(getpagesize.os)

.ARM.extab.text.profil_counter
                0x0000000000000000        0x0
 .ARM.extab.text.profil_counter
                0x0000000000000000        0x0 /home6/daewon2/Release/glibc/SP/SP_Linux/LP_Linux_Prj/REL/VDLinux.3.x.2012/toolchain/src/arm-mips-src-20121018/build.arm.cortex-a15/obj/glibc_0_final/libc_pic.a(profil.os)

.ARM.exidx.text.profil_counter
                0x0000000000000000        0x8
 .ARM.exidx.text.profil_counter
                0x0000000000000000        0x8 /home6/daewon2/Release/glibc/SP/SP_Linux/LP_Linux_Prj/REL/VDLinux.3.x.2012/toolchain/src/arm-mips-src-20121018/build.arm.cortex-a15/obj/glibc_0_final/libc_pic.a(profil.os)

.ARM.extab.text.__profil
                0x0000000000000000        0x0
 .ARM.extab.text.__profil
                0x0000000000000000        0x0 /home6/daewon2/Release/glibc/SP/SP_Linux/LP_Linux_Prj/REL/VDLinux.3.x.2012/toolchain/src/arm-mips-src-20121018/build.arm.cortex-a15/obj/glibc_0_final/libc_pic.a(profil.os)

.ARM.exidx.text.__profil
                0x0000000000000000        0x8
 .ARM.exidx.text.__profil
                0x0000000000000000        0x8 /home6/daewon2/Release/glibc/SP/SP_Linux/LP_Linux_Prj/REL/VDLinux.3.x.2012/toolchain/src/arm-mips-src-20121018/build.arm.cortex-a15/obj/glibc_0_final/libc_pic.a(profil.os)

.ARM.extab.text.__GI___profile_frequency
                0x0000000000000000        0x0
 .ARM.extab.text.__GI___profile_frequency
                0x0000000000000000        0x0 /home6/daewon2/Release/glibc/SP/SP_Linux/LP_Linux_Prj/REL/VDLinux.3.x.2012/toolchain/src/arm-mips-src-20121018/build.arm.cortex-a15/obj/glibc_0_final/libc_pic.a(prof-freq.os)

.ARM.exidx.text.__GI___profile_frequency
                0x0000000000000000        0x8
 .ARM.exidx.text.__GI___profile_frequency
                0x0000000000000000        0x8 /home6/daewon2/Release/glibc/SP/SP_Linux/LP_Linux_Prj/REL/VDLinux.3.x.2012/toolchain/src/arm-mips-src-20121018/build.arm.cortex-a15/obj/glibc_0_final/libc_pic.a(prof-freq.os)

.ARM.extab.text.__lll_lock_wait_private
                0x0000000000000000        0x0
 .ARM.extab.text.__lll_lock_wait_private
                0x0000000000000000        0x0 /home6/daewon2/Release/glibc/SP/SP_Linux/LP_Linux_Prj/REL/VDLinux.3.x.2012/toolchain/src/arm-mips-src-20121018/build.arm.cortex-a15/obj/glibc_0_final/libc_pic.a(libc-lowlevellock.os)

.ARM.exidx.text.__lll_lock_wait_private
                0x0000000000000000        0x8
 .ARM.exidx.text.__lll_lock_wait_private
                0x0000000000000000        0x8 /home6/daewon2/Release/glibc/SP/SP_Linux/LP_Linux_Prj/REL/VDLinux.3.x.2012/toolchain/src/arm-mips-src-20121018/build.arm.cortex-a15/obj/glibc_0_final/libc_pic.a(libc-lowlevellock.os)

.ARM.extab.text.__libc_enable_asynccancel
                0x0000000000000000        0x0
 .ARM.extab.text.__libc_enable_asynccancel
                0x0000000000000000        0x0 /home6/daewon2/Release/glibc/SP/SP_Linux/LP_Linux_Prj/REL/VDLinux.3.x.2012/toolchain/src/arm-mips-src-20121018/build.arm.cortex-a15/obj/glibc_0_final/libc_pic.a(libc-cancellation.os)

.ARM.exidx.text.__libc_enable_asynccancel
                0x0000000000000000        0x8
 .ARM.exidx.text.__libc_enable_asynccancel
                0x0000000000000000        0x8 /home6/daewon2/Release/glibc/SP/SP_Linux/LP_Linux_Prj/REL/VDLinux.3.x.2012/toolchain/src/arm-mips-src-20121018/build.arm.cortex-a15/obj/glibc_0_final/libc_pic.a(libc-cancellation.os)

.ARM.extab.text.__libc_disable_asynccancel
                0x0000000000000000        0x0
 .ARM.extab.text.__libc_disable_asynccancel
                0x0000000000000000        0x0 /home6/daewon2/Release/glibc/SP/SP_Linux/LP_Linux_Prj/REL/VDLinux.3.x.2012/toolchain/src/arm-mips-src-20121018/build.arm.cortex-a15/obj/glibc_0_final/libc_pic.a(libc-cancellation.os)

.ARM.exidx.text.__libc_disable_asynccancel
                0x0000000000000000        0x8
 .ARM.exidx.text.__libc_disable_asynccancel
                0x0000000000000000        0x8 /home6/daewon2/Release/glibc/SP/SP_Linux/LP_Linux_Prj/REL/VDLinux.3.x.2012/toolchain/src/arm-mips-src-20121018/build.arm.cortex-a15/obj/glibc_0_final/libc_pic.a(libc-cancellation.os)

.ARM.extab.text.__GI___libc_sigaction
                0x0000000000000000        0x0
 .ARM.extab.text.__GI___libc_sigaction
                0x0000000000000000        0x0 /home6/daewon2/Release/glibc/SP/SP_Linux/LP_Linux_Prj/REL/VDLinux.3.x.2012/toolchain/src/arm-mips-src-20121018/build.arm.cortex-a15/obj/glibc_0_final/libc_pic.a(sigaction.os)

.ARM.exidx.text.__GI___libc_sigaction
                0x0000000000000000        0x8
 .ARM.exidx.text.__GI___libc_sigaction
                0x0000000000000000        0x8 /home6/daewon2/Release/glibc/SP/SP_Linux/LP_Linux_Prj/REL/VDLinux.3.x.2012/toolchain/src/arm-mips-src-20121018/build.arm.cortex-a15/obj/glibc_0_final/libc_pic.a(sigaction.os)

.ARM.extab.text.__GI___sigaction
                0x0000000000000000        0x0
 .ARM.extab.text.__GI___sigaction
                0x0000000000000000        0x0 /home6/daewon2/Release/glibc/SP/SP_Linux/LP_Linux_Prj/REL/VDLinux.3.x.2012/toolchain/src/arm-mips-src-20121018/build.arm.cortex-a15/obj/glibc_0_final/libc_pic.a(sigaction.os)

.ARM.exidx.text.__GI___sigaction
                0x0000000000000000        0x8
 .ARM.exidx.text.__GI___sigaction
                0x0000000000000000        0x8 /home6/daewon2/Release/glibc/SP/SP_Linux/LP_Linux_Prj/REL/VDLinux.3.x.2012/toolchain/src/arm-mips-src-20121018/build.arm.cortex-a15/obj/glibc_0_final/libc_pic.a(sigaction.os)

.ARM.extab.text.pthread_equal
                0x0000000000000000        0xc
 .ARM.extab.text.pthread_equal
                0x0000000000000000        0xc /home6/daewon2/Release/glibc/SP/SP_Linux/LP_Linux_Prj/REL/VDLinux.3.x.2012/toolchain/src/arm-mips-src-20121018/build.arm.cortex-a15/obj/glibc_0_final/libc_pic.a(forward.os)

.ARM.exidx.text.pthread_equal
                0x0000000000000000        0x8
 .ARM.exidx.text.pthread_equal
                0x0000000000000000        0x8 /home6/daewon2/Release/glibc/SP/SP_Linux/LP_Linux_Prj/REL/VDLinux.3.x.2012/toolchain/src/arm-mips-src-20121018/build.arm.cortex-a15/obj/glibc_0_final/libc_pic.a(forward.os)

.ARM.extab.text.pthread_attr_destroy
                0x0000000000000000        0xc
 .ARM.extab.text.pthread_attr_destroy
                0x0000000000000000        0xc /home6/daewon2/Release/glibc/SP/SP_Linux/LP_Linux_Prj/REL/VDLinux.3.x.2012/toolchain/src/arm-mips-src-20121018/build.arm.cortex-a15/obj/glibc_0_final/libc_pic.a(forward.os)

.ARM.exidx.text.pthread_attr_destroy
                0x0000000000000000        0x8
 .ARM.exidx.text.pthread_attr_destroy
                0x0000000000000000        0x8 /home6/daewon2/Release/glibc/SP/SP_Linux/LP_Linux_Prj/REL/VDLinux.3.x.2012/toolchain/src/arm-mips-src-20121018/build.arm.cortex-a15/obj/glibc_0_final/libc_pic.a(forward.os)

.ARM.extab.text.__pthread_attr_init_2_1
                0x0000000000000000        0xc
 .ARM.extab.text.__pthread_attr_init_2_1
                0x0000000000000000        0xc /home6/daewon2/Release/glibc/SP/SP_Linux/LP_Linux_Prj/REL/VDLinux.3.x.2012/toolchain/src/arm-mips-src-20121018/build.arm.cortex-a15/obj/glibc_0_final/libc_pic.a(forward.os)

.ARM.exidx.text.__pthread_attr_init_2_1
                0x0000000000000000        0x8
 .ARM.exidx.text.__pthread_attr_init_2_1
                0x0000000000000000        0x8 /home6/daewon2/Release/glibc/SP/SP_Linux/LP_Linux_Prj/REL/VDLinux.3.x.2012/toolchain/src/arm-mips-src-20121018/build.arm.cortex-a15/obj/glibc_0_final/libc_pic.a(forward.os)

.ARM.extab.text.pthread_attr_getdetachstate
                0x0000000000000000        0xc
 .ARM.extab.text.pthread_attr_getdetachstate
                0x0000000000000000        0xc /home6/daewon2/Release/glibc/SP/SP_Linux/LP_Linux_Prj/REL/VDLinux.3.x.2012/toolchain/src/arm-mips-src-20121018/build.arm.cortex-a15/obj/glibc_0_final/libc_pic.a(forward.os)

.ARM.exidx.text.pthread_attr_getdetachstate
                0x0000000000000000        0x8
 .ARM.exidx.text.pthread_attr_getdetachstate
                0x0000000000000000        0x8 /home6/daewon2/Release/glibc/SP/SP_Linux/LP_Linux_Prj/REL/VDLinux.3.x.2012/toolchain/src/arm-mips-src-20121018/build.arm.cortex-a15/obj/glibc_0_final/libc_pic.a(forward.os)

.ARM.extab.text.pthread_attr_setdetachstate
                0x0000000000000000        0xc
 .ARM.extab.text.pthread_attr_setdetachstate
                0x0000000000000000        0xc /home6/daewon2/Release/glibc/SP/SP_Linux/LP_Linux_Prj/REL/VDLinux.3.x.2012/toolchain/src/arm-mips-src-20121018/build.arm.cortex-a15/obj/glibc_0_final/libc_pic.a(forward.os)

.ARM.exidx.text.pthread_attr_setdetachstate
                0x0000000000000000        0x8
 .ARM.exidx.text.pthread_attr_setdetachstate
                0x0000000000000000        0x8 /home6/daewon2/Release/glibc/SP/SP_Linux/LP_Linux_Prj/REL/VDLinux.3.x.2012/toolchain/src/arm-mips-src-20121018/build.arm.cortex-a15/obj/glibc_0_final/libc_pic.a(forward.os)

.ARM.extab.text.pthread_attr_getinheritsched
                0x0000000000000000        0xc
 .ARM.extab.text.pthread_attr_getinheritsched
                0x0000000000000000        0xc /home6/daewon2/Release/glibc/SP/SP_Linux/LP_Linux_Prj/REL/VDLinux.3.x.2012/toolchain/src/arm-mips-src-20121018/build.arm.cortex-a15/obj/glibc_0_final/libc_pic.a(forward.os)

.ARM.exidx.text.pthread_attr_getinheritsched
                0x0000000000000000        0x8
 .ARM.exidx.text.pthread_attr_getinheritsched
                0x0000000000000000        0x8 /home6/daewon2/Release/glibc/SP/SP_Linux/LP_Linux_Prj/REL/VDLinux.3.x.2012/toolchain/src/arm-mips-src-20121018/build.arm.cortex-a15/obj/glibc_0_final/libc_pic.a(forward.os)

.ARM.extab.text.pthread_attr_setinheritsched
                0x0000000000000000        0xc
 .ARM.extab.text.pthread_attr_setinheritsched
                0x0000000000000000        0xc /home6/daewon2/Release/glibc/SP/SP_Linux/LP_Linux_Prj/REL/VDLinux.3.x.2012/toolchain/src/arm-mips-src-20121018/build.arm.cortex-a15/obj/glibc_0_final/libc_pic.a(forward.os)

.ARM.exidx.text.pthread_attr_setinheritsched
                0x0000000000000000        0x8
 .ARM.exidx.text.pthread_attr_setinheritsched
                0x0000000000000000        0x8 /home6/daewon2/Release/glibc/SP/SP_Linux/LP_Linux_Prj/REL/VDLinux.3.x.2012/toolchain/src/arm-mips-src-20121018/build.arm.cortex-a15/obj/glibc_0_final/libc_pic.a(forward.os)

.ARM.extab.text.pthread_attr_getschedparam
                0x0000000000000000        0xc
 .ARM.extab.text.pthread_attr_getschedparam
                0x0000000000000000        0xc /home6/daewon2/Release/glibc/SP/SP_Linux/LP_Linux_Prj/REL/VDLinux.3.x.2012/toolchain/src/arm-mips-src-20121018/build.arm.cortex-a15/obj/glibc_0_final/libc_pic.a(forward.os)

.ARM.exidx.text.pthread_attr_getschedparam
                0x0000000000000000        0x8
 .ARM.exidx.text.pthread_attr_getschedparam
                0x0000000000000000        0x8 /home6/daewon2/Release/glibc/SP/SP_Linux/LP_Linux_Prj/REL/VDLinux.3.x.2012/toolchain/src/arm-mips-src-20121018/build.arm.cortex-a15/obj/glibc_0_final/libc_pic.a(forward.os)

.ARM.extab.text.pthread_attr_setschedparam
                0x0000000000000000        0xc
 .ARM.extab.text.pthread_attr_setschedparam
                0x0000000000000000        0xc /home6/daewon2/Release/glibc/SP/SP_Linux/LP_Linux_Prj/REL/VDLinux.3.x.2012/toolchain/src/arm-mips-src-20121018/build.arm.cortex-a15/obj/glibc_0_final/libc_pic.a(forward.os)

.ARM.exidx.text.pthread_attr_setschedparam
                0x0000000000000000        0x8
 .ARM.exidx.text.pthread_attr_setschedparam
                0x0000000000000000        0x8 /home6/daewon2/Release/glibc/SP/SP_Linux/LP_Linux_Prj/REL/VDLinux.3.x.2012/toolchain/src/arm-mips-src-20121018/build.arm.cortex-a15/obj/glibc_0_final/libc_pic.a(forward.os)

.ARM.extab.text.pthread_attr_getschedpolicy
                0x0000000000000000        0xc
 .ARM.extab.text.pthread_attr_getschedpolicy
                0x0000000000000000        0xc /home6/daewon2/Release/glibc/SP/SP_Linux/LP_Linux_Prj/REL/VDLinux.3.x.2012/toolchain/src/arm-mips-src-20121018/build.arm.cortex-a15/obj/glibc_0_final/libc_pic.a(forward.os)

.ARM.exidx.text.pthread_attr_getschedpolicy
                0x0000000000000000        0x8
 .ARM.exidx.text.pthread_attr_getschedpolicy
                0x0000000000000000        0x8 /home6/daewon2/Release/glibc/SP/SP_Linux/LP_Linux_Prj/REL/VDLinux.3.x.2012/toolchain/src/arm-mips-src-20121018/build.arm.cortex-a15/obj/glibc_0_final/libc_pic.a(forward.os)

.ARM.extab.text.pthread_attr_setschedpolicy
                0x0000000000000000        0xc
 .ARM.extab.text.pthread_attr_setschedpolicy
                0x0000000000000000        0xc /home6/daewon2/Release/glibc/SP/SP_Linux/LP_Linux_Prj/REL/VDLinux.3.x.2012/toolchain/src/arm-mips-src-20121018/build.arm.cortex-a15/obj/glibc_0_final/libc_pic.a(forward.os)

.ARM.exidx.text.pthread_attr_setschedpolicy
                0x0000000000000000        0x8
 .ARM.exidx.text.pthread_attr_setschedpolicy
                0x0000000000000000        0x8 /home6/daewon2/Release/glibc/SP/SP_Linux/LP_Linux_Prj/REL/VDLinux.3.x.2012/toolchain/src/arm-mips-src-20121018/build.arm.cortex-a15/obj/glibc_0_final/libc_pic.a(forward.os)

.ARM.extab.text.pthread_attr_getscope
                0x0000000000000000        0xc
 .ARM.extab.text.pthread_attr_getscope
                0x0000000000000000        0xc /home6/daewon2/Release/glibc/SP/SP_Linux/LP_Linux_Prj/REL/VDLinux.3.x.2012/toolchain/src/arm-mips-src-20121018/build.arm.cortex-a15/obj/glibc_0_final/libc_pic.a(forward.os)

.ARM.exidx.text.pthread_attr_getscope
                0x0000000000000000        0x8
 .ARM.exidx.text.pthread_attr_getscope
                0x0000000000000000        0x8 /home6/daewon2/Release/glibc/SP/SP_Linux/LP_Linux_Prj/REL/VDLinux.3.x.2012/toolchain/src/arm-mips-src-20121018/build.arm.cortex-a15/obj/glibc_0_final/libc_pic.a(forward.os)

.ARM.extab.text.pthread_attr_setscope
                0x0000000000000000        0xc
 .ARM.extab.text.pthread_attr_setscope
                0x0000000000000000        0xc /home6/daewon2/Release/glibc/SP/SP_Linux/LP_Linux_Prj/REL/VDLinux.3.x.2012/toolchain/src/arm-mips-src-20121018/build.arm.cortex-a15/obj/glibc_0_final/libc_pic.a(forward.os)

.ARM.exidx.text.pthread_attr_setscope
                0x0000000000000000        0x8
 .ARM.exidx.text.pthread_attr_setscope
                0x0000000000000000        0x8 /home6/daewon2/Release/glibc/SP/SP_Linux/LP_Linux_Prj/REL/VDLinux.3.x.2012/toolchain/src/arm-mips-src-20121018/build.arm.cortex-a15/obj/glibc_0_final/libc_pic.a(forward.os)

.ARM.extab.text.pthread_condattr_destroy
                0x0000000000000000        0xc
 .ARM.extab.text.pthread_condattr_destroy
                0x0000000000000000        0xc /home6/daewon2/Release/glibc/SP/SP_Linux/LP_Linux_Prj/REL/VDLinux.3.x.2012/toolchain/src/arm-mips-src-20121018/build.arm.cortex-a15/obj/glibc_0_final/libc_pic.a(forward.os)

.ARM.exidx.text.pthread_condattr_destroy
                0x0000000000000000        0x8
 .ARM.exidx.text.pthread_condattr_destroy
                0x0000000000000000        0x8 /home6/daewon2/Release/glibc/SP/SP_Linux/LP_Linux_Prj/REL/VDLinux.3.x.2012/toolchain/src/arm-mips-src-20121018/build.arm.cortex-a15/obj/glibc_0_final/libc_pic.a(forward.os)

.ARM.extab.text.pthread_condattr_init
                0x0000000000000000        0xc
 .ARM.extab.text.pthread_condattr_init
                0x0000000000000000        0xc /home6/daewon2/Release/glibc/SP/SP_Linux/LP_Linux_Prj/REL/VDLinux.3.x.2012/toolchain/src/arm-mips-src-20121018/build.arm.cortex-a15/obj/glibc_0_final/libc_pic.a(forward.os)

.ARM.exidx.text.pthread_condattr_init
                0x0000000000000000        0x8
 .ARM.exidx.text.pthread_condattr_init
                0x0000000000000000        0x8 /home6/daewon2/Release/glibc/SP/SP_Linux/LP_Linux_Prj/REL/VDLinux.3.x.2012/toolchain/src/arm-mips-src-20121018/build.arm.cortex-a15/obj/glibc_0_final/libc_pic.a(forward.os)

.ARM.extab.text.__pthread_cond_broadcast
                0x0000000000000000        0xc
 .ARM.extab.text.__pthread_cond_broadcast
                0x0000000000000000        0xc /home6/daewon2/Release/glibc/SP/SP_Linux/LP_Linux_Prj/REL/VDLinux.3.x.2012/toolchain/src/arm-mips-src-20121018/build.arm.cortex-a15/obj/glibc_0_final/libc_pic.a(forward.os)

.ARM.exidx.text.__pthread_cond_broadcast
                0x0000000000000000        0x8
 .ARM.exidx.text.__pthread_cond_broadcast
                0x0000000000000000        0x8 /home6/daewon2/Release/glibc/SP/SP_Linux/LP_Linux_Prj/REL/VDLinux.3.x.2012/toolchain/src/arm-mips-src-20121018/build.arm.cortex-a15/obj/glibc_0_final/libc_pic.a(forward.os)

.ARM.extab.text.__pthread_cond_destroy
                0x0000000000000000        0xc
 .ARM.extab.text.__pthread_cond_destroy
                0x0000000000000000        0xc /home6/daewon2/Release/glibc/SP/SP_Linux/LP_Linux_Prj/REL/VDLinux.3.x.2012/toolchain/src/arm-mips-src-20121018/build.arm.cortex-a15/obj/glibc_0_final/libc_pic.a(forward.os)

.ARM.exidx.text.__pthread_cond_destroy
                0x0000000000000000        0x8
 .ARM.exidx.text.__pthread_cond_destroy
                0x0000000000000000        0x8 /home6/daewon2/Release/glibc/SP/SP_Linux/LP_Linux_Prj/REL/VDLinux.3.x.2012/toolchain/src/arm-mips-src-20121018/build.arm.cortex-a15/obj/glibc_0_final/libc_pic.a(forward.os)

.ARM.extab.text.__pthread_cond_init
                0x0000000000000000        0xc
 .ARM.extab.text.__pthread_cond_init
                0x0000000000000000        0xc /home6/daewon2/Release/glibc/SP/SP_Linux/LP_Linux_Prj/REL/VDLinux.3.x.2012/toolchain/src/arm-mips-src-20121018/build.arm.cortex-a15/obj/glibc_0_final/libc_pic.a(forward.os)

.ARM.exidx.text.__pthread_cond_init
                0x0000000000000000        0x8
 .ARM.exidx.text.__pthread_cond_init
                0x0000000000000000        0x8 /home6/daewon2/Release/glibc/SP/SP_Linux/LP_Linux_Prj/REL/VDLinux.3.x.2012/toolchain/src/arm-mips-src-20121018/build.arm.cortex-a15/obj/glibc_0_final/libc_pic.a(forward.os)

.ARM.extab.text.__pthread_cond_signal
                0x0000000000000000        0xc
 .ARM.extab.text.__pthread_cond_signal
                0x0000000000000000        0xc /home6/daewon2/Release/glibc/SP/SP_Linux/LP_Linux_Prj/REL/VDLinux.3.x.2012/toolchain/src/arm-mips-src-20121018/build.arm.cortex-a15/obj/glibc_0_final/libc_pic.a(forward.os)

.ARM.exidx.text.__pthread_cond_signal
                0x0000000000000000        0x8
 .ARM.exidx.text.__pthread_cond_signal
                0x0000000000000000        0x8 /home6/daewon2/Release/glibc/SP/SP_Linux/LP_Linux_Prj/REL/VDLinux.3.x.2012/toolchain/src/arm-mips-src-20121018/build.arm.cortex-a15/obj/glibc_0_final/libc_pic.a(forward.os)

.ARM.extab.text.__pthread_cond_wait
                0x0000000000000000        0xc
 .ARM.extab.text.__pthread_cond_wait
                0x0000000000000000        0xc /home6/daewon2/Release/glibc/SP/SP_Linux/LP_Linux_Prj/REL/VDLinux.3.x.2012/toolchain/src/arm-mips-src-20121018/build.arm.cortex-a15/obj/glibc_0_final/libc_pic.a(forward.os)

.ARM.exidx.text.__pthread_cond_wait
                0x0000000000000000        0x8
 .ARM.exidx.text.__pthread_cond_wait
                0x0000000000000000        0x8 /home6/daewon2/Release/glibc/SP/SP_Linux/LP_Linux_Prj/REL/VDLinux.3.x.2012/toolchain/src/arm-mips-src-20121018/build.arm.cortex-a15/obj/glibc_0_final/libc_pic.a(forward.os)

.ARM.extab.text.__pthread_cond_timedwait
                0x0000000000000000        0xc
 .ARM.extab.text.__pthread_cond_timedwait
                0x0000000000000000        0xc /home6/daewon2/Release/glibc/SP/SP_Linux/LP_Linux_Prj/REL/VDLinux.3.x.2012/toolchain/src/arm-mips-src-20121018/build.arm.cortex-a15/obj/glibc_0_final/libc_pic.a(forward.os)

.ARM.exidx.text.__pthread_cond_timedwait
                0x0000000000000000        0x8
 .ARM.exidx.text.__pthread_cond_timedwait
                0x0000000000000000        0x8 /home6/daewon2/Release/glibc/SP/SP_Linux/LP_Linux_Prj/REL/VDLinux.3.x.2012/toolchain/src/arm-mips-src-20121018/build.arm.cortex-a15/obj/glibc_0_final/libc_pic.a(forward.os)

.ARM.extab.text.__pthread_exit
                0x0000000000000000        0xc
 .ARM.extab.text.__pthread_exit
                0x0000000000000000        0xc /home6/daewon2/Release/glibc/SP/SP_Linux/LP_Linux_Prj/REL/VDLinux.3.x.2012/toolchain/src/arm-mips-src-20121018/build.arm.cortex-a15/obj/glibc_0_final/libc_pic.a(forward.os)

.ARM.exidx.text.__pthread_exit
                0x0000000000000000        0x8
 .ARM.exidx.text.__pthread_exit
                0x0000000000000000        0x8 /home6/daewon2/Release/glibc/SP/SP_Linux/LP_Linux_Prj/REL/VDLinux.3.x.2012/toolchain/src/arm-mips-src-20121018/build.arm.cortex-a15/obj/glibc_0_final/libc_pic.a(forward.os)

.ARM.extab.text.pthread_getschedparam
                0x0000000000000000        0xc
 .ARM.extab.text.pthread_getschedparam
                0x0000000000000000        0xc /home6/daewon2/Release/glibc/SP/SP_Linux/LP_Linux_Prj/REL/VDLinux.3.x.2012/toolchain/src/arm-mips-src-20121018/build.arm.cortex-a15/obj/glibc_0_final/libc_pic.a(forward.os)

.ARM.exidx.text.pthread_getschedparam
                0x0000000000000000        0x8
 .ARM.exidx.text.pthread_getschedparam
                0x0000000000000000        0x8 /home6/daewon2/Release/glibc/SP/SP_Linux/LP_Linux_Prj/REL/VDLinux.3.x.2012/toolchain/src/arm-mips-src-20121018/build.arm.cortex-a15/obj/glibc_0_final/libc_pic.a(forward.os)

.ARM.extab.text.pthread_setschedparam
                0x0000000000000000        0xc
 .ARM.extab.text.pthread_setschedparam
                0x0000000000000000        0xc /home6/daewon2/Release/glibc/SP/SP_Linux/LP_Linux_Prj/REL/VDLinux.3.x.2012/toolchain/src/arm-mips-src-20121018/build.arm.cortex-a15/obj/glibc_0_final/libc_pic.a(forward.os)

.ARM.exidx.text.pthread_setschedparam
                0x0000000000000000        0x8
 .ARM.exidx.text.pthread_setschedparam
                0x0000000000000000        0x8 /home6/daewon2/Release/glibc/SP/SP_Linux/LP_Linux_Prj/REL/VDLinux.3.x.2012/toolchain/src/arm-mips-src-20121018/build.arm.cortex-a15/obj/glibc_0_final/libc_pic.a(forward.os)

.ARM.extab.text.pthread_mutex_destroy
                0x0000000000000000        0xc
 .ARM.extab.text.pthread_mutex_destroy
                0x0000000000000000        0xc /home6/daewon2/Release/glibc/SP/SP_Linux/LP_Linux_Prj/REL/VDLinux.3.x.2012/toolchain/src/arm-mips-src-20121018/build.arm.cortex-a15/obj/glibc_0_final/libc_pic.a(forward.os)

.ARM.exidx.text.pthread_mutex_destroy
                0x0000000000000000        0x8
 .ARM.exidx.text.pthread_mutex_destroy
                0x0000000000000000        0x8 /home6/daewon2/Release/glibc/SP/SP_Linux/LP_Linux_Prj/REL/VDLinux.3.x.2012/toolchain/src/arm-mips-src-20121018/build.arm.cortex-a15/obj/glibc_0_final/libc_pic.a(forward.os)

.ARM.extab.text.pthread_mutex_init
                0x0000000000000000        0xc
 .ARM.extab.text.pthread_mutex_init
                0x0000000000000000        0xc /home6/daewon2/Release/glibc/SP/SP_Linux/LP_Linux_Prj/REL/VDLinux.3.x.2012/toolchain/src/arm-mips-src-20121018/build.arm.cortex-a15/obj/glibc_0_final/libc_pic.a(forward.os)

.ARM.exidx.text.pthread_mutex_init
                0x0000000000000000        0x8
 .ARM.exidx.text.pthread_mutex_init
                0x0000000000000000        0x8 /home6/daewon2/Release/glibc/SP/SP_Linux/LP_Linux_Prj/REL/VDLinux.3.x.2012/toolchain/src/arm-mips-src-20121018/build.arm.cortex-a15/obj/glibc_0_final/libc_pic.a(forward.os)

.ARM.extab.text.pthread_mutex_lock
                0x0000000000000000        0xc
 .ARM.extab.text.pthread_mutex_lock
                0x0000000000000000        0xc /home6/daewon2/Release/glibc/SP/SP_Linux/LP_Linux_Prj/REL/VDLinux.3.x.2012/toolchain/src/arm-mips-src-20121018/build.arm.cortex-a15/obj/glibc_0_final/libc_pic.a(forward.os)

.ARM.exidx.text.pthread_mutex_lock
                0x0000000000000000        0x8
 .ARM.exidx.text.pthread_mutex_lock
                0x0000000000000000        0x8 /home6/daewon2/Release/glibc/SP/SP_Linux/LP_Linux_Prj/REL/VDLinux.3.x.2012/toolchain/src/arm-mips-src-20121018/build.arm.cortex-a15/obj/glibc_0_final/libc_pic.a(forward.os)

.ARM.extab.text.pthread_mutex_unlock
                0x0000000000000000        0xc
 .ARM.extab.text.pthread_mutex_unlock
                0x0000000000000000        0xc /home6/daewon2/Release/glibc/SP/SP_Linux/LP_Linux_Prj/REL/VDLinux.3.x.2012/toolchain/src/arm-mips-src-20121018/build.arm.cortex-a15/obj/glibc_0_final/libc_pic.a(forward.os)

.ARM.exidx.text.pthread_mutex_unlock
                0x0000000000000000        0x8
 .ARM.exidx.text.pthread_mutex_unlock
                0x0000000000000000        0x8 /home6/daewon2/Release/glibc/SP/SP_Linux/LP_Linux_Prj/REL/VDLinux.3.x.2012/toolchain/src/arm-mips-src-20121018/build.arm.cortex-a15/obj/glibc_0_final/libc_pic.a(forward.os)

.ARM.extab.text.pthread_self
                0x0000000000000000        0xc
 .ARM.extab.text.pthread_self
                0x0000000000000000        0xc /home6/daewon2/Release/glibc/SP/SP_Linux/LP_Linux_Prj/REL/VDLinux.3.x.2012/toolchain/src/arm-mips-src-20121018/build.arm.cortex-a15/obj/glibc_0_final/libc_pic.a(forward.os)

.ARM.exidx.text.pthread_self
                0x0000000000000000        0x8
 .ARM.exidx.text.pthread_self
                0x0000000000000000        0x8 /home6/daewon2/Release/glibc/SP/SP_Linux/LP_Linux_Prj/REL/VDLinux.3.x.2012/toolchain/src/arm-mips-src-20121018/build.arm.cortex-a15/obj/glibc_0_final/libc_pic.a(forward.os)

.ARM.extab.text.pthread_setcancelstate
                0x0000000000000000        0xc
 .ARM.extab.text.pthread_setcancelstate
                0x0000000000000000        0xc /home6/daewon2/Release/glibc/SP/SP_Linux/LP_Linux_Prj/REL/VDLinux.3.x.2012/toolchain/src/arm-mips-src-20121018/build.arm.cortex-a15/obj/glibc_0_final/libc_pic.a(forward.os)

.ARM.exidx.text.pthread_setcancelstate
                0x0000000000000000        0x8
 .ARM.exidx.text.pthread_setcancelstate
                0x0000000000000000        0x8 /home6/daewon2/Release/glibc/SP/SP_Linux/LP_Linux_Prj/REL/VDLinux.3.x.2012/toolchain/src/arm-mips-src-20121018/build.arm.cortex-a15/obj/glibc_0_final/libc_pic.a(forward.os)

.ARM.extab.text.pthread_setcanceltype
                0x0000000000000000        0xc
 .ARM.extab.text.pthread_setcanceltype
                0x0000000000000000        0xc /home6/daewon2/Release/glibc/SP/SP_Linux/LP_Linux_Prj/REL/VDLinux.3.x.2012/toolchain/src/arm-mips-src-20121018/build.arm.cortex-a15/obj/glibc_0_final/libc_pic.a(forward.os)

.ARM.exidx.text.pthread_setcanceltype
                0x0000000000000000        0x8
 .ARM.exidx.text.pthread_setcanceltype
                0x0000000000000000        0x8 /home6/daewon2/Release/glibc/SP/SP_Linux/LP_Linux_Prj/REL/VDLinux.3.x.2012/toolchain/src/arm-mips-src-20121018/build.arm.cortex-a15/obj/glibc_0_final/libc_pic.a(forward.os)

.ARM.extab.text.compat
                0x0000000000000000        0x0
 .ARM.extab.text.compat
                0x0000000000000000        0x0 /home6/daewon2/Release/glibc/SP/SP_Linux/LP_Linux_Prj/REL/VDLinux.3.x.2012/toolchain/src/arm-mips-src-20121018/build.arm.cortex-a15/obj/glibc_0_final/libc_pic.a(forward.os)

.ARM.exidx.text.compat
                0x0000000000000000        0x8
 .ARM.exidx.text.compat
                0x0000000000000000        0x8 /home6/daewon2/Release/glibc/SP/SP_Linux/LP_Linux_Prj/REL/VDLinux.3.x.2012/toolchain/src/arm-mips-src-20121018/build.arm.cortex-a15/obj/glibc_0_final/libc_pic.a(forward.os)

.ARM.extab.text.__run_exit_handlers
                0x0000000000000000        0x0
 .ARM.extab.text.__run_exit_handlers
                0x0000000000000000        0x0 /home6/daewon2/Release/glibc/SP/SP_Linux/LP_Linux_Prj/REL/VDLinux.3.x.2012/toolchain/src/arm-mips-src-20121018/build.arm.cortex-a15/obj/glibc_0_final/libc_pic.a(exit.os)

.ARM.exidx.text.__run_exit_handlers
                0x0000000000000000        0x8
 .ARM.exidx.text.__run_exit_handlers
                0x0000000000000000        0x8 /home6/daewon2/Release/glibc/SP/SP_Linux/LP_Linux_Prj/REL/VDLinux.3.x.2012/toolchain/src/arm-mips-src-20121018/build.arm.cortex-a15/obj/glibc_0_final/libc_pic.a(exit.os)

.ARM.extab.text.__GI_exit
                0x0000000000000000        0xc
 .ARM.extab.text.__GI_exit
                0x0000000000000000        0xc /home6/daewon2/Release/glibc/SP/SP_Linux/LP_Linux_Prj/REL/VDLinux.3.x.2012/toolchain/src/arm-mips-src-20121018/build.arm.cortex-a15/obj/glibc_0_final/libc_pic.a(exit.os)

.ARM.exidx.text.__GI_exit
                0x0000000000000000        0x8
 .ARM.exidx.text.__GI_exit
                0x0000000000000000        0x8 /home6/daewon2/Release/glibc/SP/SP_Linux/LP_Linux_Prj/REL/VDLinux.3.x.2012/toolchain/src/arm-mips-src-20121018/build.arm.cortex-a15/obj/glibc_0_final/libc_pic.a(exit.os)

.ARM.extab.text.__new_exitfn
                0x0000000000000000        0x0
 .ARM.extab.text.__new_exitfn
                0x0000000000000000        0x0 /home6/daewon2/Release/glibc/SP/SP_Linux/LP_Linux_Prj/REL/VDLinux.3.x.2012/toolchain/src/arm-mips-src-20121018/build.arm.cortex-a15/obj/glibc_0_final/libc_pic.a(cxa_atexit.os)

.ARM.exidx.text.__new_exitfn
                0x0000000000000000        0x8
 .ARM.exidx.text.__new_exitfn
                0x0000000000000000        0x8 /home6/daewon2/Release/glibc/SP/SP_Linux/LP_Linux_Prj/REL/VDLinux.3.x.2012/toolchain/src/arm-mips-src-20121018/build.arm.cortex-a15/obj/glibc_0_final/libc_pic.a(cxa_atexit.os)

.ARM.extab.text.__internal_atexit
                0x0000000000000000        0x0
 .ARM.extab.text.__internal_atexit
                0x0000000000000000        0x0 /home6/daewon2/Release/glibc/SP/SP_Linux/LP_Linux_Prj/REL/VDLinux.3.x.2012/toolchain/src/arm-mips-src-20121018/build.arm.cortex-a15/obj/glibc_0_final/libc_pic.a(cxa_atexit.os)

.ARM.exidx.text.__internal_atexit
                0x0000000000000000        0x8
 .ARM.exidx.text.__internal_atexit
                0x0000000000000000        0x8 /home6/daewon2/Release/glibc/SP/SP_Linux/LP_Linux_Prj/REL/VDLinux.3.x.2012/toolchain/src/arm-mips-src-20121018/build.arm.cortex-a15/obj/glibc_0_final/libc_pic.a(cxa_atexit.os)

.ARM.extab.text.__cxa_atexit
                0x0000000000000000        0x0
 .ARM.extab.text.__cxa_atexit
                0x0000000000000000        0x0 /home6/daewon2/Release/glibc/SP/SP_Linux/LP_Linux_Prj/REL/VDLinux.3.x.2012/toolchain/src/arm-mips-src-20121018/build.arm.cortex-a15/obj/glibc_0_final/libc_pic.a(cxa_atexit.os)

.ARM.exidx.text.__cxa_atexit
                0x0000000000000000        0x8
 .ARM.exidx.text.__cxa_atexit
                0x0000000000000000        0x8 /home6/daewon2/Release/glibc/SP/SP_Linux/LP_Linux_Prj/REL/VDLinux.3.x.2012/toolchain/src/arm-mips-src-20121018/build.arm.cortex-a15/obj/glibc_0_final/libc_pic.a(cxa_atexit.os)

.ARM.extab.text.__gnu_ldivmod_helper
                0x0000000000000000        0x0
 .ARM.extab.text.__gnu_ldivmod_helper
                0x0000000000000000        0x0 /home6/daewon2/Release/glibc/SP/SP_Linux/LP_Linux_Prj/REL/VDLinux.3.x.2012/toolchain/src/arm-mips-src-20121018/scripts/arm-v7a15v3r1/lib/gcc/arm-v7a15v3r1-linux-gnueabi/4.6.4/libgcc.a(bpabi.o)

.ARM.exidx.text.__gnu_ldivmod_helper
                0x0000000000000000        0x8
 .ARM.exidx.text.__gnu_ldivmod_helper
                0x0000000000000000        0x8 /home6/daewon2/Release/glibc/SP/SP_Linux/LP_Linux_Prj/REL/VDLinux.3.x.2012/toolchain/src/arm-mips-src-20121018/scripts/arm-v7a15v3r1/lib/gcc/arm-v7a15v3r1-linux-gnueabi/4.6.4/libgcc.a(bpabi.o)

.ARM.extab.text.__gnu_uldivmod_helper
                0x0000000000000000        0x0
 .ARM.extab.text.__gnu_uldivmod_helper
                0x0000000000000000        0x0 /home6/daewon2/Release/glibc/SP/SP_Linux/LP_Linux_Prj/REL/VDLinux.3.x.2012/toolchain/src/arm-mips-src-20121018/scripts/arm-v7a15v3r1/lib/gcc/arm-v7a15v3r1-linux-gnueabi/4.6.4/libgcc.a(bpabi.o)

.ARM.exidx.text.__gnu_uldivmod_helper
                0x0000000000000000        0x8
 .ARM.exidx.text.__gnu_uldivmod_helper
                0x0000000000000000        0x8 /home6/daewon2/Release/glibc/SP/SP_Linux/LP_Linux_Prj/REL/VDLinux.3.x.2012/toolchain/src/arm-mips-src-20121018/scripts/arm-v7a15v3r1/lib/gcc/arm-v7a15v3r1-linux-gnueabi/4.6.4/libgcc.a(bpabi.o)

.ARM.extab.text.__GI_raise
                0x0000000000000000        0x0
 .ARM.extab.text.__GI_raise
                0x0000000000000000        0x0 /home6/daewon2/Release/glibc/SP/SP_Linux/LP_Linux_Prj/REL/VDLinux.3.x.2012/toolchain/src/arm-mips-src-20121018/build.arm.cortex-a15/obj/glibc_0_final/libc_pic.a(raise.os)

.ARM.exidx.text.__GI_raise
                0x0000000000000000        0x8
 .ARM.exidx.text.__GI_raise
                0x0000000000000000        0x8 /home6/daewon2/Release/glibc/SP/SP_Linux/LP_Linux_Prj/REL/VDLinux.3.x.2012/toolchain/src/arm-mips-src-20121018/build.arm.cortex-a15/obj/glibc_0_final/libc_pic.a(raise.os)

.rodata1
 *(.rodata1)

.ARM.extab      0x0000000000000000       0xa8
 *(.ARM.extab)
 .ARM.extab     0x0000000000000000       0x18 /home6/daewon2/Release/glibc/SP/SP_Linux/LP_Linux_Prj/REL/VDLinux.3.x.2012/toolchain/src/arm-mips-src-20121018/build.arm.cortex-a15/obj/glibc_0_final/elf/dl-allobjs.os
 .ARM.extab     0x0000000000000018        0x0 /home6/daewon2/Release/glibc/SP/SP_Linux/LP_Linux_Prj/REL/VDLinux.3.x.2012/toolchain/src/arm-mips-src-20121018/build.arm.cortex-a15/obj/glibc_0_final/libc_pic.a(uname.os)
 .ARM.extab     0x0000000000000018       0x18 /home6/daewon2/Release/glibc/SP/SP_Linux/LP_Linux_Prj/REL/VDLinux.3.x.2012/toolchain/src/arm-mips-src-20121018/build.arm.cortex-a15/obj/glibc_0_final/libc_pic.a(open.os)
 .ARM.extab     0x0000000000000030       0x18 /home6/daewon2/Release/glibc/SP/SP_Linux/LP_Linux_Prj/REL/VDLinux.3.x.2012/toolchain/src/arm-mips-src-20121018/build.arm.cortex-a15/obj/glibc_0_final/libc_pic.a(close.os)
 .ARM.extab     0x0000000000000048       0x18 /home6/daewon2/Release/glibc/SP/SP_Linux/LP_Linux_Prj/REL/VDLinux.3.x.2012/toolchain/src/arm-mips-src-20121018/build.arm.cortex-a15/obj/glibc_0_final/libc_pic.a(read.os)
 .ARM.extab     0x0000000000000060       0x18 /home6/daewon2/Release/glibc/SP/SP_Linux/LP_Linux_Prj/REL/VDLinux.3.x.2012/toolchain/src/arm-mips-src-20121018/build.arm.cortex-a15/obj/glibc_0_final/libc_pic.a(write.os)
 .ARM.extab     0x0000000000000078        0x0 /home6/daewon2/Release/glibc/SP/SP_Linux/LP_Linux_Prj/REL/VDLinux.3.x.2012/toolchain/src/arm-mips-src-20121018/build.arm.cortex-a15/obj/glibc_0_final/libc_pic.a(lseek.os)
 .ARM.extab     0x0000000000000078        0x0 /home6/daewon2/Release/glibc/SP/SP_Linux/LP_Linux_Prj/REL/VDLinux.3.x.2012/toolchain/src/arm-mips-src-20121018/build.arm.cortex-a15/obj/glibc_0_final/libc_pic.a(access.os)
 .ARM.extab     0x0000000000000078        0x0 /home6/daewon2/Release/glibc/SP/SP_Linux/LP_Linux_Prj/REL/VDLinux.3.x.2012/toolchain/src/arm-mips-src-20121018/build.arm.cortex-a15/obj/glibc_0_final/libc_pic.a(mmap.os)
 .ARM.extab     0x0000000000000078        0x0 /home6/daewon2/Release/glibc/SP/SP_Linux/LP_Linux_Prj/REL/VDLinux.3.x.2012/toolchain/src/arm-mips-src-20121018/build.arm.cortex-a15/obj/glibc_0_final/libc_pic.a(munmap.os)
 .ARM.extab     0x0000000000000078        0x0 /home6/daewon2/Release/glibc/SP/SP_Linux/LP_Linux_Prj/REL/VDLinux.3.x.2012/toolchain/src/arm-mips-src-20121018/build.arm.cortex-a15/obj/glibc_0_final/libc_pic.a(mprotect.os)
 .ARM.extab     0x0000000000000078       0x30 /home6/daewon2/Release/glibc/SP/SP_Linux/LP_Linux_Prj/REL/VDLinux.3.x.2012/toolchain/src/arm-mips-src-20121018/build.arm.cortex-a15/obj/glibc_0_final/libc_pic.a(sigrestorer.os)
 .ARM.extab     0x00000000000000a8        0x0 /home6/daewon2/Release/glibc/SP/SP_Linux/LP_Linux_Prj/REL/VDLinux.3.x.2012/toolchain/src/arm-mips-src-20121018/build.arm.cortex-a15/obj/glibc_0_final/libc_pic.a(setitimer.os)

.ARM.exidx      0x0000000000000000      0x100
 *(.ARM.exidx)
 .ARM.exidx     0x0000000000000000       0x28 /home6/daewon2/Release/glibc/SP/SP_Linux/LP_Linux_Prj/REL/VDLinux.3.x.2012/toolchain/src/arm-mips-src-20121018/build.arm.cortex-a15/obj/glibc_0_final/elf/dl-allobjs.os
 .ARM.exidx     0x0000000000000028        0x8 /home6/daewon2/Release/glibc/SP/SP_Linux/LP_Linux_Prj/REL/VDLinux.3.x.2012/toolchain/src/arm-mips-src-20121018/build.arm.cortex-a15/obj/glibc_0_final/libc_pic.a(uname.os)
 .ARM.exidx     0x0000000000000030       0x20 /home6/daewon2/Release/glibc/SP/SP_Linux/LP_Linux_Prj/REL/VDLinux.3.x.2012/toolchain/src/arm-mips-src-20121018/build.arm.cortex-a15/obj/glibc_0_final/libc_pic.a(open.os)
 .ARM.exidx     0x0000000000000050       0x20 /home6/daewon2/Release/glibc/SP/SP_Linux/LP_Linux_Prj/REL/VDLinux.3.x.2012/toolchain/src/arm-mips-src-20121018/build.arm.cortex-a15/obj/glibc_0_final/libc_pic.a(close.os)
 .ARM.exidx     0x0000000000000070       0x20 /home6/daewon2/Release/glibc/SP/SP_Linux/LP_Linux_Prj/REL/VDLinux.3.x.2012/toolchain/src/arm-mips-src-20121018/build.arm.cortex-a15/obj/glibc_0_final/libc_pic.a(read.os)
 .ARM.exidx     0x0000000000000090       0x20 /home6/daewon2/Release/glibc/SP/SP_Linux/LP_Linux_Prj/REL/VDLinux.3.x.2012/toolchain/src/arm-mips-src-20121018/build.arm.cortex-a15/obj/glibc_0_final/libc_pic.a(write.os)
 .ARM.exidx     0x00000000000000b0        0x8 /home6/daewon2/Release/glibc/SP/SP_Linux/LP_Linux_Prj/REL/VDLinux.3.x.2012/toolchain/src/arm-mips-src-20121018/build.arm.cortex-a15/obj/glibc_0_final/libc_pic.a(lseek.os)
 .ARM.exidx     0x00000000000000b8        0x8 /home6/daewon2/Release/glibc/SP/SP_Linux/LP_Linux_Prj/REL/VDLinux.3.x.2012/toolchain/src/arm-mips-src-20121018/build.arm.cortex-a15/obj/glibc_0_final/libc_pic.a(access.os)
 .ARM.exidx     0x00000000000000c0        0x8 /home6/daewon2/Release/glibc/SP/SP_Linux/LP_Linux_Prj/REL/VDLinux.3.x.2012/toolchain/src/arm-mips-src-20121018/build.arm.cortex-a15/obj/glibc_0_final/libc_pic.a(mmap.os)
 .ARM.exidx     0x00000000000000c8        0x8 /home6/daewon2/Release/glibc/SP/SP_Linux/LP_Linux_Prj/REL/VDLinux.3.x.2012/toolchain/src/arm-mips-src-20121018/build.arm.cortex-a15/obj/glibc_0_final/libc_pic.a(munmap.os)
 .ARM.exidx     0x00000000000000d0        0x8 /home6/daewon2/Release/glibc/SP/SP_Linux/LP_Linux_Prj/REL/VDLinux.3.x.2012/toolchain/src/arm-mips-src-20121018/build.arm.cortex-a15/obj/glibc_0_final/libc_pic.a(mprotect.os)
 .ARM.exidx     0x00000000000000d8       0x20 /home6/daewon2/Release/glibc/SP/SP_Linux/LP_Linux_Prj/REL/VDLinux.3.x.2012/toolchain/src/arm-mips-src-20121018/build.arm.cortex-a15/obj/glibc_0_final/libc_pic.a(sigrestorer.os)
 .ARM.exidx     0x00000000000000f8        0x8 /home6/daewon2/Release/glibc/SP/SP_Linux/LP_Linux_Prj/REL/VDLinux.3.x.2012/toolchain/src/arm-mips-src-20121018/build.arm.cortex-a15/obj/glibc_0_final/libc_pic.a(setitimer.os)

.eh_frame_hdr
 *(.eh_frame_hdr)

.eh_frame
 *(.eh_frame)

.gcc_except_table
 *(.gcc_except_table .gcc_except_table.*)

.exception_ranges
 *(.exception_ranges .exception_ranges*)

.eh_frame
 *(.eh_frame)

.gcc_except_table
 *(.gcc_except_table .gcc_except_table.*)

.exception_ranges
 *(.exception_ranges .exception_ranges*)

.tdata
 *(.tdata)

.tbss           0x0000000000000000        0x4
 *(.tbss)
 .tbss          0x0000000000000000        0x4 /home6/daewon2/Release/glibc/SP/SP_Linux/LP_Linux_Prj/REL/VDLinux.3.x.2012/toolchain/src/arm-mips-src-20121018/build.arm.cortex-a15/obj/glibc_0_final/libc_pic.a(errno.os)
                0x0000000000000000                errno
                0x0000000000000000                __libc_errno

.preinit_array
 *(.preinit_array)

.jcr
 *(.jcr)

.dynamic
 *(.dynamic)

.got
 *(.got.plt)
 *(.igot.plt)
 *(.got)
 *(.igot)

.data           0x0000000000000000      0x830
 *(.data)
 .data          0x0000000000000000      0x830 /home6/daewon2/Release/glibc/SP/SP_Linux/LP_Linux_Prj/REL/VDLinux.3.x.2012/toolchain/src/arm-mips-src-20121018/build.arm.cortex-a15/obj/glibc_0_final/elf/dl-allobjs.os
                0x0000000000000000                _rtld_global
                0x0000000000000000                _rtld_local
 .data          0x0000000000000830        0x0 /home6/daewon2/Release/glibc/SP/SP_Linux/LP_Linux_Prj/REL/VDLinux.3.x.2012/toolchain/src/arm-mips-src-20121018/build.arm.cortex-a15/obj/glibc_0_final/libc_pic.a(check_fds.os)
 .data          0x0000000000000830        0x0 /home6/daewon2/Release/glibc/SP/SP_Linux/LP_Linux_Prj/REL/VDLinux.3.x.2012/toolchain/src/arm-mips-src-20121018/build.arm.cortex-a15/obj/glibc_0_final/libc_pic.a(errno.os)
 .data          0x0000000000000830        0x0 /home6/daewon2/Release/glibc/SP/SP_Linux/LP_Linux_Prj/REL/VDLinux.3.x.2012/toolchain/src/arm-mips-src-20121018/build.arm.cortex-a15/obj/glibc_0_final/libc_pic.a(divdi3.os)
 .data          0x0000000000000830        0x0 /home6/daewon2/Release/glibc/SP/SP_Linux/LP_Linux_Prj/REL/VDLinux.3.x.2012/toolchain/src/arm-mips-src-20121018/build.arm.cortex-a15/obj/glibc_0_final/libc_pic.a(setjmp.os)
 .data          0x0000000000000830        0x0 /home6/daewon2/Release/glibc/SP/SP_Linux/LP_Linux_Prj/REL/VDLinux.3.x.2012/toolchain/src/arm-mips-src-20121018/build.arm.cortex-a15/obj/glibc_0_final/libc_pic.a(__longjmp.os)
 .data          0x0000000000000830        0x0 /home6/daewon2/Release/glibc/SP/SP_Linux/LP_Linux_Prj/REL/VDLinux.3.x.2012/toolchain/src/arm-mips-src-20121018/build.arm.cortex-a15/obj/glibc_0_final/libc_pic.a(strchr.os)
 .data          0x0000000000000830        0x0 /home6/daewon2/Release/glibc/SP/SP_Linux/LP_Linux_Prj/REL/VDLinux.3.x.2012/toolchain/src/arm-mips-src-20121018/build.arm.cortex-a15/obj/glibc_0_final/libc_pic.a(strcmp.os)
 .data          0x0000000000000830        0x0 /home6/daewon2/Release/glibc/SP/SP_Linux/LP_Linux_Prj/REL/VDLinux.3.x.2012/toolchain/src/arm-mips-src-20121018/build.arm.cortex-a15/obj/glibc_0_final/libc_pic.a(strcpy.os)
 .data          0x0000000000000830        0x0 /home6/daewon2/Release/glibc/SP/SP_Linux/LP_Linux_Prj/REL/VDLinux.3.x.2012/toolchain/src/arm-mips-src-20121018/build.arm.cortex-a15/obj/glibc_0_final/libc_pic.a(strlen.os)
 .data          0x0000000000000830        0x0 /home6/daewon2/Release/glibc/SP/SP_Linux/LP_Linux_Prj/REL/VDLinux.3.x.2012/toolchain/src/arm-mips-src-20121018/build.arm.cortex-a15/obj/glibc_0_final/libc_pic.a(strnlen.os)
 .data          0x0000000000000830        0x0 /home6/daewon2/Release/glibc/SP/SP_Linux/LP_Linux_Prj/REL/VDLinux.3.x.2012/toolchain/src/arm-mips-src-20121018/build.arm.cortex-a15/obj/glibc_0_final/libc_pic.a(memchr.os)
 .data          0x0000000000000830        0x0 /home6/daewon2/Release/glibc/SP/SP_Linux/LP_Linux_Prj/REL/VDLinux.3.x.2012/toolchain/src/arm-mips-src-20121018/build.arm.cortex-a15/obj/glibc_0_final/libc_pic.a(memcmp.os)
 .data          0x0000000000000830        0x0 /home6/daewon2/Release/glibc/SP/SP_Linux/LP_Linux_Prj/REL/VDLinux.3.x.2012/toolchain/src/arm-mips-src-20121018/build.arm.cortex-a15/obj/glibc_0_final/libc_pic.a(memmove.os)
 .data          0x0000000000000830        0x0 /home6/daewon2/Release/glibc/SP/SP_Linux/LP_Linux_Prj/REL/VDLinux.3.x.2012/toolchain/src/arm-mips-src-20121018/build.arm.cortex-a15/obj/glibc_0_final/libc_pic.a(memset.os)
 .data          0x0000000000000830        0x0 /home6/daewon2/Release/glibc/SP/SP_Linux/LP_Linux_Prj/REL/VDLinux.3.x.2012/toolchain/src/arm-mips-src-20121018/build.arm.cortex-a15/obj/glibc_0_final/libc_pic.a(mempcpy.os)
 .data          0x0000000000000830        0x0 /home6/daewon2/Release/glibc/SP/SP_Linux/LP_Linux_Prj/REL/VDLinux.3.x.2012/toolchain/src/arm-mips-src-20121018/build.arm.cortex-a15/obj/glibc_0_final/libc_pic.a(stpcpy.os)
 .data          0x0000000000000830        0x0 /home6/daewon2/Release/glibc/SP/SP_Linux/LP_Linux_Prj/REL/VDLinux.3.x.2012/toolchain/src/arm-mips-src-20121018/build.arm.cortex-a15/obj/glibc_0_final/libc_pic.a(memcpy.os)
 .data          0x0000000000000830        0x0 /home6/daewon2/Release/glibc/SP/SP_Linux/LP_Linux_Prj/REL/VDLinux.3.x.2012/toolchain/src/arm-mips-src-20121018/build.arm.cortex-a15/obj/glibc_0_final/libc_pic.a(wordcopy.os)
 .data          0x0000000000000830        0x0 /home6/daewon2/Release/glibc/SP/SP_Linux/LP_Linux_Prj/REL/VDLinux.3.x.2012/toolchain/src/arm-mips-src-20121018/build.arm.cortex-a15/obj/glibc_0_final/libc_pic.a(rawmemchr.os)
 .data          0x0000000000000830        0x0 /home6/daewon2/Release/glibc/SP/SP_Linux/LP_Linux_Prj/REL/VDLinux.3.x.2012/toolchain/src/arm-mips-src-20121018/build.arm.cortex-a15/obj/glibc_0_final/libc_pic.a(closedir.os)
 .data          0x0000000000000830        0x0 /home6/daewon2/Release/glibc/SP/SP_Linux/LP_Linux_Prj/REL/VDLinux.3.x.2012/toolchain/src/arm-mips-src-20121018/build.arm.cortex-a15/obj/glibc_0_final/libc_pic.a(readdir.os)
 .data          0x0000000000000830        0x0 /home6/daewon2/Release/glibc/SP/SP_Linux/LP_Linux_Prj/REL/VDLinux.3.x.2012/toolchain/src/arm-mips-src-20121018/build.arm.cortex-a15/obj/glibc_0_final/libc_pic.a(rewinddir.os)
 .data          0x0000000000000830        0x0 /home6/daewon2/Release/glibc/SP/SP_Linux/LP_Linux_Prj/REL/VDLinux.3.x.2012/toolchain/src/arm-mips-src-20121018/build.arm.cortex-a15/obj/glibc_0_final/libc_pic.a(getdents.os)
 .data          0x0000000000000830        0x0 /home6/daewon2/Release/glibc/SP/SP_Linux/LP_Linux_Prj/REL/VDLinux.3.x.2012/toolchain/src/arm-mips-src-20121018/build.arm.cortex-a15/obj/glibc_0_final/libc_pic.a(fdopendir.os)
 .data          0x0000000000000830        0x0 /home6/daewon2/Release/glibc/SP/SP_Linux/LP_Linux_Prj/REL/VDLinux.3.x.2012/toolchain/src/arm-mips-src-20121018/build.arm.cortex-a15/obj/glibc_0_final/libc_pic.a(uname.os)
 .data          0x0000000000000830        0x0 /home6/daewon2/Release/glibc/SP/SP_Linux/LP_Linux_Prj/REL/VDLinux.3.x.2012/toolchain/src/arm-mips-src-20121018/build.arm.cortex-a15/obj/glibc_0_final/libc_pic.a(_exit.os)
 .data          0x0000000000000830        0x0 /home6/daewon2/Release/glibc/SP/SP_Linux/LP_Linux_Prj/REL/VDLinux.3.x.2012/toolchain/src/arm-mips-src-20121018/build.arm.cortex-a15/obj/glibc_0_final/libc_pic.a(getpid.os)
 .data          0x0000000000000830        0x0 /home6/daewon2/Release/glibc/SP/SP_Linux/LP_Linux_Prj/REL/VDLinux.3.x.2012/toolchain/src/arm-mips-src-20121018/build.arm.cortex-a15/obj/glibc_0_final/libc_pic.a(environ.os)
 .data          0x0000000000000830        0x0 /home6/daewon2/Release/glibc/SP/SP_Linux/LP_Linux_Prj/REL/VDLinux.3.x.2012/toolchain/src/arm-mips-src-20121018/build.arm.cortex-a15/obj/glibc_0_final/libc_pic.a(xstat64.os)
 .data          0x0000000000000830        0x0 /home6/daewon2/Release/glibc/SP/SP_Linux/LP_Linux_Prj/REL/VDLinux.3.x.2012/toolchain/src/arm-mips-src-20121018/build.arm.cortex-a15/obj/glibc_0_final/libc_pic.a(fxstat64.os)
 .data          0x0000000000000830        0x0 /home6/daewon2/Release/glibc/SP/SP_Linux/LP_Linux_Prj/REL/VDLinux.3.x.2012/toolchain/src/arm-mips-src-20121018/build.arm.cortex-a15/obj/glibc_0_final/libc_pic.a(lxstat64.os)
 .data          0x0000000000000830        0x0 /home6/daewon2/Release/glibc/SP/SP_Linux/LP_Linux_Prj/REL/VDLinux.3.x.2012/toolchain/src/arm-mips-src-20121018/build.arm.cortex-a15/obj/glibc_0_final/libc_pic.a(open.os)
 .data          0x0000000000000830        0x0 /home6/daewon2/Release/glibc/SP/SP_Linux/LP_Linux_Prj/REL/VDLinux.3.x.2012/toolchain/src/arm-mips-src-20121018/build.arm.cortex-a15/obj/glibc_0_final/libc_pic.a(close.os)
 .data          0x0000000000000830        0x0 /home6/daewon2/Release/glibc/SP/SP_Linux/LP_Linux_Prj/REL/VDLinux.3.x.2012/toolchain/src/arm-mips-src-20121018/build.arm.cortex-a15/obj/glibc_0_final/libc_pic.a(read.os)
 .data          0x0000000000000830        0x0 /home6/daewon2/Release/glibc/SP/SP_Linux/LP_Linux_Prj/REL/VDLinux.3.x.2012/toolchain/src/arm-mips-src-20121018/build.arm.cortex-a15/obj/glibc_0_final/libc_pic.a(write.os)
 .data          0x0000000000000830        0x0 /home6/daewon2/Release/glibc/SP/SP_Linux/LP_Linux_Prj/REL/VDLinux.3.x.2012/toolchain/src/arm-mips-src-20121018/build.arm.cortex-a15/obj/glibc_0_final/libc_pic.a(lseek.os)
 .data          0x0000000000000830        0x0 /home6/daewon2/Release/glibc/SP/SP_Linux/LP_Linux_Prj/REL/VDLinux.3.x.2012/toolchain/src/arm-mips-src-20121018/build.arm.cortex-a15/obj/glibc_0_final/libc_pic.a(access.os)
 .data          0x0000000000000830        0x0 /home6/daewon2/Release/glibc/SP/SP_Linux/LP_Linux_Prj/REL/VDLinux.3.x.2012/toolchain/src/arm-mips-src-20121018/build.arm.cortex-a15/obj/glibc_0_final/libc_pic.a(fcntl.os)
 .data          0x0000000000000830        0x0 /home6/daewon2/Release/glibc/SP/SP_Linux/LP_Linux_Prj/REL/VDLinux.3.x.2012/toolchain/src/arm-mips-src-20121018/build.arm.cortex-a15/obj/glibc_0_final/libc_pic.a(getpagesize.os)
 .data          0x0000000000000830        0x0 /home6/daewon2/Release/glibc/SP/SP_Linux/LP_Linux_Prj/REL/VDLinux.3.x.2012/toolchain/src/arm-mips-src-20121018/build.arm.cortex-a15/obj/glibc_0_final/libc_pic.a(mmap.os)
 .data          0x0000000000000830        0x0 /home6/daewon2/Release/glibc/SP/SP_Linux/LP_Linux_Prj/REL/VDLinux.3.x.2012/toolchain/src/arm-mips-src-20121018/build.arm.cortex-a15/obj/glibc_0_final/libc_pic.a(munmap.os)
 .data          0x0000000000000830        0x0 /home6/daewon2/Release/glibc/SP/SP_Linux/LP_Linux_Prj/REL/VDLinux.3.x.2012/toolchain/src/arm-mips-src-20121018/build.arm.cortex-a15/obj/glibc_0_final/libc_pic.a(mprotect.os)
 .data          0x0000000000000830        0x0 /home6/daewon2/Release/glibc/SP/SP_Linux/LP_Linux_Prj/REL/VDLinux.3.x.2012/toolchain/src/arm-mips-src-20121018/build.arm.cortex-a15/obj/glibc_0_final/libc_pic.a(profil.os)
 .data          0x0000000000000830        0x0 /home6/daewon2/Release/glibc/SP/SP_Linux/LP_Linux_Prj/REL/VDLinux.3.x.2012/toolchain/src/arm-mips-src-20121018/build.arm.cortex-a15/obj/glibc_0_final/libc_pic.a(prof-freq.os)
 .data          0x0000000000000830        0x0 /home6/daewon2/Release/glibc/SP/SP_Linux/LP_Linux_Prj/REL/VDLinux.3.x.2012/toolchain/src/arm-mips-src-20121018/build.arm.cortex-a15/obj/glibc_0_final/libc_pic.a(libc-lowlevellock.os)
 .data          0x0000000000000830        0x0 /home6/daewon2/Release/glibc/SP/SP_Linux/LP_Linux_Prj/REL/VDLinux.3.x.2012/toolchain/src/arm-mips-src-20121018/build.arm.cortex-a15/obj/glibc_0_final/libc_pic.a(libc-cancellation.os)
 .data          0x0000000000000830        0x0 /home6/daewon2/Release/glibc/SP/SP_Linux/LP_Linux_Prj/REL/VDLinux.3.x.2012/toolchain/src/arm-mips-src-20121018/build.arm.cortex-a15/obj/glibc_0_final/libc_pic.a(libc_multiple_threads.os)
 .data          0x0000000000000830        0x0 /home6/daewon2/Release/glibc/SP/SP_Linux/LP_Linux_Prj/REL/VDLinux.3.x.2012/toolchain/src/arm-mips-src-20121018/build.arm.cortex-a15/obj/glibc_0_final/libc_pic.a(sysdep.os)
 .data          0x0000000000000830        0x0 /home6/daewon2/Release/glibc/SP/SP_Linux/LP_Linux_Prj/REL/VDLinux.3.x.2012/toolchain/src/arm-mips-src-20121018/build.arm.cortex-a15/obj/glibc_0_final/libc_pic.a(sigaction.os)
 .data          0x0000000000000830        0x0 /home6/daewon2/Release/glibc/SP/SP_Linux/LP_Linux_Prj/REL/VDLinux.3.x.2012/toolchain/src/arm-mips-src-20121018/build.arm.cortex-a15/obj/glibc_0_final/libc_pic.a(sigrestorer.os)
 .data          0x0000000000000830        0x0 /home6/daewon2/Release/glibc/SP/SP_Linux/LP_Linux_Prj/REL/VDLinux.3.x.2012/toolchain/src/arm-mips-src-20121018/build.arm.cortex-a15/obj/glibc_0_final/libc_pic.a(setitimer.os)
 .data          0x0000000000000830        0x0 /home6/daewon2/Release/glibc/SP/SP_Linux/LP_Linux_Prj/REL/VDLinux.3.x.2012/toolchain/src/arm-mips-src-20121018/build.arm.cortex-a15/obj/glibc_0_final/libc_pic.a(forward.os)
 .data          0x0000000000000830        0x0 /home6/daewon2/Release/glibc/SP/SP_Linux/LP_Linux_Prj/REL/VDLinux.3.x.2012/toolchain/src/arm-mips-src-20121018/build.arm.cortex-a15/obj/glibc_0_final/libc_pic.a(exit.os)
 .data          0x0000000000000830        0x0 /home6/daewon2/Release/glibc/SP/SP_Linux/LP_Linux_Prj/REL/VDLinux.3.x.2012/toolchain/src/arm-mips-src-20121018/build.arm.cortex-a15/obj/glibc_0_final/libc_pic.a(cxa_atexit.os)
 .data          0x0000000000000830        0x0 /home6/daewon2/Release/glibc/SP/SP_Linux/LP_Linux_Prj/REL/VDLinux.3.x.2012/toolchain/src/arm-mips-src-20121018/scripts/arm-v7a15v3r1/lib/gcc/arm-v7a15v3r1-linux-gnueabi/4.6.4/libgcc.a(_aeabi_uldivmod.o)
 .data          0x0000000000000830        0x0 /home6/daewon2/Release/glibc/SP/SP_Linux/LP_Linux_Prj/REL/VDLinux.3.x.2012/toolchain/src/arm-mips-src-20121018/scripts/arm-v7a15v3r1/lib/gcc/arm-v7a15v3r1-linux-gnueabi/4.6.4/libgcc.a(_dvmd_lnx.o)
 .data          0x0000000000000830        0x0 /home6/daewon2/Release/glibc/SP/SP_Linux/LP_Linux_Prj/REL/VDLinux.3.x.2012/toolchain/src/arm-mips-src-20121018/scripts/arm-v7a15v3r1/lib/gcc/arm-v7a15v3r1-linux-gnueabi/4.6.4/libgcc.a(bpabi.o)
 .data          0x0000000000000830        0x0 /home6/daewon2/Release/glibc/SP/SP_Linux/LP_Linux_Prj/REL/VDLinux.3.x.2012/toolchain/src/arm-mips-src-20121018/build.arm.cortex-a15/obj/glibc_0_final/libc_pic.a(raise.os)

.data.rel.ro    0x0000000000000000      0x1d8
 .data.rel.ro   0x0000000000000000      0x1d8 /home6/daewon2/Release/glibc/SP/SP_Linux/LP_Linux_Prj/REL/VDLinux.3.x.2012/toolchain/src/arm-mips-src-20121018/build.arm.cortex-a15/obj/glibc_0_final/elf/dl-allobjs.os
                0x0000000000000000                _dl_argc
                0x0000000000000004                __pointer_chk_guard
                0x0000000000000004                __pointer_chk_guard_local
                0x0000000000000058                _rtld_global_ro
                0x0000000000000058                _rtld_local_ro
                0x00000000000001a0                __stack_chk_guard
                0x00000000000001bc                __stack_prot
                0x00000000000001c8                __libc_stack_end
                0x00000000000001c8                __GI___libc_stack_end
                0x00000000000001d0                _dl_random
                0x00000000000001d4                __libc_enable_secure_internal
                0x00000000000001d4                __libc_enable_secure

.data.rel.local
                0x0000000000000000        0x4
 .data.rel.local
                0x0000000000000000        0x4 /home6/daewon2/Release/glibc/SP/SP_Linux/LP_Linux_Prj/REL/VDLinux.3.x.2012/toolchain/src/arm-mips-src-20121018/build.arm.cortex-a15/obj/glibc_0_final/libc_pic.a(cxa_atexit.os)
                0x0000000000000000                __exit_funcs

.data1
 *(.data1)

.bss            0x0000000000000000      0x370
 *(.dynbss)
 *(.bss)
 .bss           0x0000000000000000       0xb4 /home6/daewon2/Release/glibc/SP/SP_Linux/LP_Linux_Prj/REL/VDLinux.3.x.2012/toolchain/src/arm-mips-src-20121018/build.arm.cortex-a15/obj/glibc_0_final/elf/dl-allobjs.os
                0x000000000000003c                _dl_argv_internal
                0x000000000000003c                _dl_argv
                0x000000000000009c                __libc_multiple_libcs
                0x00000000000000ac                __curbrk
 .bss           0x00000000000000b4        0x0 /home6/daewon2/Release/glibc/SP/SP_Linux/LP_Linux_Prj/REL/VDLinux.3.x.2012/toolchain/src/arm-mips-src-20121018/build.arm.cortex-a15/obj/glibc_0_final/libc_pic.a(check_fds.os)
 .bss           0x00000000000000b4        0x0 /home6/daewon2/Release/glibc/SP/SP_Linux/LP_Linux_Prj/REL/VDLinux.3.x.2012/toolchain/src/arm-mips-src-20121018/build.arm.cortex-a15/obj/glibc_0_final/libc_pic.a(errno.os)
 .bss           0x00000000000000b4        0x0 /home6/daewon2/Release/glibc/SP/SP_Linux/LP_Linux_Prj/REL/VDLinux.3.x.2012/toolchain/src/arm-mips-src-20121018/build.arm.cortex-a15/obj/glibc_0_final/libc_pic.a(divdi3.os)
 .bss           0x00000000000000b4        0x0 /home6/daewon2/Release/glibc/SP/SP_Linux/LP_Linux_Prj/REL/VDLinux.3.x.2012/toolchain/src/arm-mips-src-20121018/build.arm.cortex-a15/obj/glibc_0_final/libc_pic.a(setjmp.os)
 .bss           0x00000000000000b4        0x0 /home6/daewon2/Release/glibc/SP/SP_Linux/LP_Linux_Prj/REL/VDLinux.3.x.2012/toolchain/src/arm-mips-src-20121018/build.arm.cortex-a15/obj/glibc_0_final/libc_pic.a(__longjmp.os)
 .bss           0x00000000000000b4        0x0 /home6/daewon2/Release/glibc/SP/SP_Linux/LP_Linux_Prj/REL/VDLinux.3.x.2012/toolchain/src/arm-mips-src-20121018/build.arm.cortex-a15/obj/glibc_0_final/libc_pic.a(strchr.os)
 .bss           0x00000000000000b4        0x0 /home6/daewon2/Release/glibc/SP/SP_Linux/LP_Linux_Prj/REL/VDLinux.3.x.2012/toolchain/src/arm-mips-src-20121018/build.arm.cortex-a15/obj/glibc_0_final/libc_pic.a(strcmp.os)
 .bss           0x00000000000000b4        0x0 /home6/daewon2/Release/glibc/SP/SP_Linux/LP_Linux_Prj/REL/VDLinux.3.x.2012/toolchain/src/arm-mips-src-20121018/build.arm.cortex-a15/obj/glibc_0_final/libc_pic.a(strcpy.os)
 .bss           0x00000000000000b4        0x0 /home6/daewon2/Release/glibc/SP/SP_Linux/LP_Linux_Prj/REL/VDLinux.3.x.2012/toolchain/src/arm-mips-src-20121018/build.arm.cortex-a15/obj/glibc_0_final/libc_pic.a(strlen.os)
 .bss           0x00000000000000b4        0x0 /home6/daewon2/Release/glibc/SP/SP_Linux/LP_Linux_Prj/REL/VDLinux.3.x.2012/toolchain/src/arm-mips-src-20121018/build.arm.cortex-a15/obj/glibc_0_final/libc_pic.a(strnlen.os)
 .bss           0x00000000000000b4        0x0 /home6/daewon2/Release/glibc/SP/SP_Linux/LP_Linux_Prj/REL/VDLinux.3.x.2012/toolchain/src/arm-mips-src-20121018/build.arm.cortex-a15/obj/glibc_0_final/libc_pic.a(memchr.os)
 .bss           0x00000000000000b4        0x0 /home6/daewon2/Release/glibc/SP/SP_Linux/LP_Linux_Prj/REL/VDLinux.3.x.2012/toolchain/src/arm-mips-src-20121018/build.arm.cortex-a15/obj/glibc_0_final/libc_pic.a(memcmp.os)
 .bss           0x00000000000000b4        0x0 /home6/daewon2/Release/glibc/SP/SP_Linux/LP_Linux_Prj/REL/VDLinux.3.x.2012/toolchain/src/arm-mips-src-20121018/build.arm.cortex-a15/obj/glibc_0_final/libc_pic.a(memmove.os)
 .bss           0x00000000000000b4        0x0 /home6/daewon2/Release/glibc/SP/SP_Linux/LP_Linux_Prj/REL/VDLinux.3.x.2012/toolchain/src/arm-mips-src-20121018/build.arm.cortex-a15/obj/glibc_0_final/libc_pic.a(memset.os)
 .bss           0x00000000000000b4        0x0 /home6/daewon2/Release/glibc/SP/SP_Linux/LP_Linux_Prj/REL/VDLinux.3.x.2012/toolchain/src/arm-mips-src-20121018/build.arm.cortex-a15/obj/glibc_0_final/libc_pic.a(mempcpy.os)
 .bss           0x00000000000000b4        0x0 /home6/daewon2/Release/glibc/SP/SP_Linux/LP_Linux_Prj/REL/VDLinux.3.x.2012/toolchain/src/arm-mips-src-20121018/build.arm.cortex-a15/obj/glibc_0_final/libc_pic.a(stpcpy.os)
 .bss           0x00000000000000b4        0x0 /home6/daewon2/Release/glibc/SP/SP_Linux/LP_Linux_Prj/REL/VDLinux.3.x.2012/toolchain/src/arm-mips-src-20121018/build.arm.cortex-a15/obj/glibc_0_final/libc_pic.a(memcpy.os)
 .bss           0x00000000000000b4        0x0 /home6/daewon2/Release/glibc/SP/SP_Linux/LP_Linux_Prj/REL/VDLinux.3.x.2012/toolchain/src/arm-mips-src-20121018/build.arm.cortex-a15/obj/glibc_0_final/libc_pic.a(wordcopy.os)
 .bss           0x00000000000000b4        0x0 /home6/daewon2/Release/glibc/SP/SP_Linux/LP_Linux_Prj/REL/VDLinux.3.x.2012/toolchain/src/arm-mips-src-20121018/build.arm.cortex-a15/obj/glibc_0_final/libc_pic.a(rawmemchr.os)
 .bss           0x00000000000000b4        0x0 /home6/daewon2/Release/glibc/SP/SP_Linux/LP_Linux_Prj/REL/VDLinux.3.x.2012/toolchain/src/arm-mips-src-20121018/build.arm.cortex-a15/obj/glibc_0_final/libc_pic.a(closedir.os)
 .bss           0x00000000000000b4        0x0 /home6/daewon2/Release/glibc/SP/SP_Linux/LP_Linux_Prj/REL/VDLinux.3.x.2012/toolchain/src/arm-mips-src-20121018/build.arm.cortex-a15/obj/glibc_0_final/libc_pic.a(readdir.os)
 .bss           0x00000000000000b4        0x0 /home6/daewon2/Release/glibc/SP/SP_Linux/LP_Linux_Prj/REL/VDLinux.3.x.2012/toolchain/src/arm-mips-src-20121018/build.arm.cortex-a15/obj/glibc_0_final/libc_pic.a(rewinddir.os)
 .bss           0x00000000000000b4        0x0 /home6/daewon2/Release/glibc/SP/SP_Linux/LP_Linux_Prj/REL/VDLinux.3.x.2012/toolchain/src/arm-mips-src-20121018/build.arm.cortex-a15/obj/glibc_0_final/libc_pic.a(getdents.os)
 .bss           0x00000000000000b4        0x0 /home6/daewon2/Release/glibc/SP/SP_Linux/LP_Linux_Prj/REL/VDLinux.3.x.2012/toolchain/src/arm-mips-src-20121018/build.arm.cortex-a15/obj/glibc_0_final/libc_pic.a(fdopendir.os)
 .bss           0x00000000000000b4        0x0 /home6/daewon2/Release/glibc/SP/SP_Linux/LP_Linux_Prj/REL/VDLinux.3.x.2012/toolchain/src/arm-mips-src-20121018/build.arm.cortex-a15/obj/glibc_0_final/libc_pic.a(uname.os)
 .bss           0x00000000000000b4        0x0 /home6/daewon2/Release/glibc/SP/SP_Linux/LP_Linux_Prj/REL/VDLinux.3.x.2012/toolchain/src/arm-mips-src-20121018/build.arm.cortex-a15/obj/glibc_0_final/libc_pic.a(_exit.os)
 .bss           0x00000000000000b4        0x0 /home6/daewon2/Release/glibc/SP/SP_Linux/LP_Linux_Prj/REL/VDLinux.3.x.2012/toolchain/src/arm-mips-src-20121018/build.arm.cortex-a15/obj/glibc_0_final/libc_pic.a(getpid.os)
 .bss           0x00000000000000b4        0x4 /home6/daewon2/Release/glibc/SP/SP_Linux/LP_Linux_Prj/REL/VDLinux.3.x.2012/toolchain/src/arm-mips-src-20121018/build.arm.cortex-a15/obj/glibc_0_final/libc_pic.a(environ.os)
                0x00000000000000b4                _environ
                0x00000000000000b4                __environ
                0x00000000000000b4                environ
 .bss           0x00000000000000b8        0x0 /home6/daewon2/Release/glibc/SP/SP_Linux/LP_Linux_Prj/REL/VDLinux.3.x.2012/toolchain/src/arm-mips-src-20121018/build.arm.cortex-a15/obj/glibc_0_final/libc_pic.a(xstat64.os)
 .bss           0x00000000000000b8        0x0 /home6/daewon2/Release/glibc/SP/SP_Linux/LP_Linux_Prj/REL/VDLinux.3.x.2012/toolchain/src/arm-mips-src-20121018/build.arm.cortex-a15/obj/glibc_0_final/libc_pic.a(fxstat64.os)
 .bss           0x00000000000000b8        0x0 /home6/daewon2/Release/glibc/SP/SP_Linux/LP_Linux_Prj/REL/VDLinux.3.x.2012/toolchain/src/arm-mips-src-20121018/build.arm.cortex-a15/obj/glibc_0_final/libc_pic.a(lxstat64.os)
 .bss           0x00000000000000b8        0x0 /home6/daewon2/Release/glibc/SP/SP_Linux/LP_Linux_Prj/REL/VDLinux.3.x.2012/toolchain/src/arm-mips-src-20121018/build.arm.cortex-a15/obj/glibc_0_final/libc_pic.a(open.os)
 .bss           0x00000000000000b8        0x0 /home6/daewon2/Release/glibc/SP/SP_Linux/LP_Linux_Prj/REL/VDLinux.3.x.2012/toolchain/src/arm-mips-src-20121018/build.arm.cortex-a15/obj/glibc_0_final/libc_pic.a(close.os)
 .bss           0x00000000000000b8        0x0 /home6/daewon2/Release/glibc/SP/SP_Linux/LP_Linux_Prj/REL/VDLinux.3.x.2012/toolchain/src/arm-mips-src-20121018/build.arm.cortex-a15/obj/glibc_0_final/libc_pic.a(read.os)
 .bss           0x00000000000000b8        0x0 /home6/daewon2/Release/glibc/SP/SP_Linux/LP_Linux_Prj/REL/VDLinux.3.x.2012/toolchain/src/arm-mips-src-20121018/build.arm.cortex-a15/obj/glibc_0_final/libc_pic.a(write.os)
 .bss           0x00000000000000b8        0x0 /home6/daewon2/Release/glibc/SP/SP_Linux/LP_Linux_Prj/REL/VDLinux.3.x.2012/toolchain/src/arm-mips-src-20121018/build.arm.cortex-a15/obj/glibc_0_final/libc_pic.a(lseek.os)
 .bss           0x00000000000000b8        0x0 /home6/daewon2/Release/glibc/SP/SP_Linux/LP_Linux_Prj/REL/VDLinux.3.x.2012/toolchain/src/arm-mips-src-20121018/build.arm.cortex-a15/obj/glibc_0_final/libc_pic.a(access.os)
 .bss           0x00000000000000b8        0x0 /home6/daewon2/Release/glibc/SP/SP_Linux/LP_Linux_Prj/REL/VDLinux.3.x.2012/toolchain/src/arm-mips-src-20121018/build.arm.cortex-a15/obj/glibc_0_final/libc_pic.a(fcntl.os)
 .bss           0x00000000000000b8        0x0 /home6/daewon2/Release/glibc/SP/SP_Linux/LP_Linux_Prj/REL/VDLinux.3.x.2012/toolchain/src/arm-mips-src-20121018/build.arm.cortex-a15/obj/glibc_0_final/libc_pic.a(getpagesize.os)
 .bss           0x00000000000000b8        0x0 /home6/daewon2/Release/glibc/SP/SP_Linux/LP_Linux_Prj/REL/VDLinux.3.x.2012/toolchain/src/arm-mips-src-20121018/build.arm.cortex-a15/obj/glibc_0_final/libc_pic.a(mmap.os)
 .bss           0x00000000000000b8        0x0 /home6/daewon2/Release/glibc/SP/SP_Linux/LP_Linux_Prj/REL/VDLinux.3.x.2012/toolchain/src/arm-mips-src-20121018/build.arm.cortex-a15/obj/glibc_0_final/libc_pic.a(munmap.os)
 .bss           0x00000000000000b8        0x0 /home6/daewon2/Release/glibc/SP/SP_Linux/LP_Linux_Prj/REL/VDLinux.3.x.2012/toolchain/src/arm-mips-src-20121018/build.arm.cortex-a15/obj/glibc_0_final/libc_pic.a(mprotect.os)
 .bss           0x00000000000000b8       0xac /home6/daewon2/Release/glibc/SP/SP_Linux/LP_Linux_Prj/REL/VDLinux.3.x.2012/toolchain/src/arm-mips-src-20121018/build.arm.cortex-a15/obj/glibc_0_final/libc_pic.a(profil.os)
 .bss           0x0000000000000164        0x0 /home6/daewon2/Release/glibc/SP/SP_Linux/LP_Linux_Prj/REL/VDLinux.3.x.2012/toolchain/src/arm-mips-src-20121018/build.arm.cortex-a15/obj/glibc_0_final/libc_pic.a(prof-freq.os)
 .bss           0x0000000000000164        0x0 /home6/daewon2/Release/glibc/SP/SP_Linux/LP_Linux_Prj/REL/VDLinux.3.x.2012/toolchain/src/arm-mips-src-20121018/build.arm.cortex-a15/obj/glibc_0_final/libc_pic.a(libc-lowlevellock.os)
 .bss           0x0000000000000164        0x0 /home6/daewon2/Release/glibc/SP/SP_Linux/LP_Linux_Prj/REL/VDLinux.3.x.2012/toolchain/src/arm-mips-src-20121018/build.arm.cortex-a15/obj/glibc_0_final/libc_pic.a(libc-cancellation.os)
 .bss           0x0000000000000164        0x0 /home6/daewon2/Release/glibc/SP/SP_Linux/LP_Linux_Prj/REL/VDLinux.3.x.2012/toolchain/src/arm-mips-src-20121018/build.arm.cortex-a15/obj/glibc_0_final/libc_pic.a(libc_multiple_threads.os)
 .bss           0x0000000000000164        0x0 /home6/daewon2/Release/glibc/SP/SP_Linux/LP_Linux_Prj/REL/VDLinux.3.x.2012/toolchain/src/arm-mips-src-20121018/build.arm.cortex-a15/obj/glibc_0_final/libc_pic.a(sysdep.os)
 .bss           0x0000000000000164        0x0 /home6/daewon2/Release/glibc/SP/SP_Linux/LP_Linux_Prj/REL/VDLinux.3.x.2012/toolchain/src/arm-mips-src-20121018/build.arm.cortex-a15/obj/glibc_0_final/libc_pic.a(sigaction.os)
 .bss           0x0000000000000164        0x0 /home6/daewon2/Release/glibc/SP/SP_Linux/LP_Linux_Prj/REL/VDLinux.3.x.2012/toolchain/src/arm-mips-src-20121018/build.arm.cortex-a15/obj/glibc_0_final/libc_pic.a(sigrestorer.os)
 .bss           0x0000000000000164        0x0 /home6/daewon2/Release/glibc/SP/SP_Linux/LP_Linux_Prj/REL/VDLinux.3.x.2012/toolchain/src/arm-mips-src-20121018/build.arm.cortex-a15/obj/glibc_0_final/libc_pic.a(setitimer.os)
 .bss           0x0000000000000164        0x0 /home6/daewon2/Release/glibc/SP/SP_Linux/LP_Linux_Prj/REL/VDLinux.3.x.2012/toolchain/src/arm-mips-src-20121018/build.arm.cortex-a15/obj/glibc_0_final/libc_pic.a(forward.os)
 .bss           0x0000000000000164        0x0 /home6/daewon2/Release/glibc/SP/SP_Linux/LP_Linux_Prj/REL/VDLinux.3.x.2012/toolchain/src/arm-mips-src-20121018/build.arm.cortex-a15/obj/glibc_0_final/libc_pic.a(exit.os)
 .bss           0x0000000000000164      0x20c /home6/daewon2/Release/glibc/SP/SP_Linux/LP_Linux_Prj/REL/VDLinux.3.x.2012/toolchain/src/arm-mips-src-20121018/build.arm.cortex-a15/obj/glibc_0_final/libc_pic.a(cxa_atexit.os)
 .bss           0x0000000000000370        0x0 /home6/daewon2/Release/glibc/SP/SP_Linux/LP_Linux_Prj/REL/VDLinux.3.x.2012/toolchain/src/arm-mips-src-20121018/scripts/arm-v7a15v3r1/lib/gcc/arm-v7a15v3r1-linux-gnueabi/4.6.4/libgcc.a(_aeabi_uldivmod.o)
 .bss           0x0000000000000370        0x0 /home6/daewon2/Release/glibc/SP/SP_Linux/LP_Linux_Prj/REL/VDLinux.3.x.2012/toolchain/src/arm-mips-src-20121018/scripts/arm-v7a15v3r1/lib/gcc/arm-v7a15v3r1-linux-gnueabi/4.6.4/libgcc.a(_dvmd_lnx.o)
 .bss           0x0000000000000370        0x0 /home6/daewon2/Release/glibc/SP/SP_Linux/LP_Linux_Prj/REL/VDLinux.3.x.2012/toolchain/src/arm-mips-src-20121018/scripts/arm-v7a15v3r1/lib/gcc/arm-v7a15v3r1-linux-gnueabi/4.6.4/libgcc.a(bpabi.o)
 .bss           0x0000000000000370        0x0 /home6/daewon2/Release/glibc/SP/SP_Linux/LP_Linux_Prj/REL/VDLinux.3.x.2012/toolchain/src/arm-mips-src-20121018/build.arm.cortex-a15/obj/glibc_0_final/libc_pic.a(raise.os)
 *(COMMON)
 COMMON         0x0000000000000370        0x0 /home6/daewon2/Release/glibc/SP/SP_Linux/LP_Linux_Prj/REL/VDLinux.3.x.2012/toolchain/src/arm-mips-src-20121018/build.arm.cortex-a15/obj/glibc_0_final/elf/dl-allobjs.os
 COMMON         0x0000000000000370        0x0 /home6/daewon2/Release/glibc/SP/SP_Linux/LP_Linux_Prj/REL/VDLinux.3.x.2012/toolchain/src/arm-mips-src-20121018/build.arm.cortex-a15/obj/glibc_0_final/libc_pic.a(libc_multiple_threads.os)
 COMMON         0x0000000000000370        0x0 /home6/daewon2/Release/glibc/SP/SP_Linux/LP_Linux_Prj/REL/VDLinux.3.x.2012/toolchain/src/arm-mips-src-20121018/build.arm.cortex-a15/obj/glibc_0_final/libc_pic.a(sigaction.os)
 COMMON         0x0000000000000370        0x0 /home6/daewon2/Release/glibc/SP/SP_Linux/LP_Linux_Prj/REL/VDLinux.3.x.2012/toolchain/src/arm-mips-src-20121018/build.arm.cortex-a15/obj/glibc_0_final/libc_pic.a(forward.os)
 COMMON         0x0000000000000370        0x0 /home6/daewon2/Release/glibc/SP/SP_Linux/LP_Linux_Prj/REL/VDLinux.3.x.2012/toolchain/src/arm-mips-src-20121018/build.arm.cortex-a15/obj/glibc_0_final/libc_pic.a(cxa_atexit.os)

.stab
 *(.stab)

.stabstr
 *(.stabstr)

.stab.excl
 *(.stab.excl)

.stab.exclstr
 *(.stab.exclstr)

.stab.index
 *(.stab.index)

.stab.indexstr
 *(.stab.indexstr)

.comment        0x0000000000000000      0xbed
 *(.comment)
 .comment       0x0000000000000000      0x5b6 /home6/daewon2/Release/glibc/SP/SP_Linux/LP_Linux_Prj/REL/VDLinux.3.x.2012/toolchain/src/arm-mips-src-20121018/build.arm.cortex-a15/obj/glibc_0_final/elf/dl-allobjs.os
 .comment       0x00000000000005b6       0x2b /home6/daewon2/Release/glibc/SP/SP_Linux/LP_Linux_Prj/REL/VDLinux.3.x.2012/toolchain/src/arm-mips-src-20121018/build.arm.cortex-a15/obj/glibc_0_final/libc_pic.a(check_fds.os)
 .comment       0x00000000000005e1       0x2b /home6/daewon2/Release/glibc/SP/SP_Linux/LP_Linux_Prj/REL/VDLinux.3.x.2012/toolchain/src/arm-mips-src-20121018/build.arm.cortex-a15/obj/glibc_0_final/libc_pic.a(errno.os)
 .comment       0x000000000000060c       0x2b /home6/daewon2/Release/glibc/SP/SP_Linux/LP_Linux_Prj/REL/VDLinux.3.x.2012/toolchain/src/arm-mips-src-20121018/build.arm.cortex-a15/obj/glibc_0_final/libc_pic.a(divdi3.os)
 .comment       0x0000000000000637       0x2b /home6/daewon2/Release/glibc/SP/SP_Linux/LP_Linux_Prj/REL/VDLinux.3.x.2012/toolchain/src/arm-mips-src-20121018/build.arm.cortex-a15/obj/glibc_0_final/libc_pic.a(strchr.os)
 .comment       0x0000000000000662       0x2b /home6/daewon2/Release/glibc/SP/SP_Linux/LP_Linux_Prj/REL/VDLinux.3.x.2012/toolchain/src/arm-mips-src-20121018/build.arm.cortex-a15/obj/glibc_0_final/libc_pic.a(strcmp.os)
 .comment       0x000000000000068d       0x2b /home6/daewon2/Release/glibc/SP/SP_Linux/LP_Linux_Prj/REL/VDLinux.3.x.2012/toolchain/src/arm-mips-src-20121018/build.arm.cortex-a15/obj/glibc_0_final/libc_pic.a(strcpy.os)
 .comment       0x00000000000006b8       0x2b /home6/daewon2/Release/glibc/SP/SP_Linux/LP_Linux_Prj/REL/VDLinux.3.x.2012/toolchain/src/arm-mips-src-20121018/build.arm.cortex-a15/obj/glibc_0_final/libc_pic.a(strnlen.os)
 .comment       0x00000000000006e3       0x2b /home6/daewon2/Release/glibc/SP/SP_Linux/LP_Linux_Prj/REL/VDLinux.3.x.2012/toolchain/src/arm-mips-src-20121018/build.arm.cortex-a15/obj/glibc_0_final/libc_pic.a(memchr.os)
 .comment       0x000000000000070e       0x2b /home6/daewon2/Release/glibc/SP/SP_Linux/LP_Linux_Prj/REL/VDLinux.3.x.2012/toolchain/src/arm-mips-src-20121018/build.arm.cortex-a15/obj/glibc_0_final/libc_pic.a(memcmp.os)
 .comment       0x0000000000000739       0x2b /home6/daewon2/Release/glibc/SP/SP_Linux/LP_Linux_Prj/REL/VDLinux.3.x.2012/toolchain/src/arm-mips-src-20121018/build.arm.cortex-a15/obj/glibc_0_final/libc_pic.a(mempcpy.os)
 .comment       0x0000000000000764       0x2b /home6/daewon2/Release/glibc/SP/SP_Linux/LP_Linux_Prj/REL/VDLinux.3.x.2012/toolchain/src/arm-mips-src-20121018/build.arm.cortex-a15/obj/glibc_0_final/libc_pic.a(stpcpy.os)
 .comment       0x000000000000078f       0x2b /home6/daewon2/Release/glibc/SP/SP_Linux/LP_Linux_Prj/REL/VDLinux.3.x.2012/toolchain/src/arm-mips-src-20121018/build.arm.cortex-a15/obj/glibc_0_final/libc_pic.a(wordcopy.os)
 .comment       0x00000000000007ba       0x2b /home6/daewon2/Release/glibc/SP/SP_Linux/LP_Linux_Prj/REL/VDLinux.3.x.2012/toolchain/src/arm-mips-src-20121018/build.arm.cortex-a15/obj/glibc_0_final/libc_pic.a(rawmemchr.os)
 .comment       0x00000000000007e5       0x2b /home6/daewon2/Release/glibc/SP/SP_Linux/LP_Linux_Prj/REL/VDLinux.3.x.2012/toolchain/src/arm-mips-src-20121018/build.arm.cortex-a15/obj/glibc_0_final/libc_pic.a(closedir.os)
 .comment       0x0000000000000810       0x2b /home6/daewon2/Release/glibc/SP/SP_Linux/LP_Linux_Prj/REL/VDLinux.3.x.2012/toolchain/src/arm-mips-src-20121018/build.arm.cortex-a15/obj/glibc_0_final/libc_pic.a(readdir.os)
 .comment       0x000000000000083b       0x2b /home6/daewon2/Release/glibc/SP/SP_Linux/LP_Linux_Prj/REL/VDLinux.3.x.2012/toolchain/src/arm-mips-src-20121018/build.arm.cortex-a15/obj/glibc_0_final/libc_pic.a(rewinddir.os)
 .comment       0x0000000000000866       0x2b /home6/daewon2/Release/glibc/SP/SP_Linux/LP_Linux_Prj/REL/VDLinux.3.x.2012/toolchain/src/arm-mips-src-20121018/build.arm.cortex-a15/obj/glibc_0_final/libc_pic.a(getdents.os)
 .comment       0x0000000000000891       0x2b /home6/daewon2/Release/glibc/SP/SP_Linux/LP_Linux_Prj/REL/VDLinux.3.x.2012/toolchain/src/arm-mips-src-20121018/build.arm.cortex-a15/obj/glibc_0_final/libc_pic.a(fdopendir.os)
 .comment       0x00000000000008bc       0x2b /home6/daewon2/Release/glibc/SP/SP_Linux/LP_Linux_Prj/REL/VDLinux.3.x.2012/toolchain/src/arm-mips-src-20121018/build.arm.cortex-a15/obj/glibc_0_final/libc_pic.a(_exit.os)
 .comment       0x00000000000008e7       0x2b /home6/daewon2/Release/glibc/SP/SP_Linux/LP_Linux_Prj/REL/VDLinux.3.x.2012/toolchain/src/arm-mips-src-20121018/build.arm.cortex-a15/obj/glibc_0_final/libc_pic.a(getpid.os)
 .comment       0x0000000000000912       0x2b /home6/daewon2/Release/glibc/SP/SP_Linux/LP_Linux_Prj/REL/VDLinux.3.x.2012/toolchain/src/arm-mips-src-20121018/build.arm.cortex-a15/obj/glibc_0_final/libc_pic.a(environ.os)
 .comment       0x000000000000093d       0x2b /home6/daewon2/Release/glibc/SP/SP_Linux/LP_Linux_Prj/REL/VDLinux.3.x.2012/toolchain/src/arm-mips-src-20121018/build.arm.cortex-a15/obj/glibc_0_final/libc_pic.a(xstat64.os)
 .comment       0x0000000000000968       0x2b /home6/daewon2/Release/glibc/SP/SP_Linux/LP_Linux_Prj/REL/VDLinux.3.x.2012/toolchain/src/arm-mips-src-20121018/build.arm.cortex-a15/obj/glibc_0_final/libc_pic.a(fxstat64.os)
 .comment       0x0000000000000993       0x2b /home6/daewon2/Release/glibc/SP/SP_Linux/LP_Linux_Prj/REL/VDLinux.3.x.2012/toolchain/src/arm-mips-src-20121018/build.arm.cortex-a15/obj/glibc_0_final/libc_pic.a(lxstat64.os)
 .comment       0x00000000000009be       0x2b /home6/daewon2/Release/glibc/SP/SP_Linux/LP_Linux_Prj/REL/VDLinux.3.x.2012/toolchain/src/arm-mips-src-20121018/build.arm.cortex-a15/obj/glibc_0_final/libc_pic.a(fcntl.os)
 .comment       0x00000000000009e9       0x2b /home6/daewon2/Release/glibc/SP/SP_Linux/LP_Linux_Prj/REL/VDLinux.3.x.2012/toolchain/src/arm-mips-src-20121018/build.arm.cortex-a15/obj/glibc_0_final/libc_pic.a(getpagesize.os)
 .comment       0x0000000000000a14       0x2b /home6/daewon2/Release/glibc/SP/SP_Linux/LP_Linux_Prj/REL/VDLinux.3.x.2012/toolchain/src/arm-mips-src-20121018/build.arm.cortex-a15/obj/glibc_0_final/libc_pic.a(profil.os)
 .comment       0x0000000000000a3f       0x2b /home6/daewon2/Release/glibc/SP/SP_Linux/LP_Linux_Prj/REL/VDLinux.3.x.2012/toolchain/src/arm-mips-src-20121018/build.arm.cortex-a15/obj/glibc_0_final/libc_pic.a(prof-freq.os)
 .comment       0x0000000000000a6a       0x2b /home6/daewon2/Release/glibc/SP/SP_Linux/LP_Linux_Prj/REL/VDLinux.3.x.2012/toolchain/src/arm-mips-src-20121018/build.arm.cortex-a15/obj/glibc_0_final/libc_pic.a(libc-lowlevellock.os)
 .comment       0x0000000000000a95       0x2b /home6/daewon2/Release/glibc/SP/SP_Linux/LP_Linux_Prj/REL/VDLinux.3.x.2012/toolchain/src/arm-mips-src-20121018/build.arm.cortex-a15/obj/glibc_0_final/libc_pic.a(libc-cancellation.os)
 .comment       0x0000000000000ac0       0x2b /home6/daewon2/Release/glibc/SP/SP_Linux/LP_Linux_Prj/REL/VDLinux.3.x.2012/toolchain/src/arm-mips-src-20121018/build.arm.cortex-a15/obj/glibc_0_final/libc_pic.a(libc_multiple_threads.os)
 .comment       0x0000000000000aeb       0x2b /home6/daewon2/Release/glibc/SP/SP_Linux/LP_Linux_Prj/REL/VDLinux.3.x.2012/toolchain/src/arm-mips-src-20121018/build.arm.cortex-a15/obj/glibc_0_final/libc_pic.a(sigaction.os)
 .comment       0x0000000000000b16       0x2b /home6/daewon2/Release/glibc/SP/SP_Linux/LP_Linux_Prj/REL/VDLinux.3.x.2012/toolchain/src/arm-mips-src-20121018/build.arm.cortex-a15/obj/glibc_0_final/libc_pic.a(forward.os)
 .comment       0x0000000000000b41       0x2b /home6/daewon2/Release/glibc/SP/SP_Linux/LP_Linux_Prj/REL/VDLinux.3.x.2012/toolchain/src/arm-mips-src-20121018/build.arm.cortex-a15/obj/glibc_0_final/libc_pic.a(exit.os)
 .comment       0x0000000000000b6c       0x2b /home6/daewon2/Release/glibc/SP/SP_Linux/LP_Linux_Prj/REL/VDLinux.3.x.2012/toolchain/src/arm-mips-src-20121018/build.arm.cortex-a15/obj/glibc_0_final/libc_pic.a(cxa_atexit.os)
 .comment       0x0000000000000b97       0x2b /home6/daewon2/Release/glibc/SP/SP_Linux/LP_Linux_Prj/REL/VDLinux.3.x.2012/toolchain/src/arm-mips-src-20121018/scripts/arm-v7a15v3r1/lib/gcc/arm-v7a15v3r1-linux-gnueabi/4.6.4/libgcc.a(bpabi.o)
 .comment       0x0000000000000bc2       0x2b /home6/daewon2/Release/glibc/SP/SP_Linux/LP_Linux_Prj/REL/VDLinux.3.x.2012/toolchain/src/arm-mips-src-20121018/build.arm.cortex-a15/obj/glibc_0_final/libc_pic.a(raise.os)

.note.GNU-stack
                0x0000000000000000        0x0
 .note.GNU-stack
                0x0000000000000000        0x0 /home6/daewon2/Release/glibc/SP/SP_Linux/LP_Linux_Prj/REL/VDLinux.3.x.2012/toolchain/src/arm-mips-src-20121018/build.arm.cortex-a15/obj/glibc_0_final/elf/dl-allobjs.os
 .note.GNU-stack
                0x0000000000000000        0x0 /home6/daewon2/Release/glibc/SP/SP_Linux/LP_Linux_Prj/REL/VDLinux.3.x.2012/toolchain/src/arm-mips-src-20121018/build.arm.cortex-a15/obj/glibc_0_final/libc_pic.a(check_fds.os)
 .note.GNU-stack
                0x0000000000000000        0x0 /home6/daewon2/Release/glibc/SP/SP_Linux/LP_Linux_Prj/REL/VDLinux.3.x.2012/toolchain/src/arm-mips-src-20121018/build.arm.cortex-a15/obj/glibc_0_final/libc_pic.a(errno.os)
 .note.GNU-stack
                0x0000000000000000        0x0 /home6/daewon2/Release/glibc/SP/SP_Linux/LP_Linux_Prj/REL/VDLinux.3.x.2012/toolchain/src/arm-mips-src-20121018/build.arm.cortex-a15/obj/glibc_0_final/libc_pic.a(divdi3.os)
 .note.GNU-stack
                0x0000000000000000        0x0 /home6/daewon2/Release/glibc/SP/SP_Linux/LP_Linux_Prj/REL/VDLinux.3.x.2012/toolchain/src/arm-mips-src-20121018/build.arm.cortex-a15/obj/glibc_0_final/libc_pic.a(setjmp.os)
 .note.GNU-stack
                0x0000000000000000        0x0 /home6/daewon2/Release/glibc/SP/SP_Linux/LP_Linux_Prj/REL/VDLinux.3.x.2012/toolchain/src/arm-mips-src-20121018/build.arm.cortex-a15/obj/glibc_0_final/libc_pic.a(__longjmp.os)
 .note.GNU-stack
                0x0000000000000000        0x0 /home6/daewon2/Release/glibc/SP/SP_Linux/LP_Linux_Prj/REL/VDLinux.3.x.2012/toolchain/src/arm-mips-src-20121018/build.arm.cortex-a15/obj/glibc_0_final/libc_pic.a(strchr.os)
 .note.GNU-stack
                0x0000000000000000        0x0 /home6/daewon2/Release/glibc/SP/SP_Linux/LP_Linux_Prj/REL/VDLinux.3.x.2012/toolchain/src/arm-mips-src-20121018/build.arm.cortex-a15/obj/glibc_0_final/libc_pic.a(strcmp.os)
 .note.GNU-stack
                0x0000000000000000        0x0 /home6/daewon2/Release/glibc/SP/SP_Linux/LP_Linux_Prj/REL/VDLinux.3.x.2012/toolchain/src/arm-mips-src-20121018/build.arm.cortex-a15/obj/glibc_0_final/libc_pic.a(strcpy.os)
 .note.GNU-stack
                0x0000000000000000        0x0 /home6/daewon2/Release/glibc/SP/SP_Linux/LP_Linux_Prj/REL/VDLinux.3.x.2012/toolchain/src/arm-mips-src-20121018/build.arm.cortex-a15/obj/glibc_0_final/libc_pic.a(strlen.os)
 .note.GNU-stack
                0x0000000000000000        0x0 /home6/daewon2/Release/glibc/SP/SP_Linux/LP_Linux_Prj/REL/VDLinux.3.x.2012/toolchain/src/arm-mips-src-20121018/build.arm.cortex-a15/obj/glibc_0_final/libc_pic.a(strnlen.os)
 .note.GNU-stack
                0x0000000000000000        0x0 /home6/daewon2/Release/glibc/SP/SP_Linux/LP_Linux_Prj/REL/VDLinux.3.x.2012/toolchain/src/arm-mips-src-20121018/build.arm.cortex-a15/obj/glibc_0_final/libc_pic.a(memchr.os)
 .note.GNU-stack
                0x0000000000000000        0x0 /home6/daewon2/Release/glibc/SP/SP_Linux/LP_Linux_Prj/REL/VDLinux.3.x.2012/toolchain/src/arm-mips-src-20121018/build.arm.cortex-a15/obj/glibc_0_final/libc_pic.a(memcmp.os)
 .note.GNU-stack
                0x0000000000000000        0x0 /home6/daewon2/Release/glibc/SP/SP_Linux/LP_Linux_Prj/REL/VDLinux.3.x.2012/toolchain/src/arm-mips-src-20121018/build.arm.cortex-a15/obj/glibc_0_final/libc_pic.a(memmove.os)
 .note.GNU-stack
                0x0000000000000000        0x0 /home6/daewon2/Release/glibc/SP/SP_Linux/LP_Linux_Prj/REL/VDLinux.3.x.2012/toolchain/src/arm-mips-src-20121018/build.arm.cortex-a15/obj/glibc_0_final/libc_pic.a(memset.os)
 .note.GNU-stack
                0x0000000000000000        0x0 /home6/daewon2/Release/glibc/SP/SP_Linux/LP_Linux_Prj/REL/VDLinux.3.x.2012/toolchain/src/arm-mips-src-20121018/build.arm.cortex-a15/obj/glibc_0_final/libc_pic.a(mempcpy.os)
 .note.GNU-stack
                0x0000000000000000        0x0 /home6/daewon2/Release/glibc/SP/SP_Linux/LP_Linux_Prj/REL/VDLinux.3.x.2012/toolchain/src/arm-mips-src-20121018/build.arm.cortex-a15/obj/glibc_0_final/libc_pic.a(stpcpy.os)
 .note.GNU-stack
                0x0000000000000000        0x0 /home6/daewon2/Release/glibc/SP/SP_Linux/LP_Linux_Prj/REL/VDLinux.3.x.2012/toolchain/src/arm-mips-src-20121018/build.arm.cortex-a15/obj/glibc_0_final/libc_pic.a(memcpy.os)
 .note.GNU-stack
                0x0000000000000000        0x0 /home6/daewon2/Release/glibc/SP/SP_Linux/LP_Linux_Prj/REL/VDLinux.3.x.2012/toolchain/src/arm-mips-src-20121018/build.arm.cortex-a15/obj/glibc_0_final/libc_pic.a(wordcopy.os)
 .note.GNU-stack
                0x0000000000000000        0x0 /home6/daewon2/Release/glibc/SP/SP_Linux/LP_Linux_Prj/REL/VDLinux.3.x.2012/toolchain/src/arm-mips-src-20121018/build.arm.cortex-a15/obj/glibc_0_final/libc_pic.a(rawmemchr.os)
 .note.GNU-stack
                0x0000000000000000        0x0 /home6/daewon2/Release/glibc/SP/SP_Linux/LP_Linux_Prj/REL/VDLinux.3.x.2012/toolchain/src/arm-mips-src-20121018/build.arm.cortex-a15/obj/glibc_0_final/libc_pic.a(closedir.os)
 .note.GNU-stack
                0x0000000000000000        0x0 /home6/daewon2/Release/glibc/SP/SP_Linux/LP_Linux_Prj/REL/VDLinux.3.x.2012/toolchain/src/arm-mips-src-20121018/build.arm.cortex-a15/obj/glibc_0_final/libc_pic.a(readdir.os)
 .note.GNU-stack
                0x0000000000000000        0x0 /home6/daewon2/Release/glibc/SP/SP_Linux/LP_Linux_Prj/REL/VDLinux.3.x.2012/toolchain/src/arm-mips-src-20121018/build.arm.cortex-a15/obj/glibc_0_final/libc_pic.a(rewinddir.os)
 .note.GNU-stack
                0x0000000000000000        0x0 /home6/daewon2/Release/glibc/SP/SP_Linux/LP_Linux_Prj/REL/VDLinux.3.x.2012/toolchain/src/arm-mips-src-20121018/build.arm.cortex-a15/obj/glibc_0_final/libc_pic.a(getdents.os)
 .note.GNU-stack
                0x0000000000000000        0x0 /home6/daewon2/Release/glibc/SP/SP_Linux/LP_Linux_Prj/REL/VDLinux.3.x.2012/toolchain/src/arm-mips-src-20121018/build.arm.cortex-a15/obj/glibc_0_final/libc_pic.a(fdopendir.os)
 .note.GNU-stack
                0x0000000000000000        0x0 /home6/daewon2/Release/glibc/SP/SP_Linux/LP_Linux_Prj/REL/VDLinux.3.x.2012/toolchain/src/arm-mips-src-20121018/build.arm.cortex-a15/obj/glibc_0_final/libc_pic.a(uname.os)
 .note.GNU-stack
                0x0000000000000000        0x0 /home6/daewon2/Release/glibc/SP/SP_Linux/LP_Linux_Prj/REL/VDLinux.3.x.2012/toolchain/src/arm-mips-src-20121018/build.arm.cortex-a15/obj/glibc_0_final/libc_pic.a(_exit.os)
 .note.GNU-stack
                0x0000000000000000        0x0 /home6/daewon2/Release/glibc/SP/SP_Linux/LP_Linux_Prj/REL/VDLinux.3.x.2012/toolchain/src/arm-mips-src-20121018/build.arm.cortex-a15/obj/glibc_0_final/libc_pic.a(getpid.os)
 .note.GNU-stack
                0x0000000000000000        0x0 /home6/daewon2/Release/glibc/SP/SP_Linux/LP_Linux_Prj/REL/VDLinux.3.x.2012/toolchain/src/arm-mips-src-20121018/build.arm.cortex-a15/obj/glibc_0_final/libc_pic.a(environ.os)
 .note.GNU-stack
                0x0000000000000000        0x0 /home6/daewon2/Release/glibc/SP/SP_Linux/LP_Linux_Prj/REL/VDLinux.3.x.2012/toolchain/src/arm-mips-src-20121018/build.arm.cortex-a15/obj/glibc_0_final/libc_pic.a(xstat64.os)
 .note.GNU-stack
                0x0000000000000000        0x0 /home6/daewon2/Release/glibc/SP/SP_Linux/LP_Linux_Prj/REL/VDLinux.3.x.2012/toolchain/src/arm-mips-src-20121018/build.arm.cortex-a15/obj/glibc_0_final/libc_pic.a(fxstat64.os)
 .note.GNU-stack
                0x0000000000000000        0x0 /home6/daewon2/Release/glibc/SP/SP_Linux/LP_Linux_Prj/REL/VDLinux.3.x.2012/toolchain/src/arm-mips-src-20121018/build.arm.cortex-a15/obj/glibc_0_final/libc_pic.a(lxstat64.os)
 .note.GNU-stack
                0x0000000000000000        0x0 /home6/daewon2/Release/glibc/SP/SP_Linux/LP_Linux_Prj/REL/VDLinux.3.x.2012/toolchain/src/arm-mips-src-20121018/build.arm.cortex-a15/obj/glibc_0_final/libc_pic.a(open.os)
 .note.GNU-stack
                0x0000000000000000        0x0 /home6/daewon2/Release/glibc/SP/SP_Linux/LP_Linux_Prj/REL/VDLinux.3.x.2012/toolchain/src/arm-mips-src-20121018/build.arm.cortex-a15/obj/glibc_0_final/libc_pic.a(close.os)
 .note.GNU-stack
                0x0000000000000000        0x0 /home6/daewon2/Release/glibc/SP/SP_Linux/LP_Linux_Prj/REL/VDLinux.3.x.2012/toolchain/src/arm-mips-src-20121018/build.arm.cortex-a15/obj/glibc_0_final/libc_pic.a(read.os)
 .note.GNU-stack
                0x0000000000000000        0x0 /home6/daewon2/Release/glibc/SP/SP_Linux/LP_Linux_Prj/REL/VDLinux.3.x.2012/toolchain/src/arm-mips-src-20121018/build.arm.cortex-a15/obj/glibc_0_final/libc_pic.a(write.os)
 .note.GNU-stack
                0x0000000000000000        0x0 /home6/daewon2/Release/glibc/SP/SP_Linux/LP_Linux_Prj/REL/VDLinux.3.x.2012/toolchain/src/arm-mips-src-20121018/build.arm.cortex-a15/obj/glibc_0_final/libc_pic.a(lseek.os)
 .note.GNU-stack
                0x0000000000000000        0x0 /home6/daewon2/Release/glibc/SP/SP_Linux/LP_Linux_Prj/REL/VDLinux.3.x.2012/toolchain/src/arm-mips-src-20121018/build.arm.cortex-a15/obj/glibc_0_final/libc_pic.a(access.os)
 .note.GNU-stack
                0x0000000000000000        0x0 /home6/daewon2/Release/glibc/SP/SP_Linux/LP_Linux_Prj/REL/VDLinux.3.x.2012/toolchain/src/arm-mips-src-20121018/build.arm.cortex-a15/obj/glibc_0_final/libc_pic.a(fcntl.os)
 .note.GNU-stack
                0x0000000000000000        0x0 /home6/daewon2/Release/glibc/SP/SP_Linux/LP_Linux_Prj/REL/VDLinux.3.x.2012/toolchain/src/arm-mips-src-20121018/build.arm.cortex-a15/obj/glibc_0_final/libc_pic.a(getpagesize.os)
 .note.GNU-stack
                0x0000000000000000        0x0 /home6/daewon2/Release/glibc/SP/SP_Linux/LP_Linux_Prj/REL/VDLinux.3.x.2012/toolchain/src/arm-mips-src-20121018/build.arm.cortex-a15/obj/glibc_0_final/libc_pic.a(mmap.os)
 .note.GNU-stack
                0x0000000000000000        0x0 /home6/daewon2/Release/glibc/SP/SP_Linux/LP_Linux_Prj/REL/VDLinux.3.x.2012/toolchain/src/arm-mips-src-20121018/build.arm.cortex-a15/obj/glibc_0_final/libc_pic.a(munmap.os)
 .note.GNU-stack
                0x0000000000000000        0x0 /home6/daewon2/Release/glibc/SP/SP_Linux/LP_Linux_Prj/REL/VDLinux.3.x.2012/toolchain/src/arm-mips-src-20121018/build.arm.cortex-a15/obj/glibc_0_final/libc_pic.a(mprotect.os)
 .note.GNU-stack
                0x0000000000000000        0x0 /home6/daewon2/Release/glibc/SP/SP_Linux/LP_Linux_Prj/REL/VDLinux.3.x.2012/toolchain/src/arm-mips-src-20121018/build.arm.cortex-a15/obj/glibc_0_final/libc_pic.a(profil.os)
 .note.GNU-stack
                0x0000000000000000        0x0 /home6/daewon2/Release/glibc/SP/SP_Linux/LP_Linux_Prj/REL/VDLinux.3.x.2012/toolchain/src/arm-mips-src-20121018/build.arm.cortex-a15/obj/glibc_0_final/libc_pic.a(prof-freq.os)
 .note.GNU-stack
                0x0000000000000000        0x0 /home6/daewon2/Release/glibc/SP/SP_Linux/LP_Linux_Prj/REL/VDLinux.3.x.2012/toolchain/src/arm-mips-src-20121018/build.arm.cortex-a15/obj/glibc_0_final/libc_pic.a(libc-lowlevellock.os)
 .note.GNU-stack
                0x0000000000000000        0x0 /home6/daewon2/Release/glibc/SP/SP_Linux/LP_Linux_Prj/REL/VDLinux.3.x.2012/toolchain/src/arm-mips-src-20121018/build.arm.cortex-a15/obj/glibc_0_final/libc_pic.a(libc-cancellation.os)
 .note.GNU-stack
                0x0000000000000000        0x0 /home6/daewon2/Release/glibc/SP/SP_Linux/LP_Linux_Prj/REL/VDLinux.3.x.2012/toolchain/src/arm-mips-src-20121018/build.arm.cortex-a15/obj/glibc_0_final/libc_pic.a(libc_multiple_threads.os)
 .note.GNU-stack
                0x0000000000000000        0x0 /home6/daewon2/Release/glibc/SP/SP_Linux/LP_Linux_Prj/REL/VDLinux.3.x.2012/toolchain/src/arm-mips-src-20121018/build.arm.cortex-a15/obj/glibc_0_final/libc_pic.a(sysdep.os)
 .note.GNU-stack
                0x0000000000000000        0x0 /home6/daewon2/Release/glibc/SP/SP_Linux/LP_Linux_Prj/REL/VDLinux.3.x.2012/toolchain/src/arm-mips-src-20121018/build.arm.cortex-a15/obj/glibc_0_final/libc_pic.a(sigaction.os)
 .note.GNU-stack
                0x0000000000000000        0x0 /home6/daewon2/Release/glibc/SP/SP_Linux/LP_Linux_Prj/REL/VDLinux.3.x.2012/toolchain/src/arm-mips-src-20121018/build.arm.cortex-a15/obj/glibc_0_final/libc_pic.a(sigrestorer.os)
 .note.GNU-stack
                0x0000000000000000        0x0 /home6/daewon2/Release/glibc/SP/SP_Linux/LP_Linux_Prj/REL/VDLinux.3.x.2012/toolchain/src/arm-mips-src-20121018/build.arm.cortex-a15/obj/glibc_0_final/libc_pic.a(setitimer.os)
 .note.GNU-stack
                0x0000000000000000        0x0 /home6/daewon2/Release/glibc/SP/SP_Linux/LP_Linux_Prj/REL/VDLinux.3.x.2012/toolchain/src/arm-mips-src-20121018/build.arm.cortex-a15/obj/glibc_0_final/libc_pic.a(forward.os)
 .note.GNU-stack
                0x0000000000000000        0x0 /home6/daewon2/Release/glibc/SP/SP_Linux/LP_Linux_Prj/REL/VDLinux.3.x.2012/toolchain/src/arm-mips-src-20121018/build.arm.cortex-a15/obj/glibc_0_final/libc_pic.a(exit.os)
 .note.GNU-stack
                0x0000000000000000        0x0 /home6/daewon2/Release/glibc/SP/SP_Linux/LP_Linux_Prj/REL/VDLinux.3.x.2012/toolchain/src/arm-mips-src-20121018/build.arm.cortex-a15/obj/glibc_0_final/libc_pic.a(cxa_atexit.os)
 .note.GNU-stack
                0x0000000000000000        0x0 /home6/daewon2/Release/glibc/SP/SP_Linux/LP_Linux_Prj/REL/VDLinux.3.x.2012/toolchain/src/arm-mips-src-20121018/scripts/arm-v7a15v3r1/lib/gcc/arm-v7a15v3r1-linux-gnueabi/4.6.4/libgcc.a(_aeabi_uldivmod.o)
 .note.GNU-stack
                0x0000000000000000        0x0 /home6/daewon2/Release/glibc/SP/SP_Linux/LP_Linux_Prj/REL/VDLinux.3.x.2012/toolchain/src/arm-mips-src-20121018/scripts/arm-v7a15v3r1/lib/gcc/arm-v7a15v3r1-linux-gnueabi/4.6.4/libgcc.a(_dvmd_lnx.o)
 .note.GNU-stack
                0x0000000000000000        0x0 /home6/daewon2/Release/glibc/SP/SP_Linux/LP_Linux_Prj/REL/VDLinux.3.x.2012/toolchain/src/arm-mips-src-20121018/scripts/arm-v7a15v3r1/lib/gcc/arm-v7a15v3r1-linux-gnueabi/4.6.4/libgcc.a(bpabi.o)
 .note.GNU-stack
                0x0000000000000000        0x0 /home6/daewon2/Release/glibc/SP/SP_Linux/LP_Linux_Prj/REL/VDLinux.3.x.2012/toolchain/src/arm-mips-src-20121018/build.arm.cortex-a15/obj/glibc_0_final/libc_pic.a(raise.os)

.ARM.attributes
                0x0000000000000000       0x3e
 .ARM.attributes
                0x0000000000000000       0x3e /home6/daewon2/Release/glibc/SP/SP_Linux/LP_Linux_Prj/REL/VDLinux.3.x.2012/toolchain/src/arm-mips-src-20121018/build.arm.cortex-a15/obj/glibc_0_final/elf/dl-allobjs.os
 .ARM.attributes
                0x000000000000003e       0x3e /home6/daewon2/Release/glibc/SP/SP_Linux/LP_Linux_Prj/REL/VDLinux.3.x.2012/toolchain/src/arm-mips-src-20121018/build.arm.cortex-a15/obj/glibc_0_final/libc_pic.a(check_fds.os)
 .ARM.attributes
                0x000000000000007c       0x3e /home6/daewon2/Release/glibc/SP/SP_Linux/LP_Linux_Prj/REL/VDLinux.3.x.2012/toolchain/src/arm-mips-src-20121018/build.arm.cortex-a15/obj/glibc_0_final/libc_pic.a(errno.os)
 .ARM.attributes
                0x00000000000000ba       0x3e /home6/daewon2/Release/glibc/SP/SP_Linux/LP_Linux_Prj/REL/VDLinux.3.x.2012/toolchain/src/arm-mips-src-20121018/build.arm.cortex-a15/obj/glibc_0_final/libc_pic.a(divdi3.os)
 .ARM.attributes
                0x00000000000000f8       0x30 /home6/daewon2/Release/glibc/SP/SP_Linux/LP_Linux_Prj/REL/VDLinux.3.x.2012/toolchain/src/arm-mips-src-20121018/build.arm.cortex-a15/obj/glibc_0_final/libc_pic.a(setjmp.os)
 .ARM.attributes
                0x0000000000000128       0x30 /home6/daewon2/Release/glibc/SP/SP_Linux/LP_Linux_Prj/REL/VDLinux.3.x.2012/toolchain/src/arm-mips-src-20121018/build.arm.cortex-a15/obj/glibc_0_final/libc_pic.a(__longjmp.os)
 .ARM.attributes
                0x0000000000000158       0x3e /home6/daewon2/Release/glibc/SP/SP_Linux/LP_Linux_Prj/REL/VDLinux.3.x.2012/toolchain/src/arm-mips-src-20121018/build.arm.cortex-a15/obj/glibc_0_final/libc_pic.a(strchr.os)
 .ARM.attributes
                0x0000000000000196       0x3e /home6/daewon2/Release/glibc/SP/SP_Linux/LP_Linux_Prj/REL/VDLinux.3.x.2012/toolchain/src/arm-mips-src-20121018/build.arm.cortex-a15/obj/glibc_0_final/libc_pic.a(strcmp.os)
 .ARM.attributes
                0x00000000000001d4       0x3e /home6/daewon2/Release/glibc/SP/SP_Linux/LP_Linux_Prj/REL/VDLinux.3.x.2012/toolchain/src/arm-mips-src-20121018/build.arm.cortex-a15/obj/glibc_0_final/libc_pic.a(strcpy.os)
 .ARM.attributes
                0x0000000000000212       0x30 /home6/daewon2/Release/glibc/SP/SP_Linux/LP_Linux_Prj/REL/VDLinux.3.x.2012/toolchain/src/arm-mips-src-20121018/build.arm.cortex-a15/obj/glibc_0_final/libc_pic.a(strlen.os)
 .ARM.attributes
                0x0000000000000242       0x3e /home6/daewon2/Release/glibc/SP/SP_Linux/LP_Linux_Prj/REL/VDLinux.3.x.2012/toolchain/src/arm-mips-src-20121018/build.arm.cortex-a15/obj/glibc_0_final/libc_pic.a(strnlen.os)
 .ARM.attributes
                0x0000000000000280       0x3e /home6/daewon2/Release/glibc/SP/SP_Linux/LP_Linux_Prj/REL/VDLinux.3.x.2012/toolchain/src/arm-mips-src-20121018/build.arm.cortex-a15/obj/glibc_0_final/libc_pic.a(memchr.os)
 .ARM.attributes
                0x00000000000002be       0x3e /home6/daewon2/Release/glibc/SP/SP_Linux/LP_Linux_Prj/REL/VDLinux.3.x.2012/toolchain/src/arm-mips-src-20121018/build.arm.cortex-a15/obj/glibc_0_final/libc_pic.a(memcmp.os)
 .ARM.attributes
                0x00000000000002fc       0x30 /home6/daewon2/Release/glibc/SP/SP_Linux/LP_Linux_Prj/REL/VDLinux.3.x.2012/toolchain/src/arm-mips-src-20121018/build.arm.cortex-a15/obj/glibc_0_final/libc_pic.a(memmove.os)
 .ARM.attributes
                0x000000000000032c       0x30 /home6/daewon2/Release/glibc/SP/SP_Linux/LP_Linux_Prj/REL/VDLinux.3.x.2012/toolchain/src/arm-mips-src-20121018/build.arm.cortex-a15/obj/glibc_0_final/libc_pic.a(memset.os)
 .ARM.attributes
                0x000000000000035c       0x3e /home6/daewon2/Release/glibc/SP/SP_Linux/LP_Linux_Prj/REL/VDLinux.3.x.2012/toolchain/src/arm-mips-src-20121018/build.arm.cortex-a15/obj/glibc_0_final/libc_pic.a(mempcpy.os)
 .ARM.attributes
                0x000000000000039a       0x3e /home6/daewon2/Release/glibc/SP/SP_Linux/LP_Linux_Prj/REL/VDLinux.3.x.2012/toolchain/src/arm-mips-src-20121018/build.arm.cortex-a15/obj/glibc_0_final/libc_pic.a(stpcpy.os)
 .ARM.attributes
                0x00000000000003d8       0x30 /home6/daewon2/Release/glibc/SP/SP_Linux/LP_Linux_Prj/REL/VDLinux.3.x.2012/toolchain/src/arm-mips-src-20121018/build.arm.cortex-a15/obj/glibc_0_final/libc_pic.a(memcpy.os)
 .ARM.attributes
                0x0000000000000408       0x3e /home6/daewon2/Release/glibc/SP/SP_Linux/LP_Linux_Prj/REL/VDLinux.3.x.2012/toolchain/src/arm-mips-src-20121018/build.arm.cortex-a15/obj/glibc_0_final/libc_pic.a(wordcopy.os)
 .ARM.attributes
                0x0000000000000446       0x3e /home6/daewon2/Release/glibc/SP/SP_Linux/LP_Linux_Prj/REL/VDLinux.3.x.2012/toolchain/src/arm-mips-src-20121018/build.arm.cortex-a15/obj/glibc_0_final/libc_pic.a(rawmemchr.os)
 .ARM.attributes
                0x0000000000000484       0x3e /home6/daewon2/Release/glibc/SP/SP_Linux/LP_Linux_Prj/REL/VDLinux.3.x.2012/toolchain/src/arm-mips-src-20121018/build.arm.cortex-a15/obj/glibc_0_final/libc_pic.a(closedir.os)
 .ARM.attributes
                0x00000000000004c2       0x3e /home6/daewon2/Release/glibc/SP/SP_Linux/LP_Linux_Prj/REL/VDLinux.3.x.2012/toolchain/src/arm-mips-src-20121018/build.arm.cortex-a15/obj/glibc_0_final/libc_pic.a(readdir.os)
 .ARM.attributes
                0x0000000000000500       0x3e /home6/daewon2/Release/glibc/SP/SP_Linux/LP_Linux_Prj/REL/VDLinux.3.x.2012/toolchain/src/arm-mips-src-20121018/build.arm.cortex-a15/obj/glibc_0_final/libc_pic.a(rewinddir.os)
 .ARM.attributes
                0x000000000000053e       0x3e /home6/daewon2/Release/glibc/SP/SP_Linux/LP_Linux_Prj/REL/VDLinux.3.x.2012/toolchain/src/arm-mips-src-20121018/build.arm.cortex-a15/obj/glibc_0_final/libc_pic.a(getdents.os)
 .ARM.attributes
                0x000000000000057c       0x3e /home6/daewon2/Release/glibc/SP/SP_Linux/LP_Linux_Prj/REL/VDLinux.3.x.2012/toolchain/src/arm-mips-src-20121018/build.arm.cortex-a15/obj/glibc_0_final/libc_pic.a(fdopendir.os)
 .ARM.attributes
                0x00000000000005ba       0x30 /home6/daewon2/Release/glibc/SP/SP_Linux/LP_Linux_Prj/REL/VDLinux.3.x.2012/toolchain/src/arm-mips-src-20121018/build.arm.cortex-a15/obj/glibc_0_final/libc_pic.a(uname.os)
 .ARM.attributes
                0x00000000000005ea       0x3e /home6/daewon2/Release/glibc/SP/SP_Linux/LP_Linux_Prj/REL/VDLinux.3.x.2012/toolchain/src/arm-mips-src-20121018/build.arm.cortex-a15/obj/glibc_0_final/libc_pic.a(_exit.os)
 .ARM.attributes
                0x0000000000000628       0x3e /home6/daewon2/Release/glibc/SP/SP_Linux/LP_Linux_Prj/REL/VDLinux.3.x.2012/toolchain/src/arm-mips-src-20121018/build.arm.cortex-a15/obj/glibc_0_final/libc_pic.a(getpid.os)
 .ARM.attributes
                0x0000000000000666       0x3e /home6/daewon2/Release/glibc/SP/SP_Linux/LP_Linux_Prj/REL/VDLinux.3.x.2012/toolchain/src/arm-mips-src-20121018/build.arm.cortex-a15/obj/glibc_0_final/libc_pic.a(environ.os)
 .ARM.attributes
                0x00000000000006a4       0x3e /home6/daewon2/Release/glibc/SP/SP_Linux/LP_Linux_Prj/REL/VDLinux.3.x.2012/toolchain/src/arm-mips-src-20121018/build.arm.cortex-a15/obj/glibc_0_final/libc_pic.a(xstat64.os)
 .ARM.attributes
                0x00000000000006e2       0x3e /home6/daewon2/Release/glibc/SP/SP_Linux/LP_Linux_Prj/REL/VDLinux.3.x.2012/toolchain/src/arm-mips-src-20121018/build.arm.cortex-a15/obj/glibc_0_final/libc_pic.a(fxstat64.os)
 .ARM.attributes
                0x0000000000000720       0x3e /home6/daewon2/Release/glibc/SP/SP_Linux/LP_Linux_Prj/REL/VDLinux.3.x.2012/toolchain/src/arm-mips-src-20121018/build.arm.cortex-a15/obj/glibc_0_final/libc_pic.a(lxstat64.os)
 .ARM.attributes
                0x000000000000075e       0x30 /home6/daewon2/Release/glibc/SP/SP_Linux/LP_Linux_Prj/REL/VDLinux.3.x.2012/toolchain/src/arm-mips-src-20121018/build.arm.cortex-a15/obj/glibc_0_final/libc_pic.a(open.os)
 .ARM.attributes
                0x000000000000078e       0x30 /home6/daewon2/Release/glibc/SP/SP_Linux/LP_Linux_Prj/REL/VDLinux.3.x.2012/toolchain/src/arm-mips-src-20121018/build.arm.cortex-a15/obj/glibc_0_final/libc_pic.a(close.os)
 .ARM.attributes
                0x00000000000007be       0x30 /home6/daewon2/Release/glibc/SP/SP_Linux/LP_Linux_Prj/REL/VDLinux.3.x.2012/toolchain/src/arm-mips-src-20121018/build.arm.cortex-a15/obj/glibc_0_final/libc_pic.a(read.os)
 .ARM.attributes
                0x00000000000007ee       0x30 /home6/daewon2/Release/glibc/SP/SP_Linux/LP_Linux_Prj/REL/VDLinux.3.x.2012/toolchain/src/arm-mips-src-20121018/build.arm.cortex-a15/obj/glibc_0_final/libc_pic.a(write.os)
 .ARM.attributes
                0x000000000000081e       0x30 /home6/daewon2/Release/glibc/SP/SP_Linux/LP_Linux_Prj/REL/VDLinux.3.x.2012/toolchain/src/arm-mips-src-20121018/build.arm.cortex-a15/obj/glibc_0_final/libc_pic.a(lseek.os)
 .ARM.attributes
                0x000000000000084e       0x30 /home6/daewon2/Release/glibc/SP/SP_Linux/LP_Linux_Prj/REL/VDLinux.3.x.2012/toolchain/src/arm-mips-src-20121018/build.arm.cortex-a15/obj/glibc_0_final/libc_pic.a(access.os)
 .ARM.attributes
                0x000000000000087e       0x3e /home6/daewon2/Release/glibc/SP/SP_Linux/LP_Linux_Prj/REL/VDLinux.3.x.2012/toolchain/src/arm-mips-src-20121018/build.arm.cortex-a15/obj/glibc_0_final/libc_pic.a(fcntl.os)
 .ARM.attributes
                0x00000000000008bc       0x3e /home6/daewon2/Release/glibc/SP/SP_Linux/LP_Linux_Prj/REL/VDLinux.3.x.2012/toolchain/src/arm-mips-src-20121018/build.arm.cortex-a15/obj/glibc_0_final/libc_pic.a(getpagesize.os)
 .ARM.attributes
                0x00000000000008fa       0x30 /home6/daewon2/Release/glibc/SP/SP_Linux/LP_Linux_Prj/REL/VDLinux.3.x.2012/toolchain/src/arm-mips-src-20121018/build.arm.cortex-a15/obj/glibc_0_final/libc_pic.a(mmap.os)
 .ARM.attributes
                0x000000000000092a       0x30 /home6/daewon2/Release/glibc/SP/SP_Linux/LP_Linux_Prj/REL/VDLinux.3.x.2012/toolchain/src/arm-mips-src-20121018/build.arm.cortex-a15/obj/glibc_0_final/libc_pic.a(munmap.os)
 .ARM.attributes
                0x000000000000095a       0x30 /home6/daewon2/Release/glibc/SP/SP_Linux/LP_Linux_Prj/REL/VDLinux.3.x.2012/toolchain/src/arm-mips-src-20121018/build.arm.cortex-a15/obj/glibc_0_final/libc_pic.a(mprotect.os)
 .ARM.attributes
                0x000000000000098a       0x3e /home6/daewon2/Release/glibc/SP/SP_Linux/LP_Linux_Prj/REL/VDLinux.3.x.2012/toolchain/src/arm-mips-src-20121018/build.arm.cortex-a15/obj/glibc_0_final/libc_pic.a(profil.os)
 .ARM.attributes
                0x00000000000009c8       0x3e /home6/daewon2/Release/glibc/SP/SP_Linux/LP_Linux_Prj/REL/VDLinux.3.x.2012/toolchain/src/arm-mips-src-20121018/build.arm.cortex-a15/obj/glibc_0_final/libc_pic.a(prof-freq.os)
 .ARM.attributes
                0x0000000000000a06       0x3e /home6/daewon2/Release/glibc/SP/SP_Linux/LP_Linux_Prj/REL/VDLinux.3.x.2012/toolchain/src/arm-mips-src-20121018/build.arm.cortex-a15/obj/glibc_0_final/libc_pic.a(libc-lowlevellock.os)
 .ARM.attributes
                0x0000000000000a44       0x3e /home6/daewon2/Release/glibc/SP/SP_Linux/LP_Linux_Prj/REL/VDLinux.3.x.2012/toolchain/src/arm-mips-src-20121018/build.arm.cortex-a15/obj/glibc_0_final/libc_pic.a(libc-cancellation.os)
 .ARM.attributes
                0x0000000000000a82       0x3e /home6/daewon2/Release/glibc/SP/SP_Linux/LP_Linux_Prj/REL/VDLinux.3.x.2012/toolchain/src/arm-mips-src-20121018/build.arm.cortex-a15/obj/glibc_0_final/libc_pic.a(libc_multiple_threads.os)
 .ARM.attributes
                0x0000000000000ac0       0x30 /home6/daewon2/Release/glibc/SP/SP_Linux/LP_Linux_Prj/REL/VDLinux.3.x.2012/toolchain/src/arm-mips-src-20121018/build.arm.cortex-a15/obj/glibc_0_final/libc_pic.a(sysdep.os)
 .ARM.attributes
                0x0000000000000af0       0x3e /home6/daewon2/Release/glibc/SP/SP_Linux/LP_Linux_Prj/REL/VDLinux.3.x.2012/toolchain/src/arm-mips-src-20121018/build.arm.cortex-a15/obj/glibc_0_final/libc_pic.a(sigaction.os)
 .ARM.attributes
                0x0000000000000b2e       0x30 /home6/daewon2/Release/glibc/SP/SP_Linux/LP_Linux_Prj/REL/VDLinux.3.x.2012/toolchain/src/arm-mips-src-20121018/build.arm.cortex-a15/obj/glibc_0_final/libc_pic.a(sigrestorer.os)
 .ARM.attributes
                0x0000000000000b5e       0x30 /home6/daewon2/Release/glibc/SP/SP_Linux/LP_Linux_Prj/REL/VDLinux.3.x.2012/toolchain/src/arm-mips-src-20121018/build.arm.cortex-a15/obj/glibc_0_final/libc_pic.a(setitimer.os)
 .ARM.attributes
                0x0000000000000b8e       0x3e /home6/daewon2/Release/glibc/SP/SP_Linux/LP_Linux_Prj/REL/VDLinux.3.x.2012/toolchain/src/arm-mips-src-20121018/build.arm.cortex-a15/obj/glibc_0_final/libc_pic.a(forward.os)
 .ARM.attributes
                0x0000000000000bcc       0x3e /home6/daewon2/Release/glibc/SP/SP_Linux/LP_Linux_Prj/REL/VDLinux.3.x.2012/toolchain/src/arm-mips-src-20121018/build.arm.cortex-a15/obj/glibc_0_final/libc_pic.a(exit.os)
 .ARM.attributes
                0x0000000000000c0a       0x3e /home6/daewon2/Release/glibc/SP/SP_Linux/LP_Linux_Prj/REL/VDLinux.3.x.2012/toolchain/src/arm-mips-src-20121018/build.arm.cortex-a15/obj/glibc_0_final/libc_pic.a(cxa_atexit.os)
 .ARM.attributes
                0x0000000000000c48       0x2e /home6/daewon2/Release/glibc/SP/SP_Linux/LP_Linux_Prj/REL/VDLinux.3.x.2012/toolchain/src/arm-mips-src-20121018/scripts/arm-v7a15v3r1/lib/gcc/arm-v7a15v3r1-linux-gnueabi/4.6.4/libgcc.a(_aeabi_uldivmod.o)
 .ARM.attributes
                0x0000000000000c76       0x2e /home6/daewon2/Release/glibc/SP/SP_Linux/LP_Linux_Prj/REL/VDLinux.3.x.2012/toolchain/src/arm-mips-src-20121018/scripts/arm-v7a15v3r1/lib/gcc/arm-v7a15v3r1-linux-gnueabi/4.6.4/libgcc.a(_dvmd_lnx.o)
 .ARM.attributes
                0x0000000000000ca4       0x3e /home6/daewon2/Release/glibc/SP/SP_Linux/LP_Linux_Prj/REL/VDLinux.3.x.2012/toolchain/src/arm-mips-src-20121018/scripts/arm-v7a15v3r1/lib/gcc/arm-v7a15v3r1-linux-gnueabi/4.6.4/libgcc.a(bpabi.o)
 .ARM.attributes
                0x0000000000000ce2       0x3e /home6/daewon2/Release/glibc/SP/SP_Linux/LP_Linux_Prj/REL/VDLinux.3.x.2012/toolchain/src/arm-mips-src-20121018/build.arm.cortex-a15/obj/glibc_0_final/libc_pic.a(raise.os)

.debug
 *(.debug)

.line
 *(.line)

.debug_srcinfo
 *(.debug_srcinfo)

.debug_sfnames
 *(.debug_sfnames)

.debug_aranges  0x0000000000000000      0xdb8
 *(.debug_aranges)
 .debug_aranges
                0x0000000000000000      0x7c0 /home6/daewon2/Release/glibc/SP/SP_Linux/LP_Linux_Prj/REL/VDLinux.3.x.2012/toolchain/src/arm-mips-src-20121018/build.arm.cortex-a15/obj/glibc_0_final/elf/dl-allobjs.os
 .debug_aranges
                0x00000000000007c0       0x28 /home6/daewon2/Release/glibc/SP/SP_Linux/LP_Linux_Prj/REL/VDLinux.3.x.2012/toolchain/src/arm-mips-src-20121018/build.arm.cortex-a15/obj/glibc_0_final/libc_pic.a(check_fds.os)
 .debug_aranges
                0x00000000000007e8       0x40 /home6/daewon2/Release/glibc/SP/SP_Linux/LP_Linux_Prj/REL/VDLinux.3.x.2012/toolchain/src/arm-mips-src-20121018/build.arm.cortex-a15/obj/glibc_0_final/libc_pic.a(divdi3.os)
 .debug_aranges
                0x0000000000000828       0x20 /home6/daewon2/Release/glibc/SP/SP_Linux/LP_Linux_Prj/REL/VDLinux.3.x.2012/toolchain/src/arm-mips-src-20121018/build.arm.cortex-a15/obj/glibc_0_final/libc_pic.a(strchr.os)
 .debug_aranges
                0x0000000000000848       0x20 /home6/daewon2/Release/glibc/SP/SP_Linux/LP_Linux_Prj/REL/VDLinux.3.x.2012/toolchain/src/arm-mips-src-20121018/build.arm.cortex-a15/obj/glibc_0_final/libc_pic.a(strcmp.os)
 .debug_aranges
                0x0000000000000868       0x20 /home6/daewon2/Release/glibc/SP/SP_Linux/LP_Linux_Prj/REL/VDLinux.3.x.2012/toolchain/src/arm-mips-src-20121018/build.arm.cortex-a15/obj/glibc_0_final/libc_pic.a(strcpy.os)
 .debug_aranges
                0x0000000000000888       0x20 /home6/daewon2/Release/glibc/SP/SP_Linux/LP_Linux_Prj/REL/VDLinux.3.x.2012/toolchain/src/arm-mips-src-20121018/build.arm.cortex-a15/obj/glibc_0_final/libc_pic.a(strnlen.os)
 .debug_aranges
                0x00000000000008a8       0x20 /home6/daewon2/Release/glibc/SP/SP_Linux/LP_Linux_Prj/REL/VDLinux.3.x.2012/toolchain/src/arm-mips-src-20121018/build.arm.cortex-a15/obj/glibc_0_final/libc_pic.a(memchr.os)
 .debug_aranges
                0x00000000000008c8       0x20 /home6/daewon2/Release/glibc/SP/SP_Linux/LP_Linux_Prj/REL/VDLinux.3.x.2012/toolchain/src/arm-mips-src-20121018/build.arm.cortex-a15/obj/glibc_0_final/libc_pic.a(memcmp.os)
 .debug_aranges
                0x00000000000008e8       0x20 /home6/daewon2/Release/glibc/SP/SP_Linux/LP_Linux_Prj/REL/VDLinux.3.x.2012/toolchain/src/arm-mips-src-20121018/build.arm.cortex-a15/obj/glibc_0_final/libc_pic.a(mempcpy.os)
 .debug_aranges
                0x0000000000000908       0x20 /home6/daewon2/Release/glibc/SP/SP_Linux/LP_Linux_Prj/REL/VDLinux.3.x.2012/toolchain/src/arm-mips-src-20121018/build.arm.cortex-a15/obj/glibc_0_final/libc_pic.a(stpcpy.os)
 .debug_aranges
                0x0000000000000928       0x38 /home6/daewon2/Release/glibc/SP/SP_Linux/LP_Linux_Prj/REL/VDLinux.3.x.2012/toolchain/src/arm-mips-src-20121018/build.arm.cortex-a15/obj/glibc_0_final/libc_pic.a(wordcopy.os)
 .debug_aranges
                0x0000000000000960       0x20 /home6/daewon2/Release/glibc/SP/SP_Linux/LP_Linux_Prj/REL/VDLinux.3.x.2012/toolchain/src/arm-mips-src-20121018/build.arm.cortex-a15/obj/glibc_0_final/libc_pic.a(rawmemchr.os)
 .debug_aranges
                0x0000000000000980       0x20 /home6/daewon2/Release/glibc/SP/SP_Linux/LP_Linux_Prj/REL/VDLinux.3.x.2012/toolchain/src/arm-mips-src-20121018/build.arm.cortex-a15/obj/glibc_0_final/libc_pic.a(closedir.os)
 .debug_aranges
                0x00000000000009a0       0x20 /home6/daewon2/Release/glibc/SP/SP_Linux/LP_Linux_Prj/REL/VDLinux.3.x.2012/toolchain/src/arm-mips-src-20121018/build.arm.cortex-a15/obj/glibc_0_final/libc_pic.a(readdir.os)
 .debug_aranges
                0x00000000000009c0       0x20 /home6/daewon2/Release/glibc/SP/SP_Linux/LP_Linux_Prj/REL/VDLinux.3.x.2012/toolchain/src/arm-mips-src-20121018/build.arm.cortex-a15/obj/glibc_0_final/libc_pic.a(rewinddir.os)
 .debug_aranges
                0x00000000000009e0       0x20 /home6/daewon2/Release/glibc/SP/SP_Linux/LP_Linux_Prj/REL/VDLinux.3.x.2012/toolchain/src/arm-mips-src-20121018/build.arm.cortex-a15/obj/glibc_0_final/libc_pic.a(getdents.os)
 .debug_aranges
                0x0000000000000a00       0x20 /home6/daewon2/Release/glibc/SP/SP_Linux/LP_Linux_Prj/REL/VDLinux.3.x.2012/toolchain/src/arm-mips-src-20121018/build.arm.cortex-a15/obj/glibc_0_final/libc_pic.a(fdopendir.os)
 .debug_aranges
                0x0000000000000a20       0x20 /home6/daewon2/Release/glibc/SP/SP_Linux/LP_Linux_Prj/REL/VDLinux.3.x.2012/toolchain/src/arm-mips-src-20121018/build.arm.cortex-a15/obj/glibc_0_final/libc_pic.a(_exit.os)
 .debug_aranges
                0x0000000000000a40       0x20 /home6/daewon2/Release/glibc/SP/SP_Linux/LP_Linux_Prj/REL/VDLinux.3.x.2012/toolchain/src/arm-mips-src-20121018/build.arm.cortex-a15/obj/glibc_0_final/libc_pic.a(getpid.os)
 .debug_aranges
                0x0000000000000a60       0x20 /home6/daewon2/Release/glibc/SP/SP_Linux/LP_Linux_Prj/REL/VDLinux.3.x.2012/toolchain/src/arm-mips-src-20121018/build.arm.cortex-a15/obj/glibc_0_final/libc_pic.a(xstat64.os)
 .debug_aranges
                0x0000000000000a80       0x20 /home6/daewon2/Release/glibc/SP/SP_Linux/LP_Linux_Prj/REL/VDLinux.3.x.2012/toolchain/src/arm-mips-src-20121018/build.arm.cortex-a15/obj/glibc_0_final/libc_pic.a(fxstat64.os)
 .debug_aranges
                0x0000000000000aa0       0x20 /home6/daewon2/Release/glibc/SP/SP_Linux/LP_Linux_Prj/REL/VDLinux.3.x.2012/toolchain/src/arm-mips-src-20121018/build.arm.cortex-a15/obj/glibc_0_final/libc_pic.a(lxstat64.os)
 .debug_aranges
                0x0000000000000ac0       0x28 /home6/daewon2/Release/glibc/SP/SP_Linux/LP_Linux_Prj/REL/VDLinux.3.x.2012/toolchain/src/arm-mips-src-20121018/build.arm.cortex-a15/obj/glibc_0_final/libc_pic.a(fcntl.os)
 .debug_aranges
                0x0000000000000ae8       0x20 /home6/daewon2/Release/glibc/SP/SP_Linux/LP_Linux_Prj/REL/VDLinux.3.x.2012/toolchain/src/arm-mips-src-20121018/build.arm.cortex-a15/obj/glibc_0_final/libc_pic.a(getpagesize.os)
 .debug_aranges
                0x0000000000000b08       0x28 /home6/daewon2/Release/glibc/SP/SP_Linux/LP_Linux_Prj/REL/VDLinux.3.x.2012/toolchain/src/arm-mips-src-20121018/build.arm.cortex-a15/obj/glibc_0_final/libc_pic.a(profil.os)
 .debug_aranges
                0x0000000000000b30       0x20 /home6/daewon2/Release/glibc/SP/SP_Linux/LP_Linux_Prj/REL/VDLinux.3.x.2012/toolchain/src/arm-mips-src-20121018/build.arm.cortex-a15/obj/glibc_0_final/libc_pic.a(prof-freq.os)
 .debug_aranges
                0x0000000000000b50       0x20 /home6/daewon2/Release/glibc/SP/SP_Linux/LP_Linux_Prj/REL/VDLinux.3.x.2012/toolchain/src/arm-mips-src-20121018/build.arm.cortex-a15/obj/glibc_0_final/libc_pic.a(libc-lowlevellock.os)
 .debug_aranges
                0x0000000000000b70       0x28 /home6/daewon2/Release/glibc/SP/SP_Linux/LP_Linux_Prj/REL/VDLinux.3.x.2012/toolchain/src/arm-mips-src-20121018/build.arm.cortex-a15/obj/glibc_0_final/libc_pic.a(libc-cancellation.os)
 .debug_aranges
                0x0000000000000b98       0x28 /home6/daewon2/Release/glibc/SP/SP_Linux/LP_Linux_Prj/REL/VDLinux.3.x.2012/toolchain/src/arm-mips-src-20121018/build.arm.cortex-a15/obj/glibc_0_final/libc_pic.a(sigaction.os)
 .debug_aranges
                0x0000000000000bc0      0x118 /home6/daewon2/Release/glibc/SP/SP_Linux/LP_Linux_Prj/REL/VDLinux.3.x.2012/toolchain/src/arm-mips-src-20121018/build.arm.cortex-a15/obj/glibc_0_final/libc_pic.a(forward.os)
 .debug_aranges
                0x0000000000000cd8       0x28 /home6/daewon2/Release/glibc/SP/SP_Linux/LP_Linux_Prj/REL/VDLinux.3.x.2012/toolchain/src/arm-mips-src-20121018/build.arm.cortex-a15/obj/glibc_0_final/libc_pic.a(exit.os)
 .debug_aranges
                0x0000000000000d00       0x30 /home6/daewon2/Release/glibc/SP/SP_Linux/LP_Linux_Prj/REL/VDLinux.3.x.2012/toolchain/src/arm-mips-src-20121018/build.arm.cortex-a15/obj/glibc_0_final/libc_pic.a(cxa_atexit.os)
 .debug_aranges
                0x0000000000000d30       0x20 /home6/daewon2/Release/glibc/SP/SP_Linux/LP_Linux_Prj/REL/VDLinux.3.x.2012/toolchain/src/arm-mips-src-20121018/scripts/arm-v7a15v3r1/lib/gcc/arm-v7a15v3r1-linux-gnueabi/4.6.4/libgcc.a(_aeabi_uldivmod.o)
 .debug_aranges
                0x0000000000000d50       0x20 /home6/daewon2/Release/glibc/SP/SP_Linux/LP_Linux_Prj/REL/VDLinux.3.x.2012/toolchain/src/arm-mips-src-20121018/scripts/arm-v7a15v3r1/lib/gcc/arm-v7a15v3r1-linux-gnueabi/4.6.4/libgcc.a(_dvmd_lnx.o)
 .debug_aranges
                0x0000000000000d70       0x28 /home6/daewon2/Release/glibc/SP/SP_Linux/LP_Linux_Prj/REL/VDLinux.3.x.2012/toolchain/src/arm-mips-src-20121018/scripts/arm-v7a15v3r1/lib/gcc/arm-v7a15v3r1-linux-gnueabi/4.6.4/libgcc.a(bpabi.o)
 .debug_aranges
                0x0000000000000d98       0x20 /home6/daewon2/Release/glibc/SP/SP_Linux/LP_Linux_Prj/REL/VDLinux.3.x.2012/toolchain/src/arm-mips-src-20121018/build.arm.cortex-a15/obj/glibc_0_final/libc_pic.a(raise.os)

.debug_pubnames
 *(.debug_pubnames)

.debug_info     0x0000000000000000    0x5c49a
 *(.debug_info)
 .debug_info    0x0000000000000000    0x4726e /home6/daewon2/Release/glibc/SP/SP_Linux/LP_Linux_Prj/REL/VDLinux.3.x.2012/toolchain/src/arm-mips-src-20121018/build.arm.cortex-a15/obj/glibc_0_final/elf/dl-allobjs.os
 .debug_info    0x000000000004726e      0x50c /home6/daewon2/Release/glibc/SP/SP_Linux/LP_Linux_Prj/REL/VDLinux.3.x.2012/toolchain/src/arm-mips-src-20121018/build.arm.cortex-a15/obj/glibc_0_final/libc_pic.a(check_fds.os)
 .debug_info    0x000000000004777a      0x1ac /home6/daewon2/Release/glibc/SP/SP_Linux/LP_Linux_Prj/REL/VDLinux.3.x.2012/toolchain/src/arm-mips-src-20121018/build.arm.cortex-a15/obj/glibc_0_final/libc_pic.a(errno.os)
 .debug_info    0x0000000000047926      0x580 /home6/daewon2/Release/glibc/SP/SP_Linux/LP_Linux_Prj/REL/VDLinux.3.x.2012/toolchain/src/arm-mips-src-20121018/build.arm.cortex-a15/obj/glibc_0_final/libc_pic.a(divdi3.os)
 .debug_info    0x0000000000047ea6      0x195 /home6/daewon2/Release/glibc/SP/SP_Linux/LP_Linux_Prj/REL/VDLinux.3.x.2012/toolchain/src/arm-mips-src-20121018/build.arm.cortex-a15/obj/glibc_0_final/libc_pic.a(strchr.os)
 .debug_info    0x000000000004803b       0xf8 /home6/daewon2/Release/glibc/SP/SP_Linux/LP_Linux_Prj/REL/VDLinux.3.x.2012/toolchain/src/arm-mips-src-20121018/build.arm.cortex-a15/obj/glibc_0_final/libc_pic.a(strcmp.os)
 .debug_info    0x0000000000048133      0x110 /home6/daewon2/Release/glibc/SP/SP_Linux/LP_Linux_Prj/REL/VDLinux.3.x.2012/toolchain/src/arm-mips-src-20121018/build.arm.cortex-a15/obj/glibc_0_final/libc_pic.a(strcpy.os)
 .debug_info    0x0000000000048243      0x194 /home6/daewon2/Release/glibc/SP/SP_Linux/LP_Linux_Prj/REL/VDLinux.3.x.2012/toolchain/src/arm-mips-src-20121018/build.arm.cortex-a15/obj/glibc_0_final/libc_pic.a(strnlen.os)
 .debug_info    0x00000000000483d7      0x19f /home6/daewon2/Release/glibc/SP/SP_Linux/LP_Linux_Prj/REL/VDLinux.3.x.2012/toolchain/src/arm-mips-src-20121018/build.arm.cortex-a15/obj/glibc_0_final/libc_pic.a(memchr.os)
 .debug_info    0x0000000000048576      0x6e0 /home6/daewon2/Release/glibc/SP/SP_Linux/LP_Linux_Prj/REL/VDLinux.3.x.2012/toolchain/src/arm-mips-src-20121018/build.arm.cortex-a15/obj/glibc_0_final/libc_pic.a(memcmp.os)
 .debug_info    0x0000000000048c56      0x15f /home6/daewon2/Release/glibc/SP/SP_Linux/LP_Linux_Prj/REL/VDLinux.3.x.2012/toolchain/src/arm-mips-src-20121018/build.arm.cortex-a15/obj/glibc_0_final/libc_pic.a(mempcpy.os)
 .debug_info    0x0000000000048db5       0xd9 /home6/daewon2/Release/glibc/SP/SP_Linux/LP_Linux_Prj/REL/VDLinux.3.x.2012/toolchain/src/arm-mips-src-20121018/build.arm.cortex-a15/obj/glibc_0_final/libc_pic.a(stpcpy.os)
 .debug_info    0x0000000000048e8e      0x3a0 /home6/daewon2/Release/glibc/SP/SP_Linux/LP_Linux_Prj/REL/VDLinux.3.x.2012/toolchain/src/arm-mips-src-20121018/build.arm.cortex-a15/obj/glibc_0_final/libc_pic.a(wordcopy.os)
 .debug_info    0x000000000004922e      0x189 /home6/daewon2/Release/glibc/SP/SP_Linux/LP_Linux_Prj/REL/VDLinux.3.x.2012/toolchain/src/arm-mips-src-20121018/build.arm.cortex-a15/obj/glibc_0_final/libc_pic.a(rawmemchr.os)
 .debug_info    0x00000000000493b7      0x2d4 /home6/daewon2/Release/glibc/SP/SP_Linux/LP_Linux_Prj/REL/VDLinux.3.x.2012/toolchain/src/arm-mips-src-20121018/build.arm.cortex-a15/obj/glibc_0_final/libc_pic.a(closedir.os)
 .debug_info    0x000000000004968b     0x118d /home6/daewon2/Release/glibc/SP/SP_Linux/LP_Linux_Prj/REL/VDLinux.3.x.2012/toolchain/src/arm-mips-src-20121018/build.arm.cortex-a15/obj/glibc_0_final/libc_pic.a(readdir.os)
 .debug_info    0x000000000004a818     0x10bb /home6/daewon2/Release/glibc/SP/SP_Linux/LP_Linux_Prj/REL/VDLinux.3.x.2012/toolchain/src/arm-mips-src-20121018/build.arm.cortex-a15/obj/glibc_0_final/libc_pic.a(rewinddir.os)
 .debug_info    0x000000000004b8d3      0x401 /home6/daewon2/Release/glibc/SP/SP_Linux/LP_Linux_Prj/REL/VDLinux.3.x.2012/toolchain/src/arm-mips-src-20121018/build.arm.cortex-a15/obj/glibc_0_final/libc_pic.a(getdents.os)
 .debug_info    0x000000000004bcd4      0x440 /home6/daewon2/Release/glibc/SP/SP_Linux/LP_Linux_Prj/REL/VDLinux.3.x.2012/toolchain/src/arm-mips-src-20121018/build.arm.cortex-a15/obj/glibc_0_final/libc_pic.a(fdopendir.os)
 .debug_info    0x000000000004c114      0x258 /home6/daewon2/Release/glibc/SP/SP_Linux/LP_Linux_Prj/REL/VDLinux.3.x.2012/toolchain/src/arm-mips-src-20121018/build.arm.cortex-a15/obj/glibc_0_final/libc_pic.a(_exit.os)
 .debug_info    0x000000000004c36c      0xf64 /home6/daewon2/Release/glibc/SP/SP_Linux/LP_Linux_Prj/REL/VDLinux.3.x.2012/toolchain/src/arm-mips-src-20121018/build.arm.cortex-a15/obj/glibc_0_final/libc_pic.a(getpid.os)
 .debug_info    0x000000000004d2d0       0xb5 /home6/daewon2/Release/glibc/SP/SP_Linux/LP_Linux_Prj/REL/VDLinux.3.x.2012/toolchain/src/arm-mips-src-20121018/build.arm.cortex-a15/obj/glibc_0_final/libc_pic.a(environ.os)
 .debug_info    0x000000000004d385      0x411 /home6/daewon2/Release/glibc/SP/SP_Linux/LP_Linux_Prj/REL/VDLinux.3.x.2012/toolchain/src/arm-mips-src-20121018/build.arm.cortex-a15/obj/glibc_0_final/libc_pic.a(xstat64.os)
 .debug_info    0x000000000004d796      0x405 /home6/daewon2/Release/glibc/SP/SP_Linux/LP_Linux_Prj/REL/VDLinux.3.x.2012/toolchain/src/arm-mips-src-20121018/build.arm.cortex-a15/obj/glibc_0_final/libc_pic.a(fxstat64.os)
 .debug_info    0x000000000004db9b      0x411 /home6/daewon2/Release/glibc/SP/SP_Linux/LP_Linux_Prj/REL/VDLinux.3.x.2012/toolchain/src/arm-mips-src-20121018/build.arm.cortex-a15/obj/glibc_0_final/libc_pic.a(lxstat64.os)
 .debug_info    0x000000000004dfac      0x4e6 /home6/daewon2/Release/glibc/SP/SP_Linux/LP_Linux_Prj/REL/VDLinux.3.x.2012/toolchain/src/arm-mips-src-20121018/build.arm.cortex-a15/obj/glibc_0_final/libc_pic.a(fcntl.os)
 .debug_info    0x000000000004e492     0x1bc1 /home6/daewon2/Release/glibc/SP/SP_Linux/LP_Linux_Prj/REL/VDLinux.3.x.2012/toolchain/src/arm-mips-src-20121018/build.arm.cortex-a15/obj/glibc_0_final/libc_pic.a(getpagesize.os)
 .debug_info    0x0000000000050053      0x8f9 /home6/daewon2/Release/glibc/SP/SP_Linux/LP_Linux_Prj/REL/VDLinux.3.x.2012/toolchain/src/arm-mips-src-20121018/build.arm.cortex-a15/obj/glibc_0_final/libc_pic.a(profil.os)
 .debug_info    0x000000000005094c     0x1bc1 /home6/daewon2/Release/glibc/SP/SP_Linux/LP_Linux_Prj/REL/VDLinux.3.x.2012/toolchain/src/arm-mips-src-20121018/build.arm.cortex-a15/obj/glibc_0_final/libc_pic.a(prof-freq.os)
 .debug_info    0x000000000005250d     0x104a /home6/daewon2/Release/glibc/SP/SP_Linux/LP_Linux_Prj/REL/VDLinux.3.x.2012/toolchain/src/arm-mips-src-20121018/build.arm.cortex-a15/obj/glibc_0_final/libc_pic.a(libc-lowlevellock.os)
 .debug_info    0x0000000000053557     0x11c1 /home6/daewon2/Release/glibc/SP/SP_Linux/LP_Linux_Prj/REL/VDLinux.3.x.2012/toolchain/src/arm-mips-src-20121018/build.arm.cortex-a15/obj/glibc_0_final/libc_pic.a(libc-cancellation.os)
 .debug_info    0x0000000000054718      0x28c /home6/daewon2/Release/glibc/SP/SP_Linux/LP_Linux_Prj/REL/VDLinux.3.x.2012/toolchain/src/arm-mips-src-20121018/build.arm.cortex-a15/obj/glibc_0_final/libc_pic.a(libc_multiple_threads.os)
 .debug_info    0x00000000000549a4     0x2127 /home6/daewon2/Release/glibc/SP/SP_Linux/LP_Linux_Prj/REL/VDLinux.3.x.2012/toolchain/src/arm-mips-src-20121018/build.arm.cortex-a15/obj/glibc_0_final/libc_pic.a(sigaction.os)
 .debug_info    0x0000000000056acb     0x2487 /home6/daewon2/Release/glibc/SP/SP_Linux/LP_Linux_Prj/REL/VDLinux.3.x.2012/toolchain/src/arm-mips-src-20121018/build.arm.cortex-a15/obj/glibc_0_final/libc_pic.a(forward.os)
 .debug_info    0x0000000000058f52      0xdf0 /home6/daewon2/Release/glibc/SP/SP_Linux/LP_Linux_Prj/REL/VDLinux.3.x.2012/toolchain/src/arm-mips-src-20121018/build.arm.cortex-a15/obj/glibc_0_final/libc_pic.a(exit.os)
 .debug_info    0x0000000000059d42     0x12cb /home6/daewon2/Release/glibc/SP/SP_Linux/LP_Linux_Prj/REL/VDLinux.3.x.2012/toolchain/src/arm-mips-src-20121018/build.arm.cortex-a15/obj/glibc_0_final/libc_pic.a(cxa_atexit.os)
 .debug_info    0x000000000005b00d      0x18c /home6/daewon2/Release/glibc/SP/SP_Linux/LP_Linux_Prj/REL/VDLinux.3.x.2012/toolchain/src/arm-mips-src-20121018/scripts/arm-v7a15v3r1/lib/gcc/arm-v7a15v3r1-linux-gnueabi/4.6.4/libgcc.a(_aeabi_uldivmod.o)
 .debug_info    0x000000000005b199      0x192 /home6/daewon2/Release/glibc/SP/SP_Linux/LP_Linux_Prj/REL/VDLinux.3.x.2012/toolchain/src/arm-mips-src-20121018/scripts/arm-v7a15v3r1/lib/gcc/arm-v7a15v3r1-linux-gnueabi/4.6.4/libgcc.a(_dvmd_lnx.o)
 .debug_info    0x000000000005b32b       0xf0 /home6/daewon2/Release/glibc/SP/SP_Linux/LP_Linux_Prj/REL/VDLinux.3.x.2012/toolchain/src/arm-mips-src-20121018/scripts/arm-v7a15v3r1/lib/gcc/arm-v7a15v3r1-linux-gnueabi/4.6.4/libgcc.a(bpabi.o)
 .debug_info    0x000000000005b41b     0x107f /home6/daewon2/Release/glibc/SP/SP_Linux/LP_Linux_Prj/REL/VDLinux.3.x.2012/toolchain/src/arm-mips-src-20121018/build.arm.cortex-a15/obj/glibc_0_final/libc_pic.a(raise.os)

.debug_abbrev   0x0000000000000000     0x96eb
 *(.debug_abbrev)
 .debug_abbrev  0x0000000000000000     0x6139 /home6/daewon2/Release/glibc/SP/SP_Linux/LP_Linux_Prj/REL/VDLinux.3.x.2012/toolchain/src/arm-mips-src-20121018/build.arm.cortex-a15/obj/glibc_0_final/elf/dl-allobjs.os
 .debug_abbrev  0x0000000000006139      0x18d /home6/daewon2/Release/glibc/SP/SP_Linux/LP_Linux_Prj/REL/VDLinux.3.x.2012/toolchain/src/arm-mips-src-20121018/build.arm.cortex-a15/obj/glibc_0_final/libc_pic.a(check_fds.os)
 .debug_abbrev  0x00000000000062c6       0xcc /home6/daewon2/Release/glibc/SP/SP_Linux/LP_Linux_Prj/REL/VDLinux.3.x.2012/toolchain/src/arm-mips-src-20121018/build.arm.cortex-a15/obj/glibc_0_final/libc_pic.a(errno.os)
 .debug_abbrev  0x0000000000006392      0x175 /home6/daewon2/Release/glibc/SP/SP_Linux/LP_Linux_Prj/REL/VDLinux.3.x.2012/toolchain/src/arm-mips-src-20121018/build.arm.cortex-a15/obj/glibc_0_final/libc_pic.a(divdi3.os)
 .debug_abbrev  0x0000000000006507       0xfb /home6/daewon2/Release/glibc/SP/SP_Linux/LP_Linux_Prj/REL/VDLinux.3.x.2012/toolchain/src/arm-mips-src-20121018/build.arm.cortex-a15/obj/glibc_0_final/libc_pic.a(strchr.os)
 .debug_abbrev  0x0000000000006602       0x85 /home6/daewon2/Release/glibc/SP/SP_Linux/LP_Linux_Prj/REL/VDLinux.3.x.2012/toolchain/src/arm-mips-src-20121018/build.arm.cortex-a15/obj/glibc_0_final/libc_pic.a(strcmp.os)
 .debug_abbrev  0x0000000000006687       0xae /home6/daewon2/Release/glibc/SP/SP_Linux/LP_Linux_Prj/REL/VDLinux.3.x.2012/toolchain/src/arm-mips-src-20121018/build.arm.cortex-a15/obj/glibc_0_final/libc_pic.a(strcpy.os)
 .debug_abbrev  0x0000000000006735      0x103 /home6/daewon2/Release/glibc/SP/SP_Linux/LP_Linux_Prj/REL/VDLinux.3.x.2012/toolchain/src/arm-mips-src-20121018/build.arm.cortex-a15/obj/glibc_0_final/libc_pic.a(strnlen.os)
 .debug_abbrev  0x0000000000006838      0x12f /home6/daewon2/Release/glibc/SP/SP_Linux/LP_Linux_Prj/REL/VDLinux.3.x.2012/toolchain/src/arm-mips-src-20121018/build.arm.cortex-a15/obj/glibc_0_final/libc_pic.a(memchr.os)
 .debug_abbrev  0x0000000000006967      0x188 /home6/daewon2/Release/glibc/SP/SP_Linux/LP_Linux_Prj/REL/VDLinux.3.x.2012/toolchain/src/arm-mips-src-20121018/build.arm.cortex-a15/obj/glibc_0_final/libc_pic.a(memcmp.os)
 .debug_abbrev  0x0000000000006aef       0xbf /home6/daewon2/Release/glibc/SP/SP_Linux/LP_Linux_Prj/REL/VDLinux.3.x.2012/toolchain/src/arm-mips-src-20121018/build.arm.cortex-a15/obj/glibc_0_final/libc_pic.a(mempcpy.os)
 .debug_abbrev  0x0000000000006bae       0x90 /home6/daewon2/Release/glibc/SP/SP_Linux/LP_Linux_Prj/REL/VDLinux.3.x.2012/toolchain/src/arm-mips-src-20121018/build.arm.cortex-a15/obj/glibc_0_final/libc_pic.a(stpcpy.os)
 .debug_abbrev  0x0000000000006c3e       0xf7 /home6/daewon2/Release/glibc/SP/SP_Linux/LP_Linux_Prj/REL/VDLinux.3.x.2012/toolchain/src/arm-mips-src-20121018/build.arm.cortex-a15/obj/glibc_0_final/libc_pic.a(wordcopy.os)
 .debug_abbrev  0x0000000000006d35      0x105 /home6/daewon2/Release/glibc/SP/SP_Linux/LP_Linux_Prj/REL/VDLinux.3.x.2012/toolchain/src/arm-mips-src-20121018/build.arm.cortex-a15/obj/glibc_0_final/libc_pic.a(rawmemchr.os)
 .debug_abbrev  0x0000000000006e3a      0x128 /home6/daewon2/Release/glibc/SP/SP_Linux/LP_Linux_Prj/REL/VDLinux.3.x.2012/toolchain/src/arm-mips-src-20121018/build.arm.cortex-a15/obj/glibc_0_final/libc_pic.a(closedir.os)
 .debug_abbrev  0x0000000000006f62      0x229 /home6/daewon2/Release/glibc/SP/SP_Linux/LP_Linux_Prj/REL/VDLinux.3.x.2012/toolchain/src/arm-mips-src-20121018/build.arm.cortex-a15/obj/glibc_0_final/libc_pic.a(readdir.os)
 .debug_abbrev  0x000000000000718b      0x1ff /home6/daewon2/Release/glibc/SP/SP_Linux/LP_Linux_Prj/REL/VDLinux.3.x.2012/toolchain/src/arm-mips-src-20121018/build.arm.cortex-a15/obj/glibc_0_final/libc_pic.a(rewinddir.os)
 .debug_abbrev  0x000000000000738a      0x17d /home6/daewon2/Release/glibc/SP/SP_Linux/LP_Linux_Prj/REL/VDLinux.3.x.2012/toolchain/src/arm-mips-src-20121018/build.arm.cortex-a15/obj/glibc_0_final/libc_pic.a(getdents.os)
 .debug_abbrev  0x0000000000007507      0x121 /home6/daewon2/Release/glibc/SP/SP_Linux/LP_Linux_Prj/REL/VDLinux.3.x.2012/toolchain/src/arm-mips-src-20121018/build.arm.cortex-a15/obj/glibc_0_final/libc_pic.a(fdopendir.os)
 .debug_abbrev  0x0000000000007628      0x13d /home6/daewon2/Release/glibc/SP/SP_Linux/LP_Linux_Prj/REL/VDLinux.3.x.2012/toolchain/src/arm-mips-src-20121018/build.arm.cortex-a15/obj/glibc_0_final/libc_pic.a(_exit.os)
 .debug_abbrev  0x0000000000007765      0x246 /home6/daewon2/Release/glibc/SP/SP_Linux/LP_Linux_Prj/REL/VDLinux.3.x.2012/toolchain/src/arm-mips-src-20121018/build.arm.cortex-a15/obj/glibc_0_final/libc_pic.a(getpid.os)
 .debug_abbrev  0x00000000000079ab       0x44 /home6/daewon2/Release/glibc/SP/SP_Linux/LP_Linux_Prj/REL/VDLinux.3.x.2012/toolchain/src/arm-mips-src-20121018/build.arm.cortex-a15/obj/glibc_0_final/libc_pic.a(environ.os)
 .debug_abbrev  0x00000000000079ef      0x133 /home6/daewon2/Release/glibc/SP/SP_Linux/LP_Linux_Prj/REL/VDLinux.3.x.2012/toolchain/src/arm-mips-src-20121018/build.arm.cortex-a15/obj/glibc_0_final/libc_pic.a(xstat64.os)
 .debug_abbrev  0x0000000000007b22      0x133 /home6/daewon2/Release/glibc/SP/SP_Linux/LP_Linux_Prj/REL/VDLinux.3.x.2012/toolchain/src/arm-mips-src-20121018/build.arm.cortex-a15/obj/glibc_0_final/libc_pic.a(fxstat64.os)
 .debug_abbrev  0x0000000000007c55      0x133 /home6/daewon2/Release/glibc/SP/SP_Linux/LP_Linux_Prj/REL/VDLinux.3.x.2012/toolchain/src/arm-mips-src-20121018/build.arm.cortex-a15/obj/glibc_0_final/libc_pic.a(lxstat64.os)
 .debug_abbrev  0x0000000000007d88      0x1b5 /home6/daewon2/Release/glibc/SP/SP_Linux/LP_Linux_Prj/REL/VDLinux.3.x.2012/toolchain/src/arm-mips-src-20121018/build.arm.cortex-a15/obj/glibc_0_final/libc_pic.a(fcntl.os)
 .debug_abbrev  0x0000000000007f3d      0x1f5 /home6/daewon2/Release/glibc/SP/SP_Linux/LP_Linux_Prj/REL/VDLinux.3.x.2012/toolchain/src/arm-mips-src-20121018/build.arm.cortex-a15/obj/glibc_0_final/libc_pic.a(getpagesize.os)
 .debug_abbrev  0x0000000000008132      0x20d /home6/daewon2/Release/glibc/SP/SP_Linux/LP_Linux_Prj/REL/VDLinux.3.x.2012/toolchain/src/arm-mips-src-20121018/build.arm.cortex-a15/obj/glibc_0_final/libc_pic.a(profil.os)
 .debug_abbrev  0x000000000000833f      0x1f5 /home6/daewon2/Release/glibc/SP/SP_Linux/LP_Linux_Prj/REL/VDLinux.3.x.2012/toolchain/src/arm-mips-src-20121018/build.arm.cortex-a15/obj/glibc_0_final/libc_pic.a(prof-freq.os)
 .debug_abbrev  0x0000000000008534      0x20b /home6/daewon2/Release/glibc/SP/SP_Linux/LP_Linux_Prj/REL/VDLinux.3.x.2012/toolchain/src/arm-mips-src-20121018/build.arm.cortex-a15/obj/glibc_0_final/libc_pic.a(libc-lowlevellock.os)
 .debug_abbrev  0x000000000000873f      0x27b /home6/daewon2/Release/glibc/SP/SP_Linux/LP_Linux_Prj/REL/VDLinux.3.x.2012/toolchain/src/arm-mips-src-20121018/build.arm.cortex-a15/obj/glibc_0_final/libc_pic.a(libc-cancellation.os)
 .debug_abbrev  0x00000000000089ba      0x102 /home6/daewon2/Release/glibc/SP/SP_Linux/LP_Linux_Prj/REL/VDLinux.3.x.2012/toolchain/src/arm-mips-src-20121018/build.arm.cortex-a15/obj/glibc_0_final/libc_pic.a(libc_multiple_threads.os)
 .debug_abbrev  0x0000000000008abc      0x2b3 /home6/daewon2/Release/glibc/SP/SP_Linux/LP_Linux_Prj/REL/VDLinux.3.x.2012/toolchain/src/arm-mips-src-20121018/build.arm.cortex-a15/obj/glibc_0_final/libc_pic.a(sigaction.os)
 .debug_abbrev  0x0000000000008d6f      0x253 /home6/daewon2/Release/glibc/SP/SP_Linux/LP_Linux_Prj/REL/VDLinux.3.x.2012/toolchain/src/arm-mips-src-20121018/build.arm.cortex-a15/obj/glibc_0_final/libc_pic.a(forward.os)
 .debug_abbrev  0x0000000000008fc2      0x20d /home6/daewon2/Release/glibc/SP/SP_Linux/LP_Linux_Prj/REL/VDLinux.3.x.2012/toolchain/src/arm-mips-src-20121018/build.arm.cortex-a15/obj/glibc_0_final/libc_pic.a(exit.os)
 .debug_abbrev  0x00000000000091cf      0x256 /home6/daewon2/Release/glibc/SP/SP_Linux/LP_Linux_Prj/REL/VDLinux.3.x.2012/toolchain/src/arm-mips-src-20121018/build.arm.cortex-a15/obj/glibc_0_final/libc_pic.a(cxa_atexit.os)
 .debug_abbrev  0x0000000000009425       0x14 /home6/daewon2/Release/glibc/SP/SP_Linux/LP_Linux_Prj/REL/VDLinux.3.x.2012/toolchain/src/arm-mips-src-20121018/scripts/arm-v7a15v3r1/lib/gcc/arm-v7a15v3r1-linux-gnueabi/4.6.4/libgcc.a(_aeabi_uldivmod.o)
 .debug_abbrev  0x0000000000009439       0x14 /home6/daewon2/Release/glibc/SP/SP_Linux/LP_Linux_Prj/REL/VDLinux.3.x.2012/toolchain/src/arm-mips-src-20121018/scripts/arm-v7a15v3r1/lib/gcc/arm-v7a15v3r1-linux-gnueabi/4.6.4/libgcc.a(_dvmd_lnx.o)
 .debug_abbrev  0x000000000000944d       0x6e /home6/daewon2/Release/glibc/SP/SP_Linux/LP_Linux_Prj/REL/VDLinux.3.x.2012/toolchain/src/arm-mips-src-20121018/scripts/arm-v7a15v3r1/lib/gcc/arm-v7a15v3r1-linux-gnueabi/4.6.4/libgcc.a(bpabi.o)
 .debug_abbrev  0x00000000000094bb      0x230 /home6/daewon2/Release/glibc/SP/SP_Linux/LP_Linux_Prj/REL/VDLinux.3.x.2012/toolchain/src/arm-mips-src-20121018/build.arm.cortex-a15/obj/glibc_0_final/libc_pic.a(raise.os)

.debug_line     0x0000000000000000    0x107bf
 *(.debug_line)
 .debug_line    0x0000000000000000     0xb7dc /home6/daewon2/Release/glibc/SP/SP_Linux/LP_Linux_Prj/REL/VDLinux.3.x.2012/toolchain/src/arm-mips-src-20121018/build.arm.cortex-a15/obj/glibc_0_final/elf/dl-allobjs.os
 .debug_line    0x000000000000b7dc      0x175 /home6/daewon2/Release/glibc/SP/SP_Linux/LP_Linux_Prj/REL/VDLinux.3.x.2012/toolchain/src/arm-mips-src-20121018/build.arm.cortex-a15/obj/glibc_0_final/libc_pic.a(check_fds.os)
 .debug_line    0x000000000000b951       0x91 /home6/daewon2/Release/glibc/SP/SP_Linux/LP_Linux_Prj/REL/VDLinux.3.x.2012/toolchain/src/arm-mips-src-20121018/build.arm.cortex-a15/obj/glibc_0_final/libc_pic.a(errno.os)
 .debug_line    0x000000000000b9e2      0x1d2 /home6/daewon2/Release/glibc/SP/SP_Linux/LP_Linux_Prj/REL/VDLinux.3.x.2012/toolchain/src/arm-mips-src-20121018/build.arm.cortex-a15/obj/glibc_0_final/libc_pic.a(divdi3.os)
 .debug_line    0x000000000000bbb4       0xb9 /home6/daewon2/Release/glibc/SP/SP_Linux/LP_Linux_Prj/REL/VDLinux.3.x.2012/toolchain/src/arm-mips-src-20121018/build.arm.cortex-a15/obj/glibc_0_final/libc_pic.a(strchr.os)
 .debug_line    0x000000000000bc6d       0x3f /home6/daewon2/Release/glibc/SP/SP_Linux/LP_Linux_Prj/REL/VDLinux.3.x.2012/toolchain/src/arm-mips-src-20121018/build.arm.cortex-a15/obj/glibc_0_final/libc_pic.a(strcmp.os)
 .debug_line    0x000000000000bcac      0x116 /home6/daewon2/Release/glibc/SP/SP_Linux/LP_Linux_Prj/REL/VDLinux.3.x.2012/toolchain/src/arm-mips-src-20121018/build.arm.cortex-a15/obj/glibc_0_final/libc_pic.a(strcpy.os)
 .debug_line    0x000000000000bdc2      0x15e /home6/daewon2/Release/glibc/SP/SP_Linux/LP_Linux_Prj/REL/VDLinux.3.x.2012/toolchain/src/arm-mips-src-20121018/build.arm.cortex-a15/obj/glibc_0_final/libc_pic.a(strnlen.os)
 .debug_line    0x000000000000bf20      0x17e /home6/daewon2/Release/glibc/SP/SP_Linux/LP_Linux_Prj/REL/VDLinux.3.x.2012/toolchain/src/arm-mips-src-20121018/build.arm.cortex-a15/obj/glibc_0_final/libc_pic.a(memchr.os)
 .debug_line    0x000000000000c09e      0x24b /home6/daewon2/Release/glibc/SP/SP_Linux/LP_Linux_Prj/REL/VDLinux.3.x.2012/toolchain/src/arm-mips-src-20121018/build.arm.cortex-a15/obj/glibc_0_final/libc_pic.a(memcmp.os)
 .debug_line    0x000000000000c2e9      0x153 /home6/daewon2/Release/glibc/SP/SP_Linux/LP_Linux_Prj/REL/VDLinux.3.x.2012/toolchain/src/arm-mips-src-20121018/build.arm.cortex-a15/obj/glibc_0_final/libc_pic.a(mempcpy.os)
 .debug_line    0x000000000000c43c       0x46 /home6/daewon2/Release/glibc/SP/SP_Linux/LP_Linux_Prj/REL/VDLinux.3.x.2012/toolchain/src/arm-mips-src-20121018/build.arm.cortex-a15/obj/glibc_0_final/libc_pic.a(stpcpy.os)
 .debug_line    0x000000000000c482      0x257 /home6/daewon2/Release/glibc/SP/SP_Linux/LP_Linux_Prj/REL/VDLinux.3.x.2012/toolchain/src/arm-mips-src-20121018/build.arm.cortex-a15/obj/glibc_0_final/libc_pic.a(wordcopy.os)
 .debug_line    0x000000000000c6d9       0x91 /home6/daewon2/Release/glibc/SP/SP_Linux/LP_Linux_Prj/REL/VDLinux.3.x.2012/toolchain/src/arm-mips-src-20121018/build.arm.cortex-a15/obj/glibc_0_final/libc_pic.a(rawmemchr.os)
 .debug_line    0x000000000000c76a      0x216 /home6/daewon2/Release/glibc/SP/SP_Linux/LP_Linux_Prj/REL/VDLinux.3.x.2012/toolchain/src/arm-mips-src-20121018/build.arm.cortex-a15/obj/glibc_0_final/libc_pic.a(closedir.os)
 .debug_line    0x000000000000c980      0x3db /home6/daewon2/Release/glibc/SP/SP_Linux/LP_Linux_Prj/REL/VDLinux.3.x.2012/toolchain/src/arm-mips-src-20121018/build.arm.cortex-a15/obj/glibc_0_final/libc_pic.a(readdir.os)
 .debug_line    0x000000000000cd5b      0x385 /home6/daewon2/Release/glibc/SP/SP_Linux/LP_Linux_Prj/REL/VDLinux.3.x.2012/toolchain/src/arm-mips-src-20121018/build.arm.cortex-a15/obj/glibc_0_final/libc_pic.a(rewinddir.os)
 .debug_line    0x000000000000d0e0      0x2d3 /home6/daewon2/Release/glibc/SP/SP_Linux/LP_Linux_Prj/REL/VDLinux.3.x.2012/toolchain/src/arm-mips-src-20121018/build.arm.cortex-a15/obj/glibc_0_final/libc_pic.a(getdents.os)
 .debug_line    0x000000000000d3b3      0x252 /home6/daewon2/Release/glibc/SP/SP_Linux/LP_Linux_Prj/REL/VDLinux.3.x.2012/toolchain/src/arm-mips-src-20121018/build.arm.cortex-a15/obj/glibc_0_final/libc_pic.a(fdopendir.os)
 .debug_line    0x000000000000d605       0xcd /home6/daewon2/Release/glibc/SP/SP_Linux/LP_Linux_Prj/REL/VDLinux.3.x.2012/toolchain/src/arm-mips-src-20121018/build.arm.cortex-a15/obj/glibc_0_final/libc_pic.a(_exit.os)
 .debug_line    0x000000000000d6d2      0x32c /home6/daewon2/Release/glibc/SP/SP_Linux/LP_Linux_Prj/REL/VDLinux.3.x.2012/toolchain/src/arm-mips-src-20121018/build.arm.cortex-a15/obj/glibc_0_final/libc_pic.a(getpid.os)
 .debug_line    0x000000000000d9fe       0x2a /home6/daewon2/Release/glibc/SP/SP_Linux/LP_Linux_Prj/REL/VDLinux.3.x.2012/toolchain/src/arm-mips-src-20121018/build.arm.cortex-a15/obj/glibc_0_final/libc_pic.a(environ.os)
 .debug_line    0x000000000000da28      0x126 /home6/daewon2/Release/glibc/SP/SP_Linux/LP_Linux_Prj/REL/VDLinux.3.x.2012/toolchain/src/arm-mips-src-20121018/build.arm.cortex-a15/obj/glibc_0_final/libc_pic.a(xstat64.os)
 .debug_line    0x000000000000db4e      0x127 /home6/daewon2/Release/glibc/SP/SP_Linux/LP_Linux_Prj/REL/VDLinux.3.x.2012/toolchain/src/arm-mips-src-20121018/build.arm.cortex-a15/obj/glibc_0_final/libc_pic.a(fxstat64.os)
 .debug_line    0x000000000000dc75      0x127 /home6/daewon2/Release/glibc/SP/SP_Linux/LP_Linux_Prj/REL/VDLinux.3.x.2012/toolchain/src/arm-mips-src-20121018/build.arm.cortex-a15/obj/glibc_0_final/libc_pic.a(lxstat64.os)
 .debug_line    0x000000000000dd9c      0x2ab /home6/daewon2/Release/glibc/SP/SP_Linux/LP_Linux_Prj/REL/VDLinux.3.x.2012/toolchain/src/arm-mips-src-20121018/build.arm.cortex-a15/obj/glibc_0_final/libc_pic.a(fcntl.os)
 .debug_line    0x000000000000e047      0x292 /home6/daewon2/Release/glibc/SP/SP_Linux/LP_Linux_Prj/REL/VDLinux.3.x.2012/toolchain/src/arm-mips-src-20121018/build.arm.cortex-a15/obj/glibc_0_final/libc_pic.a(getpagesize.os)
 .debug_line    0x000000000000e2d9      0x3e4 /home6/daewon2/Release/glibc/SP/SP_Linux/LP_Linux_Prj/REL/VDLinux.3.x.2012/toolchain/src/arm-mips-src-20121018/build.arm.cortex-a15/obj/glibc_0_final/libc_pic.a(profil.os)
 .debug_line    0x000000000000e6bd      0x290 /home6/daewon2/Release/glibc/SP/SP_Linux/LP_Linux_Prj/REL/VDLinux.3.x.2012/toolchain/src/arm-mips-src-20121018/build.arm.cortex-a15/obj/glibc_0_final/libc_pic.a(prof-freq.os)
 .debug_line    0x000000000000e94d      0x355 /home6/daewon2/Release/glibc/SP/SP_Linux/LP_Linux_Prj/REL/VDLinux.3.x.2012/toolchain/src/arm-mips-src-20121018/build.arm.cortex-a15/obj/glibc_0_final/libc_pic.a(libc-lowlevellock.os)
 .debug_line    0x000000000000eca2      0x386 /home6/daewon2/Release/glibc/SP/SP_Linux/LP_Linux_Prj/REL/VDLinux.3.x.2012/toolchain/src/arm-mips-src-20121018/build.arm.cortex-a15/obj/glibc_0_final/libc_pic.a(libc-cancellation.os)
 .debug_line    0x000000000000f028      0x119 /home6/daewon2/Release/glibc/SP/SP_Linux/LP_Linux_Prj/REL/VDLinux.3.x.2012/toolchain/src/arm-mips-src-20121018/build.arm.cortex-a15/obj/glibc_0_final/libc_pic.a(libc_multiple_threads.os)
 .debug_line    0x000000000000f141      0x40b /home6/daewon2/Release/glibc/SP/SP_Linux/LP_Linux_Prj/REL/VDLinux.3.x.2012/toolchain/src/arm-mips-src-20121018/build.arm.cortex-a15/obj/glibc_0_final/libc_pic.a(sigaction.os)
 .debug_line    0x000000000000f54c      0x62b /home6/daewon2/Release/glibc/SP/SP_Linux/LP_Linux_Prj/REL/VDLinux.3.x.2012/toolchain/src/arm-mips-src-20121018/build.arm.cortex-a15/obj/glibc_0_final/libc_pic.a(forward.os)
 .debug_line    0x000000000000fb77      0x23d /home6/daewon2/Release/glibc/SP/SP_Linux/LP_Linux_Prj/REL/VDLinux.3.x.2012/toolchain/src/arm-mips-src-20121018/build.arm.cortex-a15/obj/glibc_0_final/libc_pic.a(exit.os)
 .debug_line    0x000000000000fdb4      0x3ca /home6/daewon2/Release/glibc/SP/SP_Linux/LP_Linux_Prj/REL/VDLinux.3.x.2012/toolchain/src/arm-mips-src-20121018/build.arm.cortex-a15/obj/glibc_0_final/libc_pic.a(cxa_atexit.os)
 .debug_line    0x000000000001017e       0xec /home6/daewon2/Release/glibc/SP/SP_Linux/LP_Linux_Prj/REL/VDLinux.3.x.2012/toolchain/src/arm-mips-src-20121018/scripts/arm-v7a15v3r1/lib/gcc/arm-v7a15v3r1-linux-gnueabi/4.6.4/libgcc.a(_aeabi_uldivmod.o)
 .debug_line    0x000000000001026a       0xef /home6/daewon2/Release/glibc/SP/SP_Linux/LP_Linux_Prj/REL/VDLinux.3.x.2012/toolchain/src/arm-mips-src-20121018/scripts/arm-v7a15v3r1/lib/gcc/arm-v7a15v3r1-linux-gnueabi/4.6.4/libgcc.a(_dvmd_lnx.o)
 .debug_line    0x0000000000010359       0xf9 /home6/daewon2/Release/glibc/SP/SP_Linux/LP_Linux_Prj/REL/VDLinux.3.x.2012/toolchain/src/arm-mips-src-20121018/scripts/arm-v7a15v3r1/lib/gcc/arm-v7a15v3r1-linux-gnueabi/4.6.4/libgcc.a(bpabi.o)
 .debug_line    0x0000000000010452      0x36d /home6/daewon2/Release/glibc/SP/SP_Linux/LP_Linux_Prj/REL/VDLinux.3.x.2012/toolchain/src/arm-mips-src-20121018/build.arm.cortex-a15/obj/glibc_0_final/libc_pic.a(raise.os)

.debug_frame    0x0000000000000000     0x25c0
 *(.debug_frame)
 .debug_frame   0x0000000000000000     0x15bc /home6/daewon2/Release/glibc/SP/SP_Linux/LP_Linux_Prj/REL/VDLinux.3.x.2012/toolchain/src/arm-mips-src-20121018/build.arm.cortex-a15/obj/glibc_0_final/elf/dl-allobjs.os
 .debug_frame   0x00000000000015bc       0x4c /home6/daewon2/Release/glibc/SP/SP_Linux/LP_Linux_Prj/REL/VDLinux.3.x.2012/toolchain/src/arm-mips-src-20121018/build.arm.cortex-a15/obj/glibc_0_final/libc_pic.a(check_fds.os)
 .debug_frame   0x0000000000001608       0xa0 /home6/daewon2/Release/glibc/SP/SP_Linux/LP_Linux_Prj/REL/VDLinux.3.x.2012/toolchain/src/arm-mips-src-20121018/build.arm.cortex-a15/obj/glibc_0_final/libc_pic.a(divdi3.os)
 .debug_frame   0x00000000000016a8       0x20 /home6/daewon2/Release/glibc/SP/SP_Linux/LP_Linux_Prj/REL/VDLinux.3.x.2012/toolchain/src/arm-mips-src-20121018/build.arm.cortex-a15/obj/glibc_0_final/libc_pic.a(setjmp.os)
 .debug_frame   0x00000000000016c8       0x2c /home6/daewon2/Release/glibc/SP/SP_Linux/LP_Linux_Prj/REL/VDLinux.3.x.2012/toolchain/src/arm-mips-src-20121018/build.arm.cortex-a15/obj/glibc_0_final/libc_pic.a(__longjmp.os)
 .debug_frame   0x00000000000016f4       0x34 /home6/daewon2/Release/glibc/SP/SP_Linux/LP_Linux_Prj/REL/VDLinux.3.x.2012/toolchain/src/arm-mips-src-20121018/build.arm.cortex-a15/obj/glibc_0_final/libc_pic.a(strchr.os)
 .debug_frame   0x0000000000001728       0x20 /home6/daewon2/Release/glibc/SP/SP_Linux/LP_Linux_Prj/REL/VDLinux.3.x.2012/toolchain/src/arm-mips-src-20121018/build.arm.cortex-a15/obj/glibc_0_final/libc_pic.a(strcmp.os)
 .debug_frame   0x0000000000001748       0x20 /home6/daewon2/Release/glibc/SP/SP_Linux/LP_Linux_Prj/REL/VDLinux.3.x.2012/toolchain/src/arm-mips-src-20121018/build.arm.cortex-a15/obj/glibc_0_final/libc_pic.a(strcpy.os)
 .debug_frame   0x0000000000001768       0x20 /home6/daewon2/Release/glibc/SP/SP_Linux/LP_Linux_Prj/REL/VDLinux.3.x.2012/toolchain/src/arm-mips-src-20121018/build.arm.cortex-a15/obj/glibc_0_final/libc_pic.a(strlen.os)
 .debug_frame   0x0000000000001788       0x2c /home6/daewon2/Release/glibc/SP/SP_Linux/LP_Linux_Prj/REL/VDLinux.3.x.2012/toolchain/src/arm-mips-src-20121018/build.arm.cortex-a15/obj/glibc_0_final/libc_pic.a(strnlen.os)
 .debug_frame   0x00000000000017b4       0x2c /home6/daewon2/Release/glibc/SP/SP_Linux/LP_Linux_Prj/REL/VDLinux.3.x.2012/toolchain/src/arm-mips-src-20121018/build.arm.cortex-a15/obj/glibc_0_final/libc_pic.a(memchr.os)
 .debug_frame   0x00000000000017e0       0x38 /home6/daewon2/Release/glibc/SP/SP_Linux/LP_Linux_Prj/REL/VDLinux.3.x.2012/toolchain/src/arm-mips-src-20121018/build.arm.cortex-a15/obj/glibc_0_final/libc_pic.a(memcmp.os)
 .debug_frame   0x0000000000001818       0x7c /home6/daewon2/Release/glibc/SP/SP_Linux/LP_Linux_Prj/REL/VDLinux.3.x.2012/toolchain/src/arm-mips-src-20121018/build.arm.cortex-a15/obj/glibc_0_final/libc_pic.a(memmove.os)
 .debug_frame   0x0000000000001894       0x20 /home6/daewon2/Release/glibc/SP/SP_Linux/LP_Linux_Prj/REL/VDLinux.3.x.2012/toolchain/src/arm-mips-src-20121018/build.arm.cortex-a15/obj/glibc_0_final/libc_pic.a(memset.os)
 .debug_frame   0x00000000000018b4       0x30 /home6/daewon2/Release/glibc/SP/SP_Linux/LP_Linux_Prj/REL/VDLinux.3.x.2012/toolchain/src/arm-mips-src-20121018/build.arm.cortex-a15/obj/glibc_0_final/libc_pic.a(mempcpy.os)
 .debug_frame   0x00000000000018e4       0x20 /home6/daewon2/Release/glibc/SP/SP_Linux/LP_Linux_Prj/REL/VDLinux.3.x.2012/toolchain/src/arm-mips-src-20121018/build.arm.cortex-a15/obj/glibc_0_final/libc_pic.a(stpcpy.os)
 .debug_frame   0x0000000000001904       0x7c /home6/daewon2/Release/glibc/SP/SP_Linux/LP_Linux_Prj/REL/VDLinux.3.x.2012/toolchain/src/arm-mips-src-20121018/build.arm.cortex-a15/obj/glibc_0_final/libc_pic.a(memcpy.os)
 .debug_frame   0x0000000000001980       0x7c /home6/daewon2/Release/glibc/SP/SP_Linux/LP_Linux_Prj/REL/VDLinux.3.x.2012/toolchain/src/arm-mips-src-20121018/build.arm.cortex-a15/obj/glibc_0_final/libc_pic.a(wordcopy.os)
 .debug_frame   0x00000000000019fc       0x2c /home6/daewon2/Release/glibc/SP/SP_Linux/LP_Linux_Prj/REL/VDLinux.3.x.2012/toolchain/src/arm-mips-src-20121018/build.arm.cortex-a15/obj/glibc_0_final/libc_pic.a(rawmemchr.os)
 .debug_frame   0x0000000000001a28       0x2c /home6/daewon2/Release/glibc/SP/SP_Linux/LP_Linux_Prj/REL/VDLinux.3.x.2012/toolchain/src/arm-mips-src-20121018/build.arm.cortex-a15/obj/glibc_0_final/libc_pic.a(closedir.os)
 .debug_frame   0x0000000000001a54       0x30 /home6/daewon2/Release/glibc/SP/SP_Linux/LP_Linux_Prj/REL/VDLinux.3.x.2012/toolchain/src/arm-mips-src-20121018/build.arm.cortex-a15/obj/glibc_0_final/libc_pic.a(readdir.os)
 .debug_frame   0x0000000000001a84       0x2c /home6/daewon2/Release/glibc/SP/SP_Linux/LP_Linux_Prj/REL/VDLinux.3.x.2012/toolchain/src/arm-mips-src-20121018/build.arm.cortex-a15/obj/glibc_0_final/libc_pic.a(rewinddir.os)
 .debug_frame   0x0000000000001ab0       0x30 /home6/daewon2/Release/glibc/SP/SP_Linux/LP_Linux_Prj/REL/VDLinux.3.x.2012/toolchain/src/arm-mips-src-20121018/build.arm.cortex-a15/obj/glibc_0_final/libc_pic.a(getdents.os)
 .debug_frame   0x0000000000001ae0       0x2c /home6/daewon2/Release/glibc/SP/SP_Linux/LP_Linux_Prj/REL/VDLinux.3.x.2012/toolchain/src/arm-mips-src-20121018/build.arm.cortex-a15/obj/glibc_0_final/libc_pic.a(fdopendir.os)
 .debug_frame   0x0000000000001b0c       0x2c /home6/daewon2/Release/glibc/SP/SP_Linux/LP_Linux_Prj/REL/VDLinux.3.x.2012/toolchain/src/arm-mips-src-20121018/build.arm.cortex-a15/obj/glibc_0_final/libc_pic.a(uname.os)
 .debug_frame   0x0000000000001b38       0x28 /home6/daewon2/Release/glibc/SP/SP_Linux/LP_Linux_Prj/REL/VDLinux.3.x.2012/toolchain/src/arm-mips-src-20121018/build.arm.cortex-a15/obj/glibc_0_final/libc_pic.a(_exit.os)
 .debug_frame   0x0000000000001b60       0x28 /home6/daewon2/Release/glibc/SP/SP_Linux/LP_Linux_Prj/REL/VDLinux.3.x.2012/toolchain/src/arm-mips-src-20121018/build.arm.cortex-a15/obj/glibc_0_final/libc_pic.a(getpid.os)
 .debug_frame   0x0000000000001b88       0x28 /home6/daewon2/Release/glibc/SP/SP_Linux/LP_Linux_Prj/REL/VDLinux.3.x.2012/toolchain/src/arm-mips-src-20121018/build.arm.cortex-a15/obj/glibc_0_final/libc_pic.a(xstat64.os)
 .debug_frame   0x0000000000001bb0       0x28 /home6/daewon2/Release/glibc/SP/SP_Linux/LP_Linux_Prj/REL/VDLinux.3.x.2012/toolchain/src/arm-mips-src-20121018/build.arm.cortex-a15/obj/glibc_0_final/libc_pic.a(fxstat64.os)
 .debug_frame   0x0000000000001bd8       0x28 /home6/daewon2/Release/glibc/SP/SP_Linux/LP_Linux_Prj/REL/VDLinux.3.x.2012/toolchain/src/arm-mips-src-20121018/build.arm.cortex-a15/obj/glibc_0_final/libc_pic.a(lxstat64.os)
 .debug_frame   0x0000000000001c00       0x5c /home6/daewon2/Release/glibc/SP/SP_Linux/LP_Linux_Prj/REL/VDLinux.3.x.2012/toolchain/src/arm-mips-src-20121018/build.arm.cortex-a15/obj/glibc_0_final/libc_pic.a(open.os)
 .debug_frame   0x0000000000001c5c       0x5c /home6/daewon2/Release/glibc/SP/SP_Linux/LP_Linux_Prj/REL/VDLinux.3.x.2012/toolchain/src/arm-mips-src-20121018/build.arm.cortex-a15/obj/glibc_0_final/libc_pic.a(close.os)
 .debug_frame   0x0000000000001cb8       0x5c /home6/daewon2/Release/glibc/SP/SP_Linux/LP_Linux_Prj/REL/VDLinux.3.x.2012/toolchain/src/arm-mips-src-20121018/build.arm.cortex-a15/obj/glibc_0_final/libc_pic.a(read.os)
 .debug_frame   0x0000000000001d14       0x5c /home6/daewon2/Release/glibc/SP/SP_Linux/LP_Linux_Prj/REL/VDLinux.3.x.2012/toolchain/src/arm-mips-src-20121018/build.arm.cortex-a15/obj/glibc_0_final/libc_pic.a(write.os)
 .debug_frame   0x0000000000001d70       0x2c /home6/daewon2/Release/glibc/SP/SP_Linux/LP_Linux_Prj/REL/VDLinux.3.x.2012/toolchain/src/arm-mips-src-20121018/build.arm.cortex-a15/obj/glibc_0_final/libc_pic.a(lseek.os)
 .debug_frame   0x0000000000001d9c       0x2c /home6/daewon2/Release/glibc/SP/SP_Linux/LP_Linux_Prj/REL/VDLinux.3.x.2012/toolchain/src/arm-mips-src-20121018/build.arm.cortex-a15/obj/glibc_0_final/libc_pic.a(access.os)
 .debug_frame   0x0000000000001dc8       0x5c /home6/daewon2/Release/glibc/SP/SP_Linux/LP_Linux_Prj/REL/VDLinux.3.x.2012/toolchain/src/arm-mips-src-20121018/build.arm.cortex-a15/obj/glibc_0_final/libc_pic.a(fcntl.os)
 .debug_frame   0x0000000000001e24       0x20 /home6/daewon2/Release/glibc/SP/SP_Linux/LP_Linux_Prj/REL/VDLinux.3.x.2012/toolchain/src/arm-mips-src-20121018/build.arm.cortex-a15/obj/glibc_0_final/libc_pic.a(getpagesize.os)
 .debug_frame   0x0000000000001e44       0x40 /home6/daewon2/Release/glibc/SP/SP_Linux/LP_Linux_Prj/REL/VDLinux.3.x.2012/toolchain/src/arm-mips-src-20121018/build.arm.cortex-a15/obj/glibc_0_final/libc_pic.a(mmap.os)
 .debug_frame   0x0000000000001e84       0x2c /home6/daewon2/Release/glibc/SP/SP_Linux/LP_Linux_Prj/REL/VDLinux.3.x.2012/toolchain/src/arm-mips-src-20121018/build.arm.cortex-a15/obj/glibc_0_final/libc_pic.a(munmap.os)
 .debug_frame   0x0000000000001eb0       0x2c /home6/daewon2/Release/glibc/SP/SP_Linux/LP_Linux_Prj/REL/VDLinux.3.x.2012/toolchain/src/arm-mips-src-20121018/build.arm.cortex-a15/obj/glibc_0_final/libc_pic.a(mprotect.os)
 .debug_frame   0x0000000000001edc       0x44 /home6/daewon2/Release/glibc/SP/SP_Linux/LP_Linux_Prj/REL/VDLinux.3.x.2012/toolchain/src/arm-mips-src-20121018/build.arm.cortex-a15/obj/glibc_0_final/libc_pic.a(profil.os)
 .debug_frame   0x0000000000001f20       0x20 /home6/daewon2/Release/glibc/SP/SP_Linux/LP_Linux_Prj/REL/VDLinux.3.x.2012/toolchain/src/arm-mips-src-20121018/build.arm.cortex-a15/obj/glibc_0_final/libc_pic.a(prof-freq.os)
 .debug_frame   0x0000000000001f40       0x2c /home6/daewon2/Release/glibc/SP/SP_Linux/LP_Linux_Prj/REL/VDLinux.3.x.2012/toolchain/src/arm-mips-src-20121018/build.arm.cortex-a15/obj/glibc_0_final/libc_pic.a(libc-lowlevellock.os)
 .debug_frame   0x0000000000001f6c       0x40 /home6/daewon2/Release/glibc/SP/SP_Linux/LP_Linux_Prj/REL/VDLinux.3.x.2012/toolchain/src/arm-mips-src-20121018/build.arm.cortex-a15/obj/glibc_0_final/libc_pic.a(libc-cancellation.os)
 .debug_frame   0x0000000000001fac       0x24 /home6/daewon2/Release/glibc/SP/SP_Linux/LP_Linux_Prj/REL/VDLinux.3.x.2012/toolchain/src/arm-mips-src-20121018/build.arm.cortex-a15/obj/glibc_0_final/libc_pic.a(sysdep.os)
 .debug_frame   0x0000000000001fd0       0x44 /home6/daewon2/Release/glibc/SP/SP_Linux/LP_Linux_Prj/REL/VDLinux.3.x.2012/toolchain/src/arm-mips-src-20121018/build.arm.cortex-a15/obj/glibc_0_final/libc_pic.a(sigaction.os)
 .debug_frame   0x0000000000002014      0x150 /home6/daewon2/Release/glibc/SP/SP_Linux/LP_Linux_Prj/REL/VDLinux.3.x.2012/toolchain/src/arm-mips-src-20121018/build.arm.cortex-a15/obj/glibc_0_final/libc_pic.a(sigrestorer.os)
 .debug_frame   0x0000000000002164       0x2c /home6/daewon2/Release/glibc/SP/SP_Linux/LP_Linux_Prj/REL/VDLinux.3.x.2012/toolchain/src/arm-mips-src-20121018/build.arm.cortex-a15/obj/glibc_0_final/libc_pic.a(setitimer.os)
 .debug_frame   0x0000000000002190      0x310 /home6/daewon2/Release/glibc/SP/SP_Linux/LP_Linux_Prj/REL/VDLinux.3.x.2012/toolchain/src/arm-mips-src-20121018/build.arm.cortex-a15/obj/glibc_0_final/libc_pic.a(forward.os)
 .debug_frame   0x00000000000024a0       0x48 /home6/daewon2/Release/glibc/SP/SP_Linux/LP_Linux_Prj/REL/VDLinux.3.x.2012/toolchain/src/arm-mips-src-20121018/build.arm.cortex-a15/obj/glibc_0_final/libc_pic.a(exit.os)
 .debug_frame   0x00000000000024e8       0x5c /home6/daewon2/Release/glibc/SP/SP_Linux/LP_Linux_Prj/REL/VDLinux.3.x.2012/toolchain/src/arm-mips-src-20121018/build.arm.cortex-a15/obj/glibc_0_final/libc_pic.a(cxa_atexit.os)
 .debug_frame   0x0000000000002544       0x54 /home6/daewon2/Release/glibc/SP/SP_Linux/LP_Linux_Prj/REL/VDLinux.3.x.2012/toolchain/src/arm-mips-src-20121018/scripts/arm-v7a15v3r1/lib/gcc/arm-v7a15v3r1-linux-gnueabi/4.6.4/libgcc.a(bpabi.o)
 .debug_frame   0x0000000000002598       0x28 /home6/daewon2/Release/glibc/SP/SP_Linux/LP_Linux_Prj/REL/VDLinux.3.x.2012/toolchain/src/arm-mips-src-20121018/build.arm.cortex-a15/obj/glibc_0_final/libc_pic.a(raise.os)

.debug_str      0x0000000000000000    0x351c6
 *(.debug_str)
 .debug_str     0x0000000000000000    0x27549 /home6/daewon2/Release/glibc/SP/SP_Linux/LP_Linux_Prj/REL/VDLinux.3.x.2012/toolchain/src/arm-mips-src-20121018/build.arm.cortex-a15/obj/glibc_0_final/elf/dl-allobjs.os
 .debug_str     0x0000000000027549      0x3ab /home6/daewon2/Release/glibc/SP/SP_Linux/LP_Linux_Prj/REL/VDLinux.3.x.2012/toolchain/src/arm-mips-src-20121018/build.arm.cortex-a15/obj/glibc_0_final/libc_pic.a(check_fds.os)
 .debug_str     0x00000000000278f4      0x211 /home6/daewon2/Release/glibc/SP/SP_Linux/LP_Linux_Prj/REL/VDLinux.3.x.2012/toolchain/src/arm-mips-src-20121018/build.arm.cortex-a15/obj/glibc_0_final/libc_pic.a(errno.os)
 .debug_str     0x0000000000027b05      0x212 /home6/daewon2/Release/glibc/SP/SP_Linux/LP_Linux_Prj/REL/VDLinux.3.x.2012/toolchain/src/arm-mips-src-20121018/build.arm.cortex-a15/obj/glibc_0_final/libc_pic.a(divdi3.os)
 .debug_str     0x0000000000027d17      0x1b5 /home6/daewon2/Release/glibc/SP/SP_Linux/LP_Linux_Prj/REL/VDLinux.3.x.2012/toolchain/src/arm-mips-src-20121018/build.arm.cortex-a15/obj/glibc_0_final/libc_pic.a(strchr.os)
 .debug_str     0x0000000000027ecc      0x14f /home6/daewon2/Release/glibc/SP/SP_Linux/LP_Linux_Prj/REL/VDLinux.3.x.2012/toolchain/src/arm-mips-src-20121018/build.arm.cortex-a15/obj/glibc_0_final/libc_pic.a(strcmp.os)
 .debug_str     0x000000000002801b      0x165 /home6/daewon2/Release/glibc/SP/SP_Linux/LP_Linux_Prj/REL/VDLinux.3.x.2012/toolchain/src/arm-mips-src-20121018/build.arm.cortex-a15/obj/glibc_0_final/libc_pic.a(strcpy.os)
 .debug_str     0x0000000000028180      0x1c5 /home6/daewon2/Release/glibc/SP/SP_Linux/LP_Linux_Prj/REL/VDLinux.3.x.2012/toolchain/src/arm-mips-src-20121018/build.arm.cortex-a15/obj/glibc_0_final/libc_pic.a(strnlen.os)
 .debug_str     0x0000000000028345      0x1b2 /home6/daewon2/Release/glibc/SP/SP_Linux/LP_Linux_Prj/REL/VDLinux.3.x.2012/toolchain/src/arm-mips-src-20121018/build.arm.cortex-a15/obj/glibc_0_final/libc_pic.a(memchr.os)
 .debug_str     0x00000000000284f7      0x1a8 /home6/daewon2/Release/glibc/SP/SP_Linux/LP_Linux_Prj/REL/VDLinux.3.x.2012/toolchain/src/arm-mips-src-20121018/build.arm.cortex-a15/obj/glibc_0_final/libc_pic.a(memcmp.os)
 .debug_str     0x000000000002869f      0x181 /home6/daewon2/Release/glibc/SP/SP_Linux/LP_Linux_Prj/REL/VDLinux.3.x.2012/toolchain/src/arm-mips-src-20121018/build.arm.cortex-a15/obj/glibc_0_final/libc_pic.a(mempcpy.os)
 .debug_str     0x0000000000028820      0x158 /home6/daewon2/Release/glibc/SP/SP_Linux/LP_Linux_Prj/REL/VDLinux.3.x.2012/toolchain/src/arm-mips-src-20121018/build.arm.cortex-a15/obj/glibc_0_final/libc_pic.a(stpcpy.os)
 .debug_str     0x0000000000028978      0x168 /home6/daewon2/Release/glibc/SP/SP_Linux/LP_Linux_Prj/REL/VDLinux.3.x.2012/toolchain/src/arm-mips-src-20121018/build.arm.cortex-a15/obj/glibc_0_final/libc_pic.a(wordcopy.os)
 .debug_str     0x0000000000028ae0      0x1c2 /home6/daewon2/Release/glibc/SP/SP_Linux/LP_Linux_Prj/REL/VDLinux.3.x.2012/toolchain/src/arm-mips-src-20121018/build.arm.cortex-a15/obj/glibc_0_final/libc_pic.a(rawmemchr.os)
 .debug_str     0x0000000000028ca2      0x297 /home6/daewon2/Release/glibc/SP/SP_Linux/LP_Linux_Prj/REL/VDLinux.3.x.2012/toolchain/src/arm-mips-src-20121018/build.arm.cortex-a15/obj/glibc_0_final/libc_pic.a(closedir.os)
 .debug_str     0x0000000000028f39      0xb64 /home6/daewon2/Release/glibc/SP/SP_Linux/LP_Linux_Prj/REL/VDLinux.3.x.2012/toolchain/src/arm-mips-src-20121018/build.arm.cortex-a15/obj/glibc_0_final/libc_pic.a(readdir.os)
 .debug_str     0x0000000000029a9d      0xb03 /home6/daewon2/Release/glibc/SP/SP_Linux/LP_Linux_Prj/REL/VDLinux.3.x.2012/toolchain/src/arm-mips-src-20121018/build.arm.cortex-a15/obj/glibc_0_final/libc_pic.a(rewinddir.os)
 .debug_str     0x000000000002a5a0      0x316 /home6/daewon2/Release/glibc/SP/SP_Linux/LP_Linux_Prj/REL/VDLinux.3.x.2012/toolchain/src/arm-mips-src-20121018/build.arm.cortex-a15/obj/glibc_0_final/libc_pic.a(getdents.os)
 .debug_str     0x000000000002a8b6      0x3ac /home6/daewon2/Release/glibc/SP/SP_Linux/LP_Linux_Prj/REL/VDLinux.3.x.2012/toolchain/src/arm-mips-src-20121018/build.arm.cortex-a15/obj/glibc_0_final/libc_pic.a(fdopendir.os)
 .debug_str     0x000000000002ac62      0x253 /home6/daewon2/Release/glibc/SP/SP_Linux/LP_Linux_Prj/REL/VDLinux.3.x.2012/toolchain/src/arm-mips-src-20121018/build.arm.cortex-a15/obj/glibc_0_final/libc_pic.a(_exit.os)
 .debug_str     0x000000000002aeb5      0xa70 /home6/daewon2/Release/glibc/SP/SP_Linux/LP_Linux_Prj/REL/VDLinux.3.x.2012/toolchain/src/arm-mips-src-20121018/build.arm.cortex-a15/obj/glibc_0_final/libc_pic.a(getpid.os)
 .debug_str     0x000000000002b925      0x157 /home6/daewon2/Release/glibc/SP/SP_Linux/LP_Linux_Prj/REL/VDLinux.3.x.2012/toolchain/src/arm-mips-src-20121018/build.arm.cortex-a15/obj/glibc_0_final/libc_pic.a(environ.os)
 .debug_str     0x000000000002ba7c      0x37a /home6/daewon2/Release/glibc/SP/SP_Linux/LP_Linux_Prj/REL/VDLinux.3.x.2012/toolchain/src/arm-mips-src-20121018/build.arm.cortex-a15/obj/glibc_0_final/libc_pic.a(xstat64.os)
 .debug_str     0x000000000002bdf6      0x377 /home6/daewon2/Release/glibc/SP/SP_Linux/LP_Linux_Prj/REL/VDLinux.3.x.2012/toolchain/src/arm-mips-src-20121018/build.arm.cortex-a15/obj/glibc_0_final/libc_pic.a(fxstat64.os)
 .debug_str     0x000000000002c16d      0x37c /home6/daewon2/Release/glibc/SP/SP_Linux/LP_Linux_Prj/REL/VDLinux.3.x.2012/toolchain/src/arm-mips-src-20121018/build.arm.cortex-a15/obj/glibc_0_final/libc_pic.a(lxstat64.os)
 .debug_str     0x000000000002c4e9      0x34d /home6/daewon2/Release/glibc/SP/SP_Linux/LP_Linux_Prj/REL/VDLinux.3.x.2012/toolchain/src/arm-mips-src-20121018/build.arm.cortex-a15/obj/glibc_0_final/libc_pic.a(fcntl.os)
 .debug_str     0x000000000002c836     0x1005 /home6/daewon2/Release/glibc/SP/SP_Linux/LP_Linux_Prj/REL/VDLinux.3.x.2012/toolchain/src/arm-mips-src-20121018/build.arm.cortex-a15/obj/glibc_0_final/libc_pic.a(getpagesize.os)
 .debug_str     0x000000000002d83b      0x5fe /home6/daewon2/Release/glibc/SP/SP_Linux/LP_Linux_Prj/REL/VDLinux.3.x.2012/toolchain/src/arm-mips-src-20121018/build.arm.cortex-a15/obj/glibc_0_final/libc_pic.a(profil.os)
 .debug_str     0x000000000002de39     0x100f /home6/daewon2/Release/glibc/SP/SP_Linux/LP_Linux_Prj/REL/VDLinux.3.x.2012/toolchain/src/arm-mips-src-20121018/build.arm.cortex-a15/obj/glibc_0_final/libc_pic.a(prof-freq.os)
 .debug_str     0x000000000002ee48      0xac6 /home6/daewon2/Release/glibc/SP/SP_Linux/LP_Linux_Prj/REL/VDLinux.3.x.2012/toolchain/src/arm-mips-src-20121018/build.arm.cortex-a15/obj/glibc_0_final/libc_pic.a(libc-lowlevellock.os)
 .debug_str     0x000000000002f90e      0xb84 /home6/daewon2/Release/glibc/SP/SP_Linux/LP_Linux_Prj/REL/VDLinux.3.x.2012/toolchain/src/arm-mips-src-20121018/build.arm.cortex-a15/obj/glibc_0_final/libc_pic.a(libc-cancellation.os)
 .debug_str     0x0000000000030492      0x3a1 /home6/daewon2/Release/glibc/SP/SP_Linux/LP_Linux_Prj/REL/VDLinux.3.x.2012/toolchain/src/arm-mips-src-20121018/build.arm.cortex-a15/obj/glibc_0_final/libc_pic.a(libc_multiple_threads.os)
 .debug_str     0x0000000000030833     0x129e /home6/daewon2/Release/glibc/SP/SP_Linux/LP_Linux_Prj/REL/VDLinux.3.x.2012/toolchain/src/arm-mips-src-20121018/build.arm.cortex-a15/obj/glibc_0_final/libc_pic.a(sigaction.os)
 .debug_str     0x0000000000031ad1     0x1700 /home6/daewon2/Release/glibc/SP/SP_Linux/LP_Linux_Prj/REL/VDLinux.3.x.2012/toolchain/src/arm-mips-src-20121018/build.arm.cortex-a15/obj/glibc_0_final/libc_pic.a(forward.os)
 .debug_str     0x00000000000331d1      0x882 /home6/daewon2/Release/glibc/SP/SP_Linux/LP_Linux_Prj/REL/VDLinux.3.x.2012/toolchain/src/arm-mips-src-20121018/build.arm.cortex-a15/obj/glibc_0_final/libc_pic.a(exit.os)
 .debug_str     0x0000000000033a53      0xb73 /home6/daewon2/Release/glibc/SP/SP_Linux/LP_Linux_Prj/REL/VDLinux.3.x.2012/toolchain/src/arm-mips-src-20121018/build.arm.cortex-a15/obj/glibc_0_final/libc_pic.a(cxa_atexit.os)
 .debug_str     0x00000000000345c6      0x122 /home6/daewon2/Release/glibc/SP/SP_Linux/LP_Linux_Prj/REL/VDLinux.3.x.2012/toolchain/src/arm-mips-src-20121018/scripts/arm-v7a15v3r1/lib/gcc/arm-v7a15v3r1-linux-gnueabi/4.6.4/libgcc.a(bpabi.o)
 .debug_str     0x00000000000346e8      0xade /home6/daewon2/Release/glibc/SP/SP_Linux/LP_Linux_Prj/REL/VDLinux.3.x.2012/toolchain/src/arm-mips-src-20121018/build.arm.cortex-a15/obj/glibc_0_final/libc_pic.a(raise.os)

.debug_loc      0x0000000000000000    0x1a0bb
 *(.debug_loc)
 .debug_loc     0x0000000000000000    0x144b9 /home6/daewon2/Release/glibc/SP/SP_Linux/LP_Linux_Prj/REL/VDLinux.3.x.2012/toolchain/src/arm-mips-src-20121018/build.arm.cortex-a15/obj/glibc_0_final/elf/dl-allobjs.os
 .debug_loc     0x00000000000144b9      0x163 /home6/daewon2/Release/glibc/SP/SP_Linux/LP_Linux_Prj/REL/VDLinux.3.x.2012/toolchain/src/arm-mips-src-20121018/build.arm.cortex-a15/obj/glibc_0_final/libc_pic.a(check_fds.os)
 .debug_loc     0x000000000001461c      0xb79 /home6/daewon2/Release/glibc/SP/SP_Linux/LP_Linux_Prj/REL/VDLinux.3.x.2012/toolchain/src/arm-mips-src-20121018/build.arm.cortex-a15/obj/glibc_0_final/libc_pic.a(divdi3.os)
 .debug_loc     0x0000000000015195      0x154 /home6/daewon2/Release/glibc/SP/SP_Linux/LP_Linux_Prj/REL/VDLinux.3.x.2012/toolchain/src/arm-mips-src-20121018/build.arm.cortex-a15/obj/glibc_0_final/libc_pic.a(strchr.os)
 .debug_loc     0x00000000000152e9       0x1e /home6/daewon2/Release/glibc/SP/SP_Linux/LP_Linux_Prj/REL/VDLinux.3.x.2012/toolchain/src/arm-mips-src-20121018/build.arm.cortex-a15/obj/glibc_0_final/libc_pic.a(strcmp.os)
 .debug_loc     0x0000000000015307       0x13 /home6/daewon2/Release/glibc/SP/SP_Linux/LP_Linux_Prj/REL/VDLinux.3.x.2012/toolchain/src/arm-mips-src-20121018/build.arm.cortex-a15/obj/glibc_0_final/libc_pic.a(strcpy.os)
 .debug_loc     0x000000000001531a      0x179 /home6/daewon2/Release/glibc/SP/SP_Linux/LP_Linux_Prj/REL/VDLinux.3.x.2012/toolchain/src/arm-mips-src-20121018/build.arm.cortex-a15/obj/glibc_0_final/libc_pic.a(strnlen.os)
 .debug_loc     0x0000000000015493      0x1f3 /home6/daewon2/Release/glibc/SP/SP_Linux/LP_Linux_Prj/REL/VDLinux.3.x.2012/toolchain/src/arm-mips-src-20121018/build.arm.cortex-a15/obj/glibc_0_final/libc_pic.a(memchr.os)
 .debug_loc     0x0000000000015686      0xe5b /home6/daewon2/Release/glibc/SP/SP_Linux/LP_Linux_Prj/REL/VDLinux.3.x.2012/toolchain/src/arm-mips-src-20121018/build.arm.cortex-a15/obj/glibc_0_final/libc_pic.a(memcmp.os)
 .debug_loc     0x00000000000164e1      0x15e /home6/daewon2/Release/glibc/SP/SP_Linux/LP_Linux_Prj/REL/VDLinux.3.x.2012/toolchain/src/arm-mips-src-20121018/build.arm.cortex-a15/obj/glibc_0_final/libc_pic.a(mempcpy.os)
 .debug_loc     0x000000000001663f       0x5a /home6/daewon2/Release/glibc/SP/SP_Linux/LP_Linux_Prj/REL/VDLinux.3.x.2012/toolchain/src/arm-mips-src-20121018/build.arm.cortex-a15/obj/glibc_0_final/libc_pic.a(stpcpy.os)
 .debug_loc     0x0000000000016699      0xc52 /home6/daewon2/Release/glibc/SP/SP_Linux/LP_Linux_Prj/REL/VDLinux.3.x.2012/toolchain/src/arm-mips-src-20121018/build.arm.cortex-a15/obj/glibc_0_final/libc_pic.a(wordcopy.os)
 .debug_loc     0x00000000000172eb      0x133 /home6/daewon2/Release/glibc/SP/SP_Linux/LP_Linux_Prj/REL/VDLinux.3.x.2012/toolchain/src/arm-mips-src-20121018/build.arm.cortex-a15/obj/glibc_0_final/libc_pic.a(rawmemchr.os)
 .debug_loc     0x000000000001741e       0xc2 /home6/daewon2/Release/glibc/SP/SP_Linux/LP_Linux_Prj/REL/VDLinux.3.x.2012/toolchain/src/arm-mips-src-20121018/build.arm.cortex-a15/obj/glibc_0_final/libc_pic.a(closedir.os)
 .debug_loc     0x00000000000174e0      0x1fe /home6/daewon2/Release/glibc/SP/SP_Linux/LP_Linux_Prj/REL/VDLinux.3.x.2012/toolchain/src/arm-mips-src-20121018/build.arm.cortex-a15/obj/glibc_0_final/libc_pic.a(readdir.os)
 .debug_loc     0x00000000000176de      0x171 /home6/daewon2/Release/glibc/SP/SP_Linux/LP_Linux_Prj/REL/VDLinux.3.x.2012/toolchain/src/arm-mips-src-20121018/build.arm.cortex-a15/obj/glibc_0_final/libc_pic.a(rewinddir.os)
 .debug_loc     0x000000000001784f      0x179 /home6/daewon2/Release/glibc/SP/SP_Linux/LP_Linux_Prj/REL/VDLinux.3.x.2012/toolchain/src/arm-mips-src-20121018/build.arm.cortex-a15/obj/glibc_0_final/libc_pic.a(getdents.os)
 .debug_loc     0x00000000000179c8       0x7f /home6/daewon2/Release/glibc/SP/SP_Linux/LP_Linux_Prj/REL/VDLinux.3.x.2012/toolchain/src/arm-mips-src-20121018/build.arm.cortex-a15/obj/glibc_0_final/libc_pic.a(fdopendir.os)
 .debug_loc     0x0000000000017a47       0xe1 /home6/daewon2/Release/glibc/SP/SP_Linux/LP_Linux_Prj/REL/VDLinux.3.x.2012/toolchain/src/arm-mips-src-20121018/build.arm.cortex-a15/obj/glibc_0_final/libc_pic.a(_exit.os)
 .debug_loc     0x0000000000017b28       0x9e /home6/daewon2/Release/glibc/SP/SP_Linux/LP_Linux_Prj/REL/VDLinux.3.x.2012/toolchain/src/arm-mips-src-20121018/build.arm.cortex-a15/obj/glibc_0_final/libc_pic.a(getpid.os)
 .debug_loc     0x0000000000017bc6      0x112 /home6/daewon2/Release/glibc/SP/SP_Linux/LP_Linux_Prj/REL/VDLinux.3.x.2012/toolchain/src/arm-mips-src-20121018/build.arm.cortex-a15/obj/glibc_0_final/libc_pic.a(xstat64.os)
 .debug_loc     0x0000000000017cd8      0x112 /home6/daewon2/Release/glibc/SP/SP_Linux/LP_Linux_Prj/REL/VDLinux.3.x.2012/toolchain/src/arm-mips-src-20121018/build.arm.cortex-a15/obj/glibc_0_final/libc_pic.a(fxstat64.os)
 .debug_loc     0x0000000000017dea      0x112 /home6/daewon2/Release/glibc/SP/SP_Linux/LP_Linux_Prj/REL/VDLinux.3.x.2012/toolchain/src/arm-mips-src-20121018/build.arm.cortex-a15/obj/glibc_0_final/libc_pic.a(lxstat64.os)
 .debug_loc     0x0000000000017efc      0x41b /home6/daewon2/Release/glibc/SP/SP_Linux/LP_Linux_Prj/REL/VDLinux.3.x.2012/toolchain/src/arm-mips-src-20121018/build.arm.cortex-a15/obj/glibc_0_final/libc_pic.a(fcntl.os)
 .debug_loc     0x0000000000018317      0x192 /home6/daewon2/Release/glibc/SP/SP_Linux/LP_Linux_Prj/REL/VDLinux.3.x.2012/toolchain/src/arm-mips-src-20121018/build.arm.cortex-a15/obj/glibc_0_final/libc_pic.a(profil.os)
 .debug_loc     0x00000000000184a9      0x1df /home6/daewon2/Release/glibc/SP/SP_Linux/LP_Linux_Prj/REL/VDLinux.3.x.2012/toolchain/src/arm-mips-src-20121018/build.arm.cortex-a15/obj/glibc_0_final/libc_pic.a(libc-lowlevellock.os)
 .debug_loc     0x0000000000018688      0x279 /home6/daewon2/Release/glibc/SP/SP_Linux/LP_Linux_Prj/REL/VDLinux.3.x.2012/toolchain/src/arm-mips-src-20121018/build.arm.cortex-a15/obj/glibc_0_final/libc_pic.a(libc-cancellation.os)
 .debug_loc     0x0000000000018901      0x294 /home6/daewon2/Release/glibc/SP/SP_Linux/LP_Linux_Prj/REL/VDLinux.3.x.2012/toolchain/src/arm-mips-src-20121018/build.arm.cortex-a15/obj/glibc_0_final/libc_pic.a(sigaction.os)
 .debug_loc     0x0000000000018b95      0xc69 /home6/daewon2/Release/glibc/SP/SP_Linux/LP_Linux_Prj/REL/VDLinux.3.x.2012/toolchain/src/arm-mips-src-20121018/build.arm.cortex-a15/obj/glibc_0_final/libc_pic.a(forward.os)
 .debug_loc     0x00000000000197fe      0x155 /home6/daewon2/Release/glibc/SP/SP_Linux/LP_Linux_Prj/REL/VDLinux.3.x.2012/toolchain/src/arm-mips-src-20121018/build.arm.cortex-a15/obj/glibc_0_final/libc_pic.a(exit.os)
 .debug_loc     0x0000000000019953      0x41f /home6/daewon2/Release/glibc/SP/SP_Linux/LP_Linux_Prj/REL/VDLinux.3.x.2012/toolchain/src/arm-mips-src-20121018/build.arm.cortex-a15/obj/glibc_0_final/libc_pic.a(cxa_atexit.os)
 .debug_loc     0x0000000000019d72       0xa0 /home6/daewon2/Release/glibc/SP/SP_Linux/LP_Linux_Prj/REL/VDLinux.3.x.2012/toolchain/src/arm-mips-src-20121018/scripts/arm-v7a15v3r1/lib/gcc/arm-v7a15v3r1-linux-gnueabi/4.6.4/libgcc.a(bpabi.o)
 .debug_loc     0x0000000000019e12      0x2a9 /home6/daewon2/Release/glibc/SP/SP_Linux/LP_Linux_Prj/REL/VDLinux.3.x.2012/toolchain/src/arm-mips-src-20121018/build.arm.cortex-a15/obj/glibc_0_final/libc_pic.a(raise.os)

.debug_macinfo
 *(.debug_macinfo)

.debug_weaknames
 *(.debug_weaknames)

.debug_funcnames
 *(.debug_funcnames)

.debug_typenames
 *(.debug_typenames)

.debug_varnames
 *(.debug_varnames)

.debug_pubtypes
 *(.debug_pubtypes)

.debug_ranges   0x0000000000000000     0x6568
 *(.debug_ranges)
 .debug_ranges  0x0000000000000000     0x59e8 /home6/daewon2/Release/glibc/SP/SP_Linux/LP_Linux_Prj/REL/VDLinux.3.x.2012/toolchain/src/arm-mips-src-20121018/build.arm.cortex-a15/obj/glibc_0_final/elf/dl-allobjs.os
 .debug_ranges  0x00000000000059e8       0x18 /home6/daewon2/Release/glibc/SP/SP_Linux/LP_Linux_Prj/REL/VDLinux.3.x.2012/toolchain/src/arm-mips-src-20121018/build.arm.cortex-a15/obj/glibc_0_final/libc_pic.a(check_fds.os)
 .debug_ranges  0x0000000000005a00       0xb8 /home6/daewon2/Release/glibc/SP/SP_Linux/LP_Linux_Prj/REL/VDLinux.3.x.2012/toolchain/src/arm-mips-src-20121018/build.arm.cortex-a15/obj/glibc_0_final/libc_pic.a(divdi3.os)
 .debug_ranges  0x0000000000005ab8       0x38 /home6/daewon2/Release/glibc/SP/SP_Linux/LP_Linux_Prj/REL/VDLinux.3.x.2012/toolchain/src/arm-mips-src-20121018/build.arm.cortex-a15/obj/glibc_0_final/libc_pic.a(strchr.os)
 .debug_ranges  0x0000000000005af0       0x10 /home6/daewon2/Release/glibc/SP/SP_Linux/LP_Linux_Prj/REL/VDLinux.3.x.2012/toolchain/src/arm-mips-src-20121018/build.arm.cortex-a15/obj/glibc_0_final/libc_pic.a(strcmp.os)
 .debug_ranges  0x0000000000005b00       0x10 /home6/daewon2/Release/glibc/SP/SP_Linux/LP_Linux_Prj/REL/VDLinux.3.x.2012/toolchain/src/arm-mips-src-20121018/build.arm.cortex-a15/obj/glibc_0_final/libc_pic.a(strcpy.os)
 .debug_ranges  0x0000000000005b10       0x30 /home6/daewon2/Release/glibc/SP/SP_Linux/LP_Linux_Prj/REL/VDLinux.3.x.2012/toolchain/src/arm-mips-src-20121018/build.arm.cortex-a15/obj/glibc_0_final/libc_pic.a(strnlen.os)
 .debug_ranges  0x0000000000005b40       0x28 /home6/daewon2/Release/glibc/SP/SP_Linux/LP_Linux_Prj/REL/VDLinux.3.x.2012/toolchain/src/arm-mips-src-20121018/build.arm.cortex-a15/obj/glibc_0_final/libc_pic.a(memchr.os)
 .debug_ranges  0x0000000000005b68      0x150 /home6/daewon2/Release/glibc/SP/SP_Linux/LP_Linux_Prj/REL/VDLinux.3.x.2012/toolchain/src/arm-mips-src-20121018/build.arm.cortex-a15/obj/glibc_0_final/libc_pic.a(memcmp.os)
 .debug_ranges  0x0000000000005cb8       0x58 /home6/daewon2/Release/glibc/SP/SP_Linux/LP_Linux_Prj/REL/VDLinux.3.x.2012/toolchain/src/arm-mips-src-20121018/build.arm.cortex-a15/obj/glibc_0_final/libc_pic.a(mempcpy.os)
 .debug_ranges  0x0000000000005d10       0x10 /home6/daewon2/Release/glibc/SP/SP_Linux/LP_Linux_Prj/REL/VDLinux.3.x.2012/toolchain/src/arm-mips-src-20121018/build.arm.cortex-a15/obj/glibc_0_final/libc_pic.a(stpcpy.os)
 .debug_ranges  0x0000000000005d20       0x28 /home6/daewon2/Release/glibc/SP/SP_Linux/LP_Linux_Prj/REL/VDLinux.3.x.2012/toolchain/src/arm-mips-src-20121018/build.arm.cortex-a15/obj/glibc_0_final/libc_pic.a(wordcopy.os)
 .debug_ranges  0x0000000000005d48       0x30 /home6/daewon2/Release/glibc/SP/SP_Linux/LP_Linux_Prj/REL/VDLinux.3.x.2012/toolchain/src/arm-mips-src-20121018/build.arm.cortex-a15/obj/glibc_0_final/libc_pic.a(rawmemchr.os)
 .debug_ranges  0x0000000000005d78       0x40 /home6/daewon2/Release/glibc/SP/SP_Linux/LP_Linux_Prj/REL/VDLinux.3.x.2012/toolchain/src/arm-mips-src-20121018/build.arm.cortex-a15/obj/glibc_0_final/libc_pic.a(closedir.os)
 .debug_ranges  0x0000000000005db8       0xe8 /home6/daewon2/Release/glibc/SP/SP_Linux/LP_Linux_Prj/REL/VDLinux.3.x.2012/toolchain/src/arm-mips-src-20121018/build.arm.cortex-a15/obj/glibc_0_final/libc_pic.a(readdir.os)
 .debug_ranges  0x0000000000005ea0       0xa8 /home6/daewon2/Release/glibc/SP/SP_Linux/LP_Linux_Prj/REL/VDLinux.3.x.2012/toolchain/src/arm-mips-src-20121018/build.arm.cortex-a15/obj/glibc_0_final/libc_pic.a(rewinddir.os)
 .debug_ranges  0x0000000000005f48       0x40 /home6/daewon2/Release/glibc/SP/SP_Linux/LP_Linux_Prj/REL/VDLinux.3.x.2012/toolchain/src/arm-mips-src-20121018/build.arm.cortex-a15/obj/glibc_0_final/libc_pic.a(getdents.os)
 .debug_ranges  0x0000000000005f88       0x10 /home6/daewon2/Release/glibc/SP/SP_Linux/LP_Linux_Prj/REL/VDLinux.3.x.2012/toolchain/src/arm-mips-src-20121018/build.arm.cortex-a15/obj/glibc_0_final/libc_pic.a(fdopendir.os)
 .debug_ranges  0x0000000000005f98       0x70 /home6/daewon2/Release/glibc/SP/SP_Linux/LP_Linux_Prj/REL/VDLinux.3.x.2012/toolchain/src/arm-mips-src-20121018/build.arm.cortex-a15/obj/glibc_0_final/libc_pic.a(_exit.os)
 .debug_ranges  0x0000000000006008       0x28 /home6/daewon2/Release/glibc/SP/SP_Linux/LP_Linux_Prj/REL/VDLinux.3.x.2012/toolchain/src/arm-mips-src-20121018/build.arm.cortex-a15/obj/glibc_0_final/libc_pic.a(getpid.os)
 .debug_ranges  0x0000000000006030       0x28 /home6/daewon2/Release/glibc/SP/SP_Linux/LP_Linux_Prj/REL/VDLinux.3.x.2012/toolchain/src/arm-mips-src-20121018/build.arm.cortex-a15/obj/glibc_0_final/libc_pic.a(xstat64.os)
 .debug_ranges  0x0000000000006058       0x28 /home6/daewon2/Release/glibc/SP/SP_Linux/LP_Linux_Prj/REL/VDLinux.3.x.2012/toolchain/src/arm-mips-src-20121018/build.arm.cortex-a15/obj/glibc_0_final/libc_pic.a(fxstat64.os)
 .debug_ranges  0x0000000000006080       0x28 /home6/daewon2/Release/glibc/SP/SP_Linux/LP_Linux_Prj/REL/VDLinux.3.x.2012/toolchain/src/arm-mips-src-20121018/build.arm.cortex-a15/obj/glibc_0_final/libc_pic.a(lxstat64.os)
 .debug_ranges  0x00000000000060a8       0xa8 /home6/daewon2/Release/glibc/SP/SP_Linux/LP_Linux_Prj/REL/VDLinux.3.x.2012/toolchain/src/arm-mips-src-20121018/build.arm.cortex-a15/obj/glibc_0_final/libc_pic.a(fcntl.os)
 .debug_ranges  0x0000000000006150       0x10 /home6/daewon2/Release/glibc/SP/SP_Linux/LP_Linux_Prj/REL/VDLinux.3.x.2012/toolchain/src/arm-mips-src-20121018/build.arm.cortex-a15/obj/glibc_0_final/libc_pic.a(getpagesize.os)
 .debug_ranges  0x0000000000006160       0x30 /home6/daewon2/Release/glibc/SP/SP_Linux/LP_Linux_Prj/REL/VDLinux.3.x.2012/toolchain/src/arm-mips-src-20121018/build.arm.cortex-a15/obj/glibc_0_final/libc_pic.a(profil.os)
 .debug_ranges  0x0000000000006190       0x10 /home6/daewon2/Release/glibc/SP/SP_Linux/LP_Linux_Prj/REL/VDLinux.3.x.2012/toolchain/src/arm-mips-src-20121018/build.arm.cortex-a15/obj/glibc_0_final/libc_pic.a(prof-freq.os)
 .debug_ranges  0x00000000000061a0       0xc0 /home6/daewon2/Release/glibc/SP/SP_Linux/LP_Linux_Prj/REL/VDLinux.3.x.2012/toolchain/src/arm-mips-src-20121018/build.arm.cortex-a15/obj/glibc_0_final/libc_pic.a(libc-lowlevellock.os)
 .debug_ranges  0x0000000000006260       0x48 /home6/daewon2/Release/glibc/SP/SP_Linux/LP_Linux_Prj/REL/VDLinux.3.x.2012/toolchain/src/arm-mips-src-20121018/build.arm.cortex-a15/obj/glibc_0_final/libc_pic.a(libc-cancellation.os)
 .debug_ranges  0x00000000000062a8       0x68 /home6/daewon2/Release/glibc/SP/SP_Linux/LP_Linux_Prj/REL/VDLinux.3.x.2012/toolchain/src/arm-mips-src-20121018/build.arm.cortex-a15/obj/glibc_0_final/libc_pic.a(sigaction.os)
 .debug_ranges  0x0000000000006310      0x108 /home6/daewon2/Release/glibc/SP/SP_Linux/LP_Linux_Prj/REL/VDLinux.3.x.2012/toolchain/src/arm-mips-src-20121018/build.arm.cortex-a15/obj/glibc_0_final/libc_pic.a(forward.os)
 .debug_ranges  0x0000000000006418       0x68 /home6/daewon2/Release/glibc/SP/SP_Linux/LP_Linux_Prj/REL/VDLinux.3.x.2012/toolchain/src/arm-mips-src-20121018/build.arm.cortex-a15/obj/glibc_0_final/libc_pic.a(exit.os)
 .debug_ranges  0x0000000000006480       0xa0 /home6/daewon2/Release/glibc/SP/SP_Linux/LP_Linux_Prj/REL/VDLinux.3.x.2012/toolchain/src/arm-mips-src-20121018/build.arm.cortex-a15/obj/glibc_0_final/libc_pic.a(cxa_atexit.os)
 .debug_ranges  0x0000000000006520       0x18 /home6/daewon2/Release/glibc/SP/SP_Linux/LP_Linux_Prj/REL/VDLinux.3.x.2012/toolchain/src/arm-mips-src-20121018/scripts/arm-v7a15v3r1/lib/gcc/arm-v7a15v3r1-linux-gnueabi/4.6.4/libgcc.a(bpabi.o)
 .debug_ranges  0x0000000000006538       0x30 /home6/daewon2/Release/glibc/SP/SP_Linux/LP_Linux_Prj/REL/VDLinux.3.x.2012/toolchain/src/arm-mips-src-20121018/build.arm.cortex-a15/obj/glibc_0_final/libc_pic.a(raise.os)

.gnu.attributes
 *(.gnu.attributes)

.note.gnu.arm.ident
 *(.note.gnu.arm.ident)
OUTPUT(/home6/daewon2/Release/glibc/SP/SP_Linux/LP_Linux_Prj/REL/VDLinux.3.x.2012/toolchain/src/arm-mips-src-20121018/build.arm.cortex-a15/obj/glibc_0_final/elf/librtld.map.o elf32-littlearm)
